
hydrant.elf:     file format elf32-littleriscv
hydrant.elf
architecture: riscv:rv32, flags 0x00000112:
EXEC_P, HAS_SYMS, D_PAGED
start address 0x00000000

Program Header:
    LOAD off    0x00001000 vaddr 0x00000000 paddr 0x00000000 align 2**12
         filesz 0x000086e4 memsz 0x000086e4 flags r-x
    LOAD off    0x0000a000 vaddr 0x20000000 paddr 0x000086e4 align 2**12
         filesz 0x000000e0 memsz 0x000003ac flags rw-
    LOAD off    0x0000a800 vaddr 0x20007800 paddr 0x20007800 align 2**12
         filesz 0x00000000 memsz 0x00000800 flags rw-

Sections:
Idx Name          Size      VMA       LMA       File off  Algn
  0 .init         00000038  00000000  00000000  00001000  2**1
                  CONTENTS, ALLOC, LOAD, READONLY, CODE
  1 .vector       000001c8  00000038  00000038  00001038  2**1
                  CONTENTS, ALLOC, LOAD, READONLY, CODE
  2 .text         000084e4  00000200  00000200  00001200  2**3
                  CONTENTS, ALLOC, LOAD, READONLY, CODE
  3 .fini         00000000  000086e4  000086e4  0000a0e0  2**0
                  CONTENTS, ALLOC, LOAD, CODE
  4 .dalign       00000000  20000000  20000000  0000a0e0  2**0
                  CONTENTS
  5 .dlalign      00000000  000086e4  000086e4  0000a0e0  2**0
                  CONTENTS
  6 .data         000000e0  20000000  000086e4  0000a000  2**2
                  CONTENTS, ALLOC, LOAD, DATA
  7 .bss          000002cc  200000e0  000087c4  0000a0e0  2**2
                  ALLOC
  8 .stack        00000800  20007800  20007800  0000a800  2**0
                  ALLOC
  9 .debug_info   0001b707  00000000  00000000  0000a0e0  2**0
                  CONTENTS, READONLY, DEBUGGING
 10 .debug_abbrev 000041c4  00000000  00000000  000257e7  2**0
                  CONTENTS, READONLY, DEBUGGING
 11 .debug_loc    00007914  00000000  00000000  000299ab  2**0
                  CONTENTS, READONLY, DEBUGGING
 12 .debug_aranges 00000e10  00000000  00000000  000312c0  2**3
                  CONTENTS, READONLY, DEBUGGING
 13 .debug_ranges 00000dd8  00000000  00000000  000320d0  2**3
                  CONTENTS, READONLY, DEBUGGING
 14 .debug_line   00014df9  00000000  00000000  00032ea8  2**0
                  CONTENTS, READONLY, DEBUGGING
 15 .debug_str    00003fd4  00000000  00000000  00047ca1  2**0
                  CONTENTS, READONLY, DEBUGGING
 16 .comment      00000033  00000000  00000000  0004bc75  2**0
                  CONTENTS, READONLY
 17 .debug_frame  00003270  00000000  00000000  0004bca8  2**2
                  CONTENTS, READONLY, DEBUGGING
 18 .stab         00000084  00000000  00000000  0004ef18  2**2
                  CONTENTS, READONLY, DEBUGGING
 19 .stabstr      00000117  00000000  00000000  0004ef9c  2**0
                  CONTENTS, READONLY, DEBUGGING
SYMBOL TABLE:
00000000 l    d  .init	00000000 .init
00000038 l    d  .vector	00000000 .vector
00000200 l    d  .text	00000000 .text
000086e4 l    d  .fini	00000000 .fini
20000000 l    d  .dalign	00000000 .dalign
000086e4 l    d  .dlalign	00000000 .dlalign
20000000 l    d  .data	00000000 .data
200000e0 l    d  .bss	00000000 .bss
20007800 l    d  .stack	00000000 .stack
00000000 l    d  .debug_info	00000000 .debug_info
00000000 l    d  .debug_abbrev	00000000 .debug_abbrev
00000000 l    d  .debug_loc	00000000 .debug_loc
00000000 l    d  .debug_aranges	00000000 .debug_aranges
00000000 l    d  .debug_ranges	00000000 .debug_ranges
00000000 l    d  .debug_line	00000000 .debug_line
00000000 l    d  .debug_str	00000000 .debug_str
00000000 l    d  .comment	00000000 .comment
00000000 l    d  .debug_frame	00000000 .debug_frame
00000000 l    d  .stab	00000000 .stab
00000000 l    d  .stabstr	00000000 .stabstr
00000000 l    df *ABS*	00000000 ./Startup/startup_ch32v30x_D8C.o
00000038 l       .vector	00000000 _vector_base
00000000 l    df *ABS*	00000000 EC20.c
00000000 l    df *ABS*	00000000 IIC.c
00000000 l    df *ABS*	00000000 MPU6050.c
00000000 l    df *ABS*	00000000 RC522.c
00000000 l    df *ABS*	00000000 adc.c
00000000 l    df *ABS*	00000000 ch32v30x_it.c
00000000 l    df *ABS*	00000000 gpio.c
00000000 l    df *ABS*	00000000 lcd.c
00000000 l    df *ABS*	00000000 main.c
00000000 l    df *ABS*	00000000 system_ch32v30x.c
00000000 l    df *ABS*	00000000 timer.c
00000000 l    df *ABS*	00000000 usart.c
20000116 l     O .bss	00000001 ucCnt
200000d0 l     O .data	00000004 curbrk.5226
00000000 l    df *ABS*	00000000 ch32v30x_adc.c
00000000 l    df *ABS*	00000000 ch32v30x_gpio.c
00000000 l    df *ABS*	00000000 ch32v30x_i2c.c
00000000 l    df *ABS*	00000000 ch32v30x_misc.c
00000000 l    df *ABS*	00000000 ch32v30x_rcc.c
20000038 l     O .data	00000010 APBAHBPrescTable
200000d4 l     O .data	00000004 ADCPrescTable
00000000 l    df *ABS*	00000000 ch32v30x_spi.c
00000000 l    df *ABS*	00000000 ch32v30x_tim.c
00000000 l    df *ABS*	00000000 ch32v30x_usart.c
00000000 l    df *ABS*	00000000 debug.c
2000011c l     O .bss	00000002 p_ms
2000011e l     O .bss	00000001 p_us
00000000 l    df *ABS*	00000000 adddf3.c
00000000 l    df *ABS*	00000000 divdf3.c
00000000 l    df *ABS*	00000000 muldf3.c
00000000 l    df *ABS*	00000000 fixdfsi.c
00000000 l    df *ABS*	00000000 floatsidf.c
00000000 l    df *ABS*	00000000 floatunsidf.c
00000000 l    df *ABS*	00000000 addsf3.c
00000000 l    df *ABS*	00000000 divsf3.c
00000000 l    df *ABS*	00000000 mulsf3.c
00000000 l    df *ABS*	00000000 subsf3.c
00000000 l    df *ABS*	00000000 fixsfsi.c
00000000 l    df *ABS*	00000000 fixunssfsi.c
00000000 l    df *ABS*	00000000 floatsisf.c
00000000 l    df *ABS*	00000000 extendsfdf2.c
00000000 l    df *ABS*	00000000 truncdfsf2.c
00000000 l    df *ABS*	00000000 libgcc2.c
00000000 l    df *ABS*	00000000 memcpy.c
00000000 l    df *ABS*	00000000 printf.c
00000000 l    df *ABS*	00000000 puts.c
00000000 l    df *ABS*	00000000 sprintf.c
00000000 l    df *ABS*	00000000 strlen.c
00000000 l    df *ABS*	00000000 strstr.c
00000000 l    df *ABS*	00000000 wbuf.c
00000000 l    df *ABS*	00000000 wsetup.c
00000000 l    df *ABS*	00000000 fflush.c
00000000 l    df *ABS*	00000000 findfp.c
000052c2 l     F .text	00000066 std
00000000 l    df *ABS*	00000000 fwalk.c
00000000 l    df *ABS*	00000000 makebuf.c
00000000 l    df *ABS*	00000000 nano-mallocr.c
00000000 l    df *ABS*	00000000 nano-mallocr.c
00000000 l    df *ABS*	00000000 nano-vfprintf.c
00000000 l    df *ABS*	00000000 nano-vfprintf.c
00005aa8 l     F .text	00000028 __sfputc_r
00000000 l    df *ABS*	00000000 nano-vfprintf_i.c
00000000 l    df *ABS*	00000000 sbrkr.c
00000000 l    df *ABS*	00000000 stdio.c
00000000 l    df *ABS*	00000000 writer.c
00000000 l    df *ABS*	00000000 closer.c
00000000 l    df *ABS*	00000000 fstatr.c
00000000 l    df *ABS*	00000000 isattyr.c
00000000 l    df *ABS*	00000000 lseekr.c
00000000 l    df *ABS*	00000000 memchr.c
00000000 l    df *ABS*	00000000 memmove.c
00000000 l    df *ABS*	00000000 mlock.c
00000000 l    df *ABS*	00000000 nano-mallocr.c
00000000 l    df *ABS*	00000000 readr.c
00000000 l    df *ABS*	00000000 nano-mallocr.c
00000000 l    df *ABS*	00000000 close.c
00000000 l    df *ABS*	00000000 fstat.c
00000000 l    df *ABS*	00000000 isatty.c
00000000 l    df *ABS*	00000000 lseek.c
00000000 l    df *ABS*	00000000 read.c
00000000 l    df *ABS*	00000000 libgcc2.c
00000000 l    df *ABS*	00000000 impure.c
20000048 l     O .data	00000060 impure_data
00000000 l    df *ABS*	00000000 reent.c
000063d6 g     F .text	00000014 _malloc_usable_size_r
00002084  w      .text	00000000 EXTI2_IRQHandler
000020ce  w      .text	00000000 TIM8_TRG_COM_IRQHandler
000020d0  w      .text	00000000 TIM8_CC_IRQHandler
0000629c g     F .text	00000028 _isatty_r
0000110a g     F .text	00000046 ShowID
000014f6 g     F .text	000000e0 LCD_ShowChar
000014e2 g     F .text	00000014 LCD_DrawPoint
00000b68 g     F .text	00000090 MPU_Init
00004e08 g     F .text	000000d4 _puts_r
2000010c g     O .bss	00000004 t
000062c4 g     F .text	0000002c _lseek_r
00002106  w      .text	00000000 UART8_IRQHandler
0000169e g     F .text	0000030a Acquire_SensorDATE
00004dc8 g     F .text	00000040 printf
200008a8 g       .data	00000000 __global_pointer$
00000208 g     F .text	00000028 .hidden __riscv_save_8
000020aa  w      .text	00000000 TIM1_CC_IRQHandler
000024dc g     F .text	00000008 I2C_ReceiveData
000061e6 g     F .text	00000030 __sseek
00005378 g     F .text	0000006c __sinit
0000279c g     F .text	00000004 SPI_I2S_SendData
00004f74 g     F .text	000000bc __swbuf_r
0000139a g     F .text	00000002 HardFault_Handler
00000956 g     F .text	00000042 MPU_Get_Accelerometer
00005332 g     F .text	00000046 __sfmoreglue
20000134 g     O .bss	00000010 DATA
00006350 g     F .text	00000002 __malloc_unlock
00000254 g     F .text	0000000c .hidden __riscv_restore_3
000020e0  w      .text	00000000 TIM6_IRQHandler
00004046 g     F .text	000002b2 .hidden __divsf3
00002070  w      .text	00000000 SysTick_Handler
00002544 g     F .text	000000a6 NVIC_Init
200000a8 g     O .data	00000006 KEY_A
00002076  w      .text	00000000 PVD_IRQHandler
000020d6  w      .text	00000000 SDIO_IRQHandler
00006308 g     F .text	00000046 memmove
00002108  w      .text	00000000 TIM9_BRK_IRQHandler
00000240 g     F .text	00000020 .hidden __riscv_restore_10
00006bbc g     O .text	000017c0 ascii_3216
000027a0 g     F .text	00000004 SPI_I2S_ReceiveData
0000211c  w      .text	00000000 DMA2_Channel8_IRQHandler
00001396 g     F .text	00000004 NMI_Handler
200000c4 g     O .data	00000004 card_3
00000d32 g     F .text	00000022 ClearBitMask
00004914 g     F .text	00000062 .hidden __fixsfsi
000020f6  w      .text	00000000 CAN2_RX1_IRQHandler
00002086  w      .text	00000000 EXTI3_IRQHandler
00000208 g     F .text	00000028 .hidden __riscv_save_11
000010b8 g     F .text	00000052 PcdRead
20000344 g     O .bss	00000064 ucRxData
000013c4 g     F .text	00000062 spi_readwrite
000020fe  w      .text	00000000 USBHS_IRQHandler
20000102 g     O .bss	00000002 gyroz
200000ee g     O .bss	00000001 card2_bit
0000290a g     F .text	0000000a USART_GetFlagStatus
0000211e  w      .text	00000000 DMA2_Channel9_IRQHandler
00006272 g     F .text	0000002a _fstat_r
00002116  w      .text	00000000 TIM10_CC_IRQHandler
200003a8 g     O .bss	00000004 errno
200000e0 g       .bss	00000000 _sbss
00000800 g       *ABS*	00000000 __stack_size
000021ce g     F .text	0000000a ADC_GetFlagStatus
0000145e g     F .text	00000030 LCD_WR_REG
0000458c g     F .text	00000388 .hidden __subsf3
00000254 g     F .text	0000000c .hidden __riscv_restore_2
00000e5c g     F .text	00000046 PcdRequest
00004d16 g     F .text	000000b2 memcpy
200002e0 g     O .bss	00000064 RxBuffer3
00005328 g     F .text	0000000a _cleanup_r
000022aa g     F .text	000000d6 GPIO_PinRemapConfig
0000583e g     F .text	0000026a _svfprintf_r
00003c02 g     F .text	00000072 .hidden __floatsidf
00002080  w      .text	00000000 EXTI0_IRQHandler
000020b6  w      .text	00000000 I2C2_EV_IRQHandler
00002114  w      .text	00000000 TIM10_TRG_COM_IRQHandler
000027ae g     F .text	00000018 TIM_Cmd
00004edc g     F .text	0000000c puts
200000cc g     O .data	00000004 SystemCoreClock
00002902 g     F .text	00000008 USART_ReceiveData
00000308 g     F .text	00000092 Mqtt_Savedata
00000d54 g     F .text	00000108 PcdComMF522
000063f6 g     F .text	0000000c _fstat
00001e9a g     F .text	000000ba USART3_Init
00000038 g       .init	00000000 _einit
000027e6 g     F .text	0000000c TIM_ClearITPendingBit
000027ca g     F .text	00000004 TIM_GetCounter
00002760 g     F .text	0000001e RCC_APB2PeriphClockCmd
00000200 g     F .text	00000030 .hidden __riscv_save_12
000020f8  w      .text	00000000 CAN2_SCE_IRQHandler
00002098  w      .text	00000000 ADC1_2_IRQHandler
20000117 g     O .bss	00000001 ucRxFinish
000021d8 g     F .text	000000c0 GPIO_Init
0000206e  w      .text	00000000 Break_Point_Handler
00000240 g     F .text	00000020 .hidden __riscv_restore_11
20000118 g     O .bss	00000004 NVIC_Priority_Group
000020ba  w      .text	00000000 SPI1_IRQHandler
000028ae g     F .text	00000016 USART_Cmd
00006148 g     F .text	0000002a _sbrk_r
00002078  w      .text	00000000 TAMPER_IRQHandler
00000230 g     F .text	0000000c .hidden __riscv_save_1
20000000 g     O .data	00000010 DATA1
00000254 g     F .text	0000000c .hidden __riscv_restore_0
200000c0 g     O .data	00000004 card_2
000063aa g     F .text	0000002c _read_r
00000216 g     F .text	0000001a .hidden __riscv_save_7
00002950 g     F .text	00000014 USART_ClearITPendingBit
000020f4  w      .text	00000000 CAN2_RX0_IRQHandler
00004a92 g     F .text	000000ac .hidden __extendsfdf2
000020cc  w      .text	00000000 TIM8_UP_IRQHandler
0000277e g     F .text	0000001e RCC_APB1PeriphClockCmd
000029fe g     F .text	00000730 .hidden __adddf3
00000cac g     F .text	00000036 ReadRawRC
0000206a  w      .text	00000000 Ecall_M_Mode_Handler
20007800 g       .stack	00000000 _heap_end
00006402 g     F .text	0000000c _isatty
000029b8 g     F .text	0000000c Delay_Us
200000dc g     O .data	00000004 _global_impure_ptr
0000024a g     F .text	00000016 .hidden __riscv_restore_5
00006352 g     F .text	00000058 _realloc_r
000027a4 g     F .text	0000000a SPI_I2S_GetFlagStatus
000020e6  w      .text	00000000 DMA2_Channel2_IRQHandler
00002090  w      .text	00000000 DMA1_Channel4_IRQHandler
000024d8 g     F .text	00000004 I2C_SendData
00003c74 g     F .text	00000068 .hidden __floatunsidf
00001cfc g     F .text	00000026 _sbrk
000021c6 g     F .text	00000008 ADC_GetConversionValue
00002380 g     F .text	000000f2 I2C_Init
0000210a  w      .text	00000000 TIM9_UP_IRQHandler
0000024a g     F .text	00000016 .hidden __riscv_restore_6
00001f54 g     F .text	0000003a USART3_IRQHandler
0000207a  w      .text	00000000 RTC_IRQHandler
200003ac g       .bss	00000000 _ebss
00002914 g     F .text	0000003c USART_GetITStatus
00002096  w      .text	00000000 DMA1_Channel7_IRQHandler
000021ae g     F .text	00000018 ADC_SoftwareStartConvCmd
20000115 g     O .bss	00000001 Rxcouter3
0000209e  w      .text	00000000 CAN1_RX1_IRQHandler
00003b9a g     F .text	00000068 .hidden __fixdfsi
00002964 g     F .text	00000026 Delay_Init
00002100  w      .text	00000000 DVP_IRQHandler
000020de  w      .text	00000000 UART5_IRQHandler
00001fee g     F .text	00000022 Uart2_SendStr
00001426 g     F .text	00000038 LCD_WR_DATA
200000f4 g     O .bss	00000004 Water_Level
00000ea2 g     F .text	00000068 PcdAnticoll
000022a2 g     F .text	00000004 GPIO_SetBits
000020b0  w      .text	00000000 TIM4_IRQHandler
00001150 g     F .text	00000216 RC522_Handle
00000fd0 g     F .text	0000005e PcdAuthState
00000208 g     F .text	00000028 .hidden __riscv_save_9
000020e4  w      .text	00000000 DMA2_Channel1_IRQHandler
0000102e g     F .text	0000008a PcdWrite
20000110 g     O .bss	00000001 wp_adc
200000b8 g     O .data	00000004 card_0
200000ec g     O .bss	00000001 card0_bit
0000248a g     F .text	0000001a I2C_GenerateSTART
00008648 g     O .text	00000020 __sf_fake_stderr
00000216 g     F .text	0000001a .hidden __riscv_save_4
000020b2  w      .text	00000000 I2C1_EV_IRQHandler
20000114 g     O .bss	00000001 Rxcouter2
0000575a g     F .text	000000e4 __ssputs_r
20000218 g     O .bss	000000c8 RxBuffer2
000027ce g     F .text	00000018 TIM_GetITStatus
000025ea g     F .text	00000176 RCC_GetClocksFreq
00000f6a g     F .text	00000066 PcdSelect
00000a6a g     F .text	000000fe MPU_Read_Byte
200000e0 g     O .bss	00000004 strx
00002094  w      .text	00000000 DMA1_Channel6_IRQHandler
00004ca8 g     F .text	0000006e .hidden __clzsi2
200000fc g     O .bss	00000001 data_len
00005ad0 g     F .text	00000042 __sfputs_r
200000ef g     O .bss	00000001 card3_bit
000020dc  w      .text	00000000 UART4_IRQHandler
000020ea  w      .text	00000000 DMA2_Channel4_IRQHandler
000062f0 g     F .text	00000018 memchr
000027f2 g     F .text	000000bc USART_Init
000055d8 g     F .text	000000a8 _free_r
00000ce2 g     F .text	00000032 WriteRawRC
000020ae  w      .text	00000000 TIM3_IRQHandler
0000207e  w      .text	00000000 RCC_IRQHandler
00000230 g     F .text	0000000c .hidden __riscv_save_3
00001d22 g     F .text	0000009e USART1_Init
000020a8  w      .text	00000000 TIM1_TRG_COM_IRQHandler
200000f8 g     O .bss	00000004 Water_Pressure
0000208a  w      .text	00000000 DMA1_Channel1_IRQHandler
00000000 g       .init	00000000 _start
0000211a  w      .text	00000000 DMA2_Channel7_IRQHandler
00004f40 g     F .text	00000034 strstr
0000250c g     F .text	00000032 I2C_GetFlagStatus
0000160c g     F .text	00000092 LCD_ShowIntNum
0000640e g     F .text	0000000c _lseek
000049cc g     F .text	000000c6 .hidden __floatsisf
000020c4  w      .text	00000000 EXTI15_10_IRQHandler
000028c4 g     F .text	00000036 USART_ITConfig
00000bf8 g     F .text	0000005c SPI_RC522_SendByte
200000b0 g     O .data	00000006 KEY_B
00002472 g     F .text	00000018 I2C_Cmd
000022a6 g     F .text	00000004 GPIO_ResetBits
000020e2  w      .text	00000000 TIM7_IRQHandler
0000624a g     F .text	00000028 _close_r
00000f0a g     F .text	00000060 CalulateCRC
000020f2  w      .text	00000000 CAN2_TX_IRQHandler
20000000 g       .dalign	00000000 _data_vma
20000150 g     O .bss	000000c8 send_jason
000020d8  w      .text	00000000 TIM5_IRQHandler
00005030 g     F .text	000000fc __swsetup_r
000020a2  w      .text	00000000 EXTI9_5_IRQHandler
0000312e g     F .text	000005b4 .hidden __divdf3
000053e4 g     F .text	000000a0 __sfp
00001bcc g     F .text	00000020 ENABLE_TIM
000036e2 g     F .text	000004b8 .hidden __muldf3
00000208 g     F .text	00000028 .hidden __riscv_save_10
00006172 g     F .text	0000002c __sread
0000298a g     F .text	0000002e delay_us
000024e4 g     F .text	00000012 I2C_Send7bitAddress
000020f0  w      .text	00000000 ETH_WKUP_IRQHandler
200000b6 g     O .data	00000001 addr
0000634e g     F .text	00000002 __malloc_lock
0000024a g     F .text	00000016 .hidden __riscv_restore_4
00000240 g     F .text	00000020 .hidden __riscv_restore_8
200000e4 g     O .bss	00000002 CT
0000525c g     F .text	00000066 _fflush_r
00000216 g     F .text	0000001a .hidden __riscv_save_6
000020bc  w      .text	00000000 SPI2_IRQHandler
00008668 g     O .text	00000020 __sf_fake_stdin
20000024 g     O .data	00000014 lon
00000260 g     F .text	000000a8 memset
00000240 g     F .text	00000020 .hidden __riscv_restore_9
0000024a g     F .text	00000016 .hidden __riscv_restore_7
00001a68 g     F .text	0000006a main
000029f2 g     F .text	0000000c delay_ms
00002110  w      .text	00000000 TIM10_BRK_IRQHandler
00000998 g     F .text	000000d2 MPU_Write_Byte
0000210e  w      .text	00000000 TIM9_CC_IRQHandler
00006216 g     F .text	00000006 __sclose
000020ec  w      .text	00000000 DMA2_Channel5_IRQHandler
000007bc g     F .text	00000086 IIC_Init
00004b3e g     F .text	0000016a .hidden __truncdfsf2
00005680 g     F .text	000000da _malloc_r
00001bfe g     F .text	0000009c Ultrasoniclength
00002092  w      .text	00000000 DMA1_Channel5_IRQHandler
000027c6 g     F .text	00000004 TIM_SetCounter
200000ed g     O .bss	00000001 card1_bit
00002088  w      .text	00000000 EXTI4_IRQHandler
000029c4 g     F .text	0000002e Delay_Ms
0000209c  w      .text	00000000 USB_LP_CAN1_RX0_IRQHandler
000042f8 g     F .text	00000294 .hidden __mulsf3
00001ad2 g     F .text	000000fa SystemInit
000020d2  w      .text	00000000 RNG_IRQHandler
20000112 g     O .bss	00000002 count
00004dc8 g     F .text	00000040 iprintf
0000209a  w      .text	00000000 USB_HP_CAN1_TX_IRQHandler
00004ee8 g     F .text	00000046 sprintf
00008548 g     O .text	00000100 .hidden __clz_tab
000019a8 g     F .text	000000c0 Pub_Msgdata
00000000 g       .init	00000000 _sinit
20000144 g     O .bss	0000000a datastr
0000621c g     F .text	0000002e _write_r
0000208e  w      .text	00000000 DMA1_Channel3_IRQHandler
0000148e g     F .text	00000054 LCD_Address_Set
000020d4  w      .text	00000000 FSMC_IRQHandler
200000e8 g     O .bss	00000004 SN
000065cc g     O .text	000005f0 ascii_1608
000020ee  w      .text	00000000 ETH_IRQHandler
00005d9a g     F .text	0000010c _printf_common
200000d8 g     O .data	00000004 _impure_ptr
00001366 g     F .text	00000030 Get_ADC_Val
000020a6  w      .text	00000000 TIM1_UP_IRQHandler
0000512c g     F .text	00000130 __sflush_r
0000583e g     F .text	0000026a _svfiprintf_r
0000139c g     F .text	00000028 Start_Trig
00002074  w      .text	00000000 WWDG_IRQHandler
000020fc  w      .text	00000000 USBHSWakeup_IRQHandler
00002122  w      .text	00000000 DMA2_Channel11_IRQHandler
200000c8 g     O .data	00000004 card_4
0000206c  w      .text	00000000 Ecall_U_Mode_Handler
00000842 g     F .text	00000114 MPU_Read_Len
00002118  w      .text	00000000 DMA2_Channel6_IRQHandler
00001c9a g     F .text	00000024 TIM2_IRQHandler
20008000 g       .stack	00000000 _eusrstack
00000230 g     F .text	0000000c .hidden __riscv_save_2
00002072  w      .text	00000000 SW_Handler
20000108 g     O .bss	00000004 stry
000020a4  w      .text	00000000 TIM1_BRK_IRQHandler
000054ee g     F .text	00000058 __swhatbuf_r
000028fa g     F .text	00000008 USART_SendData
00002120  w      .text	00000000 DMA2_Channel10_IRQHandler
0000039a g     F .text	00000422 Read_GPS
00002082  w      .text	00000000 EXTI1_IRQHandler
00001dc0 g     F .text	000000a0 USART2_Init
00000216 g     F .text	0000001a .hidden __riscv_save_5
00001cbe g     F .text	0000003e _write
200000e0 g       .data	00000000 _edata
200003ac g       .bss	00000000 _end
00000d14 g     F .text	0000001e SetBitMask
000020c6  w      .text	00000000 RTCAlarm_IRQHandler
000086e4 g       .dlalign	00000000 _data_lma
00002112  w      .text	00000000 TIM10_UP_IRQHandler
0000210c  w      .text	00000000 TIM9_TRG_COM_IRQHandler
00002104  w      .text	00000000 UART7_IRQHandler
00001e60 g     F .text	0000003a USART2_IRQHandler
00002102  w      .text	00000000 UART6_IRQHandler
0000619e g     F .text	00000048 __swrite
00002010 g     F .text	00000056 Clear_Buffer
00005b12 g     F .text	00000288 _vfiprintf_r
00005484 g     F .text	0000006a _fwalk_reent
20000128 g     O .bss	00000009 Card_ID
00000c54 g     F .text	00000058 SPI_RC522_ReadByte
000020b8  w      .text	00000000 I2C2_ER_IRQHandler
0000208c  w      .text	00000000 DMA1_Channel2_IRQHandler
00008688 g     O .text	00000020 __sf_fake_stdout
00004ee8 g     F .text	00000046 siprintf
0000023c g     F .text	00000024 .hidden __riscv_restore_12
000020ca  w      .text	00000000 TIM8_BRK_IRQHandler
0000641a g     F .text	0000000c _read
00002124  w      .text	00000000 handle_reset
00001bec g     F .text	00000012 DISABLE_TIM
000020a0  w      .text	00000000 CAN1_SCE_IRQHandler
00004976 g     F .text	00000056 .hidden __fixunssfsi
0000207c  w      .text	00000000 FLASH_IRQHandler
00000230 g     F .text	0000000c .hidden __riscv_save_0
000015d6 g     F .text	00000036 LCD_ShowString
200000bc g     O .data	00000004 card_1
200000fe g     O .bss	00000002 gyrox
20000104 g     O .bss	00000004 q
00001f8e g     F .text	00000060 USART1_IRQHandler
00005546 g     F .text	00000092 __smakebuf_r
000024be g     F .text	0000001a I2C_AcknowledgeConfig
00004f2e g     F .text	00000012 strlen
000020fa  w      .text	00000000 OTG_FS_IRQHandler
00005ea6 g     F .text	000002a2 _printf_i
000020da  w      .text	00000000 SPI3_IRQHandler
20000124 g     O .bss	00000004 __malloc_sbrk_start
000024f6 g     F .text	00000016 I2C_CheckEvent
000024a4 g     F .text	0000001a I2C_GenerateSTOP
20000010 g     O .data	00000014 lat
000020b4  w      .text	00000000 I2C1_ER_IRQHandler
0000253e g     F .text	00000006 NVIC_PriorityGroupConfig
20000120 g     O .bss	00000004 __malloc_free_list
00000254 g     F .text	0000000c .hidden __riscv_restore_1
200000f0 g     O .bss	00000001 card4_bit
00005b12 g     F .text	00000288 _vfprintf_r
00002298 g     F .text	0000000a GPIO_ReadInputDataBit
200000f1 g     O .bss	00000001 status
00003cdc g     F .text	0000036a .hidden __addsf3
000020c8  w      .text	00000000 USBWakeUp_IRQHandler
000063ea g     F .text	0000000c _close
000020e8  w      .text	00000000 DMA2_Channel3_IRQHandler
20000100 g     O .bss	00000002 gyroy



Disassembly of section .init:

00000000 <_sinit>:
   0:	1240206f          	j	2124 <handle_reset>
   4:	00000013          	nop
   8:	00000013          	nop
   c:	00000013          	nop
  10:	00000013          	nop
  14:	00000013          	nop
  18:	00000013          	nop
  1c:	00000013          	nop
  20:	00000013          	nop
  24:	00000013          	nop
  28:	00000013          	nop
  2c:	00000013          	nop
  30:	00000013          	nop
  34:	00100073          	ebreak

Disassembly of section .vector:

00000038 <_vector_base>:
	...
  40:	1396                	slli	t2,t2,0x25
  42:	0000                	unimp
  44:	139a                	slli	t2,t2,0x26
  46:	0000                	unimp
  48:	0000                	unimp
  4a:	0000                	unimp
  4c:	206a                	lhu	a0,6(s0)
	...
  56:	0000                	unimp
  58:	206c                	lbu	a1,6(s0)
  5a:	0000                	unimp
  5c:	206e                	lhu	a1,6(s0)
	...
  66:	0000                	unimp
  68:	2070                	lbu	a2,6(s0)
  6a:	0000                	unimp
  6c:	0000                	unimp
  6e:	0000                	unimp
  70:	2072                	lhu	a2,6(s0)
  72:	0000                	unimp
  74:	0000                	unimp
  76:	0000                	unimp
  78:	2074                	lbu	a3,6(s0)
  7a:	0000                	unimp
  7c:	2076                	lhu	a3,6(s0)
  7e:	0000                	unimp
  80:	2078                	lbu	a4,6(s0)
  82:	0000                	unimp
  84:	207a                	lhu	a4,6(s0)
  86:	0000                	unimp
  88:	207c                	lbu	a5,6(s0)
  8a:	0000                	unimp
  8c:	207e                	lhu	a5,6(s0)
  8e:	0000                	unimp
  90:	2080                	lbu	s0,0(s1)
  92:	0000                	unimp
  94:	2082                	lhu	s0,0(s1)
  96:	0000                	unimp
  98:	2084                	lbu	s1,0(s1)
  9a:	0000                	unimp
  9c:	2086                	lhu	s1,0(s1)
  9e:	0000                	unimp
  a0:	2088                	lbu	a0,0(s1)
  a2:	0000                	unimp
  a4:	208a                	lhu	a0,0(s1)
  a6:	0000                	unimp
  a8:	208c                	lbu	a1,0(s1)
  aa:	0000                	unimp
  ac:	208e                	lhu	a1,0(s1)
  ae:	0000                	unimp
  b0:	2090                	lbu	a2,0(s1)
  b2:	0000                	unimp
  b4:	2092                	lhu	a2,0(s1)
  b6:	0000                	unimp
  b8:	2094                	lbu	a3,0(s1)
  ba:	0000                	unimp
  bc:	2096                	lhu	a3,0(s1)
  be:	0000                	unimp
  c0:	2098                	lbu	a4,0(s1)
  c2:	0000                	unimp
  c4:	209a                	lhu	a4,0(s1)
  c6:	0000                	unimp
  c8:	209c                	lbu	a5,0(s1)
  ca:	0000                	unimp
  cc:	209e                	lhu	a5,0(s1)
  ce:	0000                	unimp
  d0:	20a0                	lbu	s0,2(s1)
  d2:	0000                	unimp
  d4:	20a2                	lhu	s0,2(s1)
  d6:	0000                	unimp
  d8:	20a4                	lbu	s1,2(s1)
  da:	0000                	unimp
  dc:	20a6                	lhu	s1,2(s1)
  de:	0000                	unimp
  e0:	20a8                	lbu	a0,2(s1)
  e2:	0000                	unimp
  e4:	20aa                	lhu	a0,2(s1)
  e6:	0000                	unimp
  e8:	1c9a                	slli	s9,s9,0x26
  ea:	0000                	unimp
  ec:	20ae                	lhu	a1,2(s1)
  ee:	0000                	unimp
  f0:	20b0                	lbu	a2,2(s1)
  f2:	0000                	unimp
  f4:	20b2                	lhu	a2,2(s1)
  f6:	0000                	unimp
  f8:	20b4                	lbu	a3,2(s1)
  fa:	0000                	unimp
  fc:	20b6                	lhu	a3,2(s1)
  fe:	0000                	unimp
 100:	20b8                	lbu	a4,2(s1)
 102:	0000                	unimp
 104:	20ba                	lhu	a4,2(s1)
 106:	0000                	unimp
 108:	20bc                	lbu	a5,2(s1)
 10a:	0000                	unimp
 10c:	1f8e                	slli	t6,t6,0x23
 10e:	0000                	unimp
 110:	1e60                	addi	s0,sp,828
 112:	0000                	unimp
 114:	1f54                	addi	a3,sp,948
 116:	0000                	unimp
 118:	20c4                	lbu	s1,4(s1)
 11a:	0000                	unimp
 11c:	20c6                	lhu	s1,4(s1)
 11e:	0000                	unimp
 120:	20c8                	lbu	a0,4(s1)
 122:	0000                	unimp
 124:	20ca                	lhu	a0,4(s1)
 126:	0000                	unimp
 128:	20cc                	lbu	a1,4(s1)
 12a:	0000                	unimp
 12c:	20ce                	lhu	a1,4(s1)
 12e:	0000                	unimp
 130:	20d0                	lbu	a2,4(s1)
 132:	0000                	unimp
 134:	20d2                	lhu	a2,4(s1)
 136:	0000                	unimp
 138:	20d4                	lbu	a3,4(s1)
 13a:	0000                	unimp
 13c:	20d6                	lhu	a3,4(s1)
 13e:	0000                	unimp
 140:	20d8                	lbu	a4,4(s1)
 142:	0000                	unimp
 144:	20da                	lhu	a4,4(s1)
 146:	0000                	unimp
 148:	20dc                	lbu	a5,4(s1)
 14a:	0000                	unimp
 14c:	20de                	lhu	a5,4(s1)
 14e:	0000                	unimp
 150:	20e0                	lbu	s0,6(s1)
 152:	0000                	unimp
 154:	20e2                	lhu	s0,6(s1)
 156:	0000                	unimp
 158:	20e4                	lbu	s1,6(s1)
 15a:	0000                	unimp
 15c:	20e6                	lhu	s1,6(s1)
 15e:	0000                	unimp
 160:	20e8                	lbu	a0,6(s1)
 162:	0000                	unimp
 164:	20ea                	lhu	a0,6(s1)
 166:	0000                	unimp
 168:	20ec                	lbu	a1,6(s1)
 16a:	0000                	unimp
 16c:	20ee                	lhu	a1,6(s1)
 16e:	0000                	unimp
 170:	20f0                	lbu	a2,6(s1)
 172:	0000                	unimp
 174:	20f2                	lhu	a2,6(s1)
 176:	0000                	unimp
 178:	20f4                	lbu	a3,6(s1)
 17a:	0000                	unimp
 17c:	20f6                	lhu	a3,6(s1)
 17e:	0000                	unimp
 180:	20f8                	lbu	a4,6(s1)
 182:	0000                	unimp
 184:	20fa                	lhu	a4,6(s1)
 186:	0000                	unimp
 188:	20fc                	lbu	a5,6(s1)
 18a:	0000                	unimp
 18c:	20fe                	lhu	a5,6(s1)
 18e:	0000                	unimp
 190:	2100                	lbu	s0,0(a0)
 192:	0000                	unimp
 194:	2102                	lhu	s0,0(a0)
 196:	0000                	unimp
 198:	2104                	lbu	s1,0(a0)
 19a:	0000                	unimp
 19c:	2106                	lhu	s1,0(a0)
 19e:	0000                	unimp
 1a0:	2108                	lbu	a0,0(a0)
 1a2:	0000                	unimp
 1a4:	210a                	lhu	a0,0(a0)
 1a6:	0000                	unimp
 1a8:	210c                	lbu	a1,0(a0)
 1aa:	0000                	unimp
 1ac:	210e                	lhu	a1,0(a0)
 1ae:	0000                	unimp
 1b0:	2110                	lbu	a2,0(a0)
 1b2:	0000                	unimp
 1b4:	2112                	lhu	a2,0(a0)
 1b6:	0000                	unimp
 1b8:	2114                	lbu	a3,0(a0)
 1ba:	0000                	unimp
 1bc:	2116                	lhu	a3,0(a0)
 1be:	0000                	unimp
 1c0:	2118                	lbu	a4,0(a0)
 1c2:	0000                	unimp
 1c4:	211a                	lhu	a4,0(a0)
 1c6:	0000                	unimp
 1c8:	211c                	lbu	a5,0(a0)
 1ca:	0000                	unimp
 1cc:	211e                	lhu	a5,0(a0)
 1ce:	0000                	unimp
 1d0:	2120                	lbu	s0,2(a0)
 1d2:	0000                	unimp
 1d4:	2122                	lhu	s0,2(a0)
	...

Disassembly of section .text:

00000200 <__riscv_save_12>:
     200:	7139                	addi	sp,sp,-64
     202:	4301                	li	t1,0
     204:	c66e                	sw	s11,12(sp)
     206:	a019                	j	20c <__riscv_save_10+0x4>

00000208 <__riscv_save_10>:
     208:	7139                	addi	sp,sp,-64
     20a:	5341                	li	t1,-16
     20c:	c86a                	sw	s10,16(sp)
     20e:	ca66                	sw	s9,20(sp)
     210:	cc62                	sw	s8,24(sp)
     212:	ce5e                	sw	s7,28(sp)
     214:	a019                	j	21a <__riscv_save_4+0x4>

00000216 <__riscv_save_4>:
     216:	7139                	addi	sp,sp,-64
     218:	5301                	li	t1,-32
     21a:	d05a                	sw	s6,32(sp)
     21c:	d256                	sw	s5,36(sp)
     21e:	d452                	sw	s4,40(sp)
     220:	d64e                	sw	s3,44(sp)
     222:	d84a                	sw	s2,48(sp)
     224:	da26                	sw	s1,52(sp)
     226:	dc22                	sw	s0,56(sp)
     228:	de06                	sw	ra,60(sp)
     22a:	40610133          	sub	sp,sp,t1
     22e:	8282                	jr	t0

00000230 <__riscv_save_0>:
     230:	1141                	addi	sp,sp,-16
     232:	c04a                	sw	s2,0(sp)
     234:	c226                	sw	s1,4(sp)
     236:	c422                	sw	s0,8(sp)
     238:	c606                	sw	ra,12(sp)
     23a:	8282                	jr	t0

0000023c <__riscv_restore_12>:
     23c:	4db2                	lw	s11,12(sp)
     23e:	0141                	addi	sp,sp,16

00000240 <__riscv_restore_10>:
     240:	4d02                	lw	s10,0(sp)
     242:	4c92                	lw	s9,4(sp)
     244:	4c22                	lw	s8,8(sp)
     246:	4bb2                	lw	s7,12(sp)
     248:	0141                	addi	sp,sp,16

0000024a <__riscv_restore_4>:
     24a:	4b02                	lw	s6,0(sp)
     24c:	4a92                	lw	s5,4(sp)
     24e:	4a22                	lw	s4,8(sp)
     250:	49b2                	lw	s3,12(sp)
     252:	0141                	addi	sp,sp,16

00000254 <__riscv_restore_0>:
     254:	4902                	lw	s2,0(sp)
     256:	4492                	lw	s1,4(sp)
     258:	4422                	lw	s0,8(sp)
     25a:	40b2                	lw	ra,12(sp)
     25c:	0141                	addi	sp,sp,16
     25e:	8082                	ret

00000260 <memset>:
     260:	433d                	li	t1,15
     262:	872a                	mv	a4,a0
     264:	02c37363          	bgeu	t1,a2,28a <memset+0x2a>
     268:	00f77793          	andi	a5,a4,15
     26c:	efbd                	bnez	a5,2ea <memset+0x8a>
     26e:	e5ad                	bnez	a1,2d8 <memset+0x78>
     270:	ff067693          	andi	a3,a2,-16
     274:	8a3d                	andi	a2,a2,15
     276:	96ba                	add	a3,a3,a4
     278:	c30c                	sw	a1,0(a4)
     27a:	c34c                	sw	a1,4(a4)
     27c:	c70c                	sw	a1,8(a4)
     27e:	c74c                	sw	a1,12(a4)
     280:	0741                	addi	a4,a4,16
     282:	fed76be3          	bltu	a4,a3,278 <memset+0x18>
     286:	e211                	bnez	a2,28a <memset+0x2a>
     288:	8082                	ret
     28a:	40c306b3          	sub	a3,t1,a2
     28e:	068a                	slli	a3,a3,0x2
     290:	00000297          	auipc	t0,0x0
     294:	9696                	add	a3,a3,t0
     296:	00a68067          	jr	10(a3)
     29a:	00b70723          	sb	a1,14(a4)
     29e:	00b706a3          	sb	a1,13(a4)
     2a2:	00b70623          	sb	a1,12(a4)
     2a6:	00b705a3          	sb	a1,11(a4)
     2aa:	00b70523          	sb	a1,10(a4)
     2ae:	00b704a3          	sb	a1,9(a4)
     2b2:	00b70423          	sb	a1,8(a4)
     2b6:	00b703a3          	sb	a1,7(a4)
     2ba:	00b70323          	sb	a1,6(a4)
     2be:	00b702a3          	sb	a1,5(a4)
     2c2:	00b70223          	sb	a1,4(a4)
     2c6:	00b701a3          	sb	a1,3(a4)
     2ca:	00b70123          	sb	a1,2(a4)
     2ce:	00b700a3          	sb	a1,1(a4)
     2d2:	00b70023          	sb	a1,0(a4)
     2d6:	8082                	ret
     2d8:	0ff5f593          	andi	a1,a1,255
     2dc:	00859693          	slli	a3,a1,0x8
     2e0:	8dd5                	or	a1,a1,a3
     2e2:	01059693          	slli	a3,a1,0x10
     2e6:	8dd5                	or	a1,a1,a3
     2e8:	b761                	j	270 <memset+0x10>
     2ea:	00279693          	slli	a3,a5,0x2
     2ee:	00000297          	auipc	t0,0x0
     2f2:	9696                	add	a3,a3,t0
     2f4:	8286                	mv	t0,ra
     2f6:	fa8680e7          	jalr	-88(a3)
     2fa:	8096                	mv	ra,t0
     2fc:	17c1                	addi	a5,a5,-16
     2fe:	8f1d                	sub	a4,a4,a5
     300:	963e                	add	a2,a2,a5
     302:	f8c374e3          	bgeu	t1,a2,28a <memset+0x2a>
     306:	b7a5                	j	26e <memset+0xe>

00000308 <Mqtt_Savedata>:
     308:	f0fff2ef          	jal	t0,216 <__riscv_save_4>
     30c:	7141                	addi	sp,sp,-496
     30e:	842e                	mv	s0,a1
     310:	000065b7          	lui	a1,0x6
     314:	84aa                	mv	s1,a0
     316:	8932                	mv	s2,a2
     318:	4d458593          	addi	a1,a1,1236 # 64d4 <_read+0xba>
     31c:	0a400613          	li	a2,164
     320:	00e8                	addi	a0,sp,76
     322:	de36                	sw	a3,60(sp)
     324:	dc3a                	sw	a4,56(sp)
     326:	da3e                	sw	a5,52(sp)
     328:	d842                	sw	a6,48(sp)
     32a:	d646                	sw	a7,44(sp)
     32c:	1eb040ef          	jal	ra,4d16 <memcpy>
     330:	854a                	mv	a0,s2
     332:	760040ef          	jal	ra,4a92 <__extendsfdf2>
     336:	892a                	mv	s2,a0
     338:	21012503          	lw	a0,528(sp)
     33c:	89ae                	mv	s3,a1
     33e:	754040ef          	jal	ra,4a92 <__extendsfdf2>
     342:	58b2                	lw	a7,44(sp)
     344:	cc2a                	sw	a0,24(sp)
     346:	ce2e                	sw	a1,28(sp)
     348:	8546                	mv	a0,a7
     34a:	748040ef          	jal	ra,4a92 <__extendsfdf2>
     34e:	5842                	lw	a6,48(sp)
     350:	c82a                	sw	a0,16(sp)
     352:	ca2e                	sw	a1,20(sp)
     354:	8542                	mv	a0,a6
     356:	73c040ef          	jal	ra,4a92 <__extendsfdf2>
     35a:	57d2                	lw	a5,52(sp)
     35c:	c42a                	sw	a0,8(sp)
     35e:	c62e                	sw	a1,12(sp)
     360:	853e                	mv	a0,a5
     362:	730040ef          	jal	ra,4a92 <__extendsfdf2>
     366:	56f2                	lw	a3,60(sp)
     368:	5762                	lw	a4,56(sp)
     36a:	87ce                	mv	a5,s3
     36c:	8836                	mv	a6,a3
     36e:	88ba                	mv	a7,a4
     370:	8622                	mv	a2,s0
     372:	874a                	mv	a4,s2
     374:	c02a                	sw	a0,0(sp)
     376:	c22e                	sw	a1,4(sp)
     378:	1988                	addi	a0,sp,240
     37a:	00ec                	addi	a1,sp,76
     37c:	36d040ef          	jal	ra,4ee8 <siprintf>
     380:	1988                	addi	a0,sp,240
     382:	3ad040ef          	jal	ra,4f2e <strlen>
     386:	842a                	mv	s0,a0
     388:	862a                	mv	a2,a0
     38a:	198c                	addi	a1,sp,240
     38c:	8526                	mv	a0,s1
     38e:	189040ef          	jal	ra,4d16 <memcpy>
     392:	0ff47513          	andi	a0,s0,255
     396:	617d                	addi	sp,sp,496
     398:	bd4d                	j	24a <__riscv_restore_4>

0000039a <Read_GPS>:
     39a:	e6fff2ef          	jal	t0,208 <__riscv_save_10>
     39e:	89aa                	mv	s3,a0
     3a0:	4509                	li	a0,2
     3a2:	892e                	mv	s2,a1
     3a4:	00006ab7          	lui	s5,0x6
     3a8:	469010ef          	jal	ra,2010 <Clear_Buffer>
     3ac:	5b0a8513          	addi	a0,s5,1456 # 65b0 <_read+0x196>
     3b0:	32d040ef          	jal	ra,4edc <puts>
     3b4:	1f400513          	li	a0,500
     3b8:	63a020ef          	jal	ra,29f2 <delay_ms>
     3bc:	00006b37          	lui	s6,0x6
     3c0:	42cb0593          	addi	a1,s6,1068 # 642c <_read+0x12>
     3c4:	97018513          	addi	a0,gp,-1680 # 20000218 <RxBuffer2>
     3c8:	379040ef          	jal	ra,4f40 <strstr>
     3cc:	82a1ac23          	sw	a0,-1992(gp) # 200000e0 <_edata>
     3d0:	4401                	li	s0,0
     3d2:	83818a13          	addi	s4,gp,-1992 # 200000e0 <_edata>
     3d6:	000a2783          	lw	a5,0(s4)
     3da:	38078863          	beqz	a5,76a <Read_GPS+0x3d0>
     3de:	86c1c503          	lbu	a0,-1940(gp) # 20000114 <Rxcouter2>
     3e2:	03700793          	li	a5,55
     3e6:	38a7f163          	bgeu	a5,a0,768 <Read_GPS+0x3ce>
     3ea:	97018793          	addi	a5,gp,-1680 # 20000218 <RxBuffer2>
     3ee:	27f4                	lbu	a3,14(a5)
     3f0:	02400713          	li	a4,36
     3f4:	36e69a63          	bne	a3,a4,768 <Read_GPS+0x3ce>
     3f8:	37f4                	lbu	a3,15(a5)
     3fa:	04700713          	li	a4,71
     3fe:	36e69563          	bne	a3,a4,768 <Read_GPS+0x3ce>
     402:	2b90                	lbu	a2,16(a5)
     404:	04e00713          	li	a4,78
     408:	36e61063          	bne	a2,a4,768 <Read_GPS+0x3ce>
     40c:	3b98                	lbu	a4,17(a5)
     40e:	34d71d63          	bne	a4,a3,768 <Read_GPS+0x3ce>
     412:	2bb4                	lbu	a3,18(a5)
     414:	34e69a63          	bne	a3,a4,768 <Read_GPS+0x3ce>
     418:	3bb8                	lbu	a4,19(a5)
     41a:	04100793          	li	a5,65
     41e:	34f71563          	bne	a4,a5,768 <Read_GPS+0x3ce>
     422:	97018793          	addi	a5,gp,-1680 # 20000218 <RxBuffer2>
     426:	4701                	li	a4,0
     428:	4681                	li	a3,0
     42a:	4809                	li	a6,2
     42c:	4891                	li	a7,4
     42e:	4305                	li	t1,1
     430:	02c00593          	li	a1,44
     434:	2390                	lbu	a2,0(a5)
     436:	35071b63          	bne	a4,a6,78c <Read_GPS+0x3f2>
     43a:	00b60863          	beq	a2,a1,44a <Read_GPS+0xb0>
     43e:	00140e13          	addi	t3,s0,1
     442:	944e                	add	s0,s0,s3
     444:	a010                	sb	a2,0(s0)
     446:	0ffe7413          	andi	s0,t3,255
     44a:	2390                	lbu	a2,0(a5)
     44c:	00b61663          	bne	a2,a1,458 <Read_GPS+0xbe>
     450:	0705                	addi	a4,a4,1
     452:	0ff77713          	andi	a4,a4,255
     456:	4405                	li	s0,1
     458:	0685                	addi	a3,a3,1
     45a:	0ff6f693          	andi	a3,a3,255
     45e:	0785                	addi	a5,a5,1
     460:	fcd51ae3          	bne	a0,a3,434 <Read_GPS+0x9a>
     464:	4481                	li	s1,0
     466:	02e00693          	li	a3,46
     46a:	47c5                	li	a5,17
     46c:	00998433          	add	s0,s3,s1
     470:	2018                	lbu	a4,0(s0)
     472:	8a4e                	mv	s4,s3
     474:	32d71c63          	bne	a4,a3,7ac <Read_GPS+0x412>
     478:	fff48713          	addi	a4,s1,-1
     47c:	974e                	add	a4,a4,s3
     47e:	231c                	lbu	a5,0(a4)
     480:	a01c                	sb	a5,0(s0)
     482:	ffe48793          	addi	a5,s1,-2
     486:	97ce                	add	a5,a5,s3
     488:	2388                	lbu	a0,0(a5)
     48a:	a308                	sb	a0,0(a4)
     48c:	a394                	sb	a3,0(a5)
     48e:	fd050513          	addi	a0,a0,-48
     492:	47a9                	li	a5,10
     494:	02f50533          	mul	a0,a0,a5
     498:	201c                	lbu	a5,0(s0)
     49a:	953e                	add	a0,a0,a5
     49c:	fd050513          	addi	a0,a0,-48
     4a0:	762030ef          	jal	ra,3c02 <__floatsidf>
     4a4:	8b2a                	mv	s6,a0
     4a6:	3008                	lbu	a0,1(s0)
     4a8:	8bae                	mv	s7,a1
     4aa:	fd050513          	addi	a0,a0,-48
     4ae:	754030ef          	jal	ra,3c02 <__floatsidf>
     4b2:	000067b7          	lui	a5,0x6
     4b6:	5887a603          	lw	a2,1416(a5) # 6588 <_read+0x16e>
     4ba:	58c7a683          	lw	a3,1420(a5)
     4be:	224030ef          	jal	ra,36e2 <__muldf3>
     4c2:	862a                	mv	a2,a0
     4c4:	86ae                	mv	a3,a1
     4c6:	855a                	mv	a0,s6
     4c8:	85de                	mv	a1,s7
     4ca:	534020ef          	jal	ra,29fe <__adddf3>
     4ce:	8b2a                	mv	s6,a0
     4d0:	2028                	lbu	a0,2(s0)
     4d2:	8bae                	mv	s7,a1
     4d4:	fd050513          	addi	a0,a0,-48
     4d8:	72a030ef          	jal	ra,3c02 <__floatsidf>
     4dc:	000067b7          	lui	a5,0x6
     4e0:	5907a603          	lw	a2,1424(a5) # 6590 <_read+0x176>
     4e4:	5947a683          	lw	a3,1428(a5)
     4e8:	1fa030ef          	jal	ra,36e2 <__muldf3>
     4ec:	862a                	mv	a2,a0
     4ee:	86ae                	mv	a3,a1
     4f0:	855a                	mv	a0,s6
     4f2:	85de                	mv	a1,s7
     4f4:	50a020ef          	jal	ra,29fe <__adddf3>
     4f8:	8b2a                	mv	s6,a0
     4fa:	3028                	lbu	a0,3(s0)
     4fc:	8bae                	mv	s7,a1
     4fe:	fd050513          	addi	a0,a0,-48
     502:	700030ef          	jal	ra,3c02 <__floatsidf>
     506:	000067b7          	lui	a5,0x6
     50a:	5987a603          	lw	a2,1432(a5) # 6598 <_read+0x17e>
     50e:	59c7a683          	lw	a3,1436(a5)
     512:	1d0030ef          	jal	ra,36e2 <__muldf3>
     516:	862a                	mv	a2,a0
     518:	86ae                	mv	a3,a1
     51a:	855a                	mv	a0,s6
     51c:	85de                	mv	a1,s7
     51e:	4e0020ef          	jal	ra,29fe <__adddf3>
     522:	8b2a                	mv	s6,a0
     524:	2048                	lbu	a0,4(s0)
     526:	8bae                	mv	s7,a1
     528:	fd050513          	addi	a0,a0,-48
     52c:	6d6030ef          	jal	ra,3c02 <__floatsidf>
     530:	000067b7          	lui	a5,0x6
     534:	5a07a603          	lw	a2,1440(a5) # 65a0 <_read+0x186>
     538:	5a47a683          	lw	a3,1444(a5)
     53c:	1a6030ef          	jal	ra,36e2 <__muldf3>
     540:	862a                	mv	a2,a0
     542:	86ae                	mv	a3,a1
     544:	855a                	mv	a0,s6
     546:	85de                	mv	a1,s7
     548:	4b6020ef          	jal	ra,29fe <__adddf3>
     54c:	8b2a                	mv	s6,a0
     54e:	3048                	lbu	a0,5(s0)
     550:	8bae                	mv	s7,a1
     552:	4401                	li	s0,0
     554:	fd050513          	addi	a0,a0,-48
     558:	6aa030ef          	jal	ra,3c02 <__floatsidf>
     55c:	000067b7          	lui	a5,0x6
     560:	5a87a603          	lw	a2,1448(a5) # 65a8 <_read+0x18e>
     564:	5ac7a683          	lw	a3,1452(a5)
     568:	17a030ef          	jal	ra,36e2 <__muldf3>
     56c:	862a                	mv	a2,a0
     56e:	86ae                	mv	a3,a1
     570:	855a                	mv	a0,s6
     572:	85de                	mv	a1,s7
     574:	48a020ef          	jal	ra,29fe <__adddf3>
     578:	5c6040ef          	jal	ra,4b3e <__truncdfsf2>
     57c:	000067b7          	lui	a5,0x6
     580:	5787a583          	lw	a1,1400(a5) # 6578 <_read+0x15e>
     584:	4b15                	li	s6,5
     586:	2c1030ef          	jal	ra,4046 <__divsf3>
     58a:	000067b7          	lui	a5,0x6
     58e:	57c7ac83          	lw	s9,1404(a5) # 657c <_read+0x162>
     592:	000067b7          	lui	a5,0x6
     596:	5807ab83          	lw	s7,1408(a5) # 6580 <_read+0x166>
     59a:	85e6                	mv	a1,s9
     59c:	55d030ef          	jal	ra,42f8 <__mulsf3>
     5a0:	8c2a                	mv	s8,a0
     5a2:	372040ef          	jal	ra,4914 <__fixsfsi>
     5a6:	03050513          	addi	a0,a0,48
     5aa:	008487b3          	add	a5,s1,s0
     5ae:	97ce                	add	a5,a5,s3
     5b0:	0ff57a93          	andi	s5,a0,255
     5b4:	ff578fa3          	sb	s5,-1(a5)
     5b8:	85de                	mv	a1,s7
     5ba:	8562                	mv	a0,s8
     5bc:	720030ef          	jal	ra,3cdc <__addsf3>
     5c0:	8c2a                	mv	s8,a0
     5c2:	8556                	mv	a0,s5
     5c4:	408040ef          	jal	ra,49cc <__floatsisf>
     5c8:	85aa                	mv	a1,a0
     5ca:	0405                	addi	s0,s0,1
     5cc:	8562                	mv	a0,s8
     5ce:	7bf030ef          	jal	ra,458c <__subsf3>
     5d2:	fd6414e3          	bne	s0,s6,59a <Read_GPS+0x200>
     5d6:	09c5                	addi	s3,s3,17
     5d8:	001a4783          	lbu	a5,1(s4)
     5dc:	0a05                	addi	s4,s4,1
     5de:	fefa0fa3          	sb	a5,-1(s4)
     5e2:	ff499be3          	bne	s3,s4,5d8 <Read_GPS+0x23e>
     5e6:	4481                	li	s1,0
     5e8:	02e00693          	li	a3,46
     5ec:	47c5                	li	a5,17
     5ee:	00990433          	add	s0,s2,s1
     5f2:	2018                	lbu	a4,0(s0)
     5f4:	89ca                	mv	s3,s2
     5f6:	1ad71f63          	bne	a4,a3,7b4 <Read_GPS+0x41a>
     5fa:	fff48713          	addi	a4,s1,-1
     5fe:	974a                	add	a4,a4,s2
     600:	231c                	lbu	a5,0(a4)
     602:	a01c                	sb	a5,0(s0)
     604:	ffe48793          	addi	a5,s1,-2
     608:	97ca                	add	a5,a5,s2
     60a:	2388                	lbu	a0,0(a5)
     60c:	a308                	sb	a0,0(a4)
     60e:	a394                	sb	a3,0(a5)
     610:	fd050513          	addi	a0,a0,-48
     614:	47a9                	li	a5,10
     616:	02f50533          	mul	a0,a0,a5
     61a:	201c                	lbu	a5,0(s0)
     61c:	953e                	add	a0,a0,a5
     61e:	fd050513          	addi	a0,a0,-48
     622:	5e0030ef          	jal	ra,3c02 <__floatsidf>
     626:	8a2a                	mv	s4,a0
     628:	3008                	lbu	a0,1(s0)
     62a:	8aae                	mv	s5,a1
     62c:	fd050513          	addi	a0,a0,-48
     630:	5d2030ef          	jal	ra,3c02 <__floatsidf>
     634:	000067b7          	lui	a5,0x6
     638:	5887a603          	lw	a2,1416(a5) # 6588 <_read+0x16e>
     63c:	58c7a683          	lw	a3,1420(a5)
     640:	0a2030ef          	jal	ra,36e2 <__muldf3>
     644:	862a                	mv	a2,a0
     646:	86ae                	mv	a3,a1
     648:	8552                	mv	a0,s4
     64a:	85d6                	mv	a1,s5
     64c:	3b2020ef          	jal	ra,29fe <__adddf3>
     650:	8a2a                	mv	s4,a0
     652:	2028                	lbu	a0,2(s0)
     654:	8aae                	mv	s5,a1
     656:	fd050513          	addi	a0,a0,-48
     65a:	5a8030ef          	jal	ra,3c02 <__floatsidf>
     65e:	000067b7          	lui	a5,0x6
     662:	5907a603          	lw	a2,1424(a5) # 6590 <_read+0x176>
     666:	5947a683          	lw	a3,1428(a5)
     66a:	078030ef          	jal	ra,36e2 <__muldf3>
     66e:	862a                	mv	a2,a0
     670:	86ae                	mv	a3,a1
     672:	8552                	mv	a0,s4
     674:	85d6                	mv	a1,s5
     676:	388020ef          	jal	ra,29fe <__adddf3>
     67a:	8a2a                	mv	s4,a0
     67c:	3028                	lbu	a0,3(s0)
     67e:	8aae                	mv	s5,a1
     680:	fd050513          	addi	a0,a0,-48
     684:	57e030ef          	jal	ra,3c02 <__floatsidf>
     688:	000067b7          	lui	a5,0x6
     68c:	5987a603          	lw	a2,1432(a5) # 6598 <_read+0x17e>
     690:	59c7a683          	lw	a3,1436(a5)
     694:	04e030ef          	jal	ra,36e2 <__muldf3>
     698:	862a                	mv	a2,a0
     69a:	86ae                	mv	a3,a1
     69c:	8552                	mv	a0,s4
     69e:	85d6                	mv	a1,s5
     6a0:	35e020ef          	jal	ra,29fe <__adddf3>
     6a4:	8a2a                	mv	s4,a0
     6a6:	2048                	lbu	a0,4(s0)
     6a8:	8aae                	mv	s5,a1
     6aa:	fd050513          	addi	a0,a0,-48
     6ae:	554030ef          	jal	ra,3c02 <__floatsidf>
     6b2:	000067b7          	lui	a5,0x6
     6b6:	5a07a603          	lw	a2,1440(a5) # 65a0 <_read+0x186>
     6ba:	5a47a683          	lw	a3,1444(a5)
     6be:	024030ef          	jal	ra,36e2 <__muldf3>
     6c2:	862a                	mv	a2,a0
     6c4:	86ae                	mv	a3,a1
     6c6:	8552                	mv	a0,s4
     6c8:	85d6                	mv	a1,s5
     6ca:	334020ef          	jal	ra,29fe <__adddf3>
     6ce:	8a2a                	mv	s4,a0
     6d0:	3048                	lbu	a0,5(s0)
     6d2:	8aae                	mv	s5,a1
     6d4:	4401                	li	s0,0
     6d6:	fd050513          	addi	a0,a0,-48
     6da:	528030ef          	jal	ra,3c02 <__floatsidf>
     6de:	000067b7          	lui	a5,0x6
     6e2:	5a87a603          	lw	a2,1448(a5) # 65a8 <_read+0x18e>
     6e6:	5ac7a683          	lw	a3,1452(a5)
     6ea:	7f9020ef          	jal	ra,36e2 <__muldf3>
     6ee:	862a                	mv	a2,a0
     6f0:	86ae                	mv	a3,a1
     6f2:	8552                	mv	a0,s4
     6f4:	85d6                	mv	a1,s5
     6f6:	308020ef          	jal	ra,29fe <__adddf3>
     6fa:	444040ef          	jal	ra,4b3e <__truncdfsf2>
     6fe:	000067b7          	lui	a5,0x6
     702:	5787a583          	lw	a1,1400(a5) # 6578 <_read+0x15e>
     706:	4a95                	li	s5,5
     708:	13f030ef          	jal	ra,4046 <__divsf3>
     70c:	000067b7          	lui	a5,0x6
     710:	57c7ac03          	lw	s8,1404(a5) # 657c <_read+0x162>
     714:	000067b7          	lui	a5,0x6
     718:	5807ab83          	lw	s7,1408(a5) # 6580 <_read+0x166>
     71c:	85e2                	mv	a1,s8
     71e:	3db030ef          	jal	ra,42f8 <__mulsf3>
     722:	8b2a                	mv	s6,a0
     724:	1f0040ef          	jal	ra,4914 <__fixsfsi>
     728:	03050513          	addi	a0,a0,48
     72c:	008487b3          	add	a5,s1,s0
     730:	97ca                	add	a5,a5,s2
     732:	0ff57a13          	andi	s4,a0,255
     736:	ff478fa3          	sb	s4,-1(a5)
     73a:	85de                	mv	a1,s7
     73c:	855a                	mv	a0,s6
     73e:	59e030ef          	jal	ra,3cdc <__addsf3>
     742:	8b2a                	mv	s6,a0
     744:	8552                	mv	a0,s4
     746:	286040ef          	jal	ra,49cc <__floatsisf>
     74a:	85aa                	mv	a1,a0
     74c:	0405                	addi	s0,s0,1
     74e:	855a                	mv	a0,s6
     750:	63d030ef          	jal	ra,458c <__subsf3>
     754:	fd5414e3          	bne	s0,s5,71c <Read_GPS+0x382>
     758:	0945                	addi	s2,s2,17
     75a:	0019c783          	lbu	a5,1(s3)
     75e:	0985                	addi	s3,s3,1
     760:	fef98fa3          	sb	a5,-1(s3)
     764:	ff391be3          	bne	s2,s3,75a <Read_GPS+0x3c0>
     768:	bce1                	j	240 <__riscv_restore_10>
     76a:	5b0a8513          	addi	a0,s5,1456
     76e:	76e040ef          	jal	ra,4edc <puts>
     772:	1f400513          	li	a0,500
     776:	27c020ef          	jal	ra,29f2 <delay_ms>
     77a:	42cb0593          	addi	a1,s6,1068
     77e:	97018513          	addi	a0,gp,-1680 # 20000218 <RxBuffer2>
     782:	7be040ef          	jal	ra,4f40 <strstr>
     786:	00aa2023          	sw	a0,0(s4)
     78a:	b1b1                	j	3d6 <Read_GPS+0x3c>
     78c:	01171863          	bne	a4,a7,79c <Read_GPS+0x402>
     790:	cab60de3          	beq	a2,a1,44a <Read_GPS+0xb0>
     794:	00140e13          	addi	t3,s0,1
     798:	944a                	add	s0,s0,s2
     79a:	b16d                	j	444 <Read_GPS+0xaa>
     79c:	ca6717e3          	bne	a4,t1,44a <Read_GPS+0xb0>
     7a0:	cab605e3          	beq	a2,a1,44a <Read_GPS+0xb0>
     7a4:	0405                	addi	s0,s0,1
     7a6:	0ff47413          	andi	s0,s0,255
     7aa:	b145                	j	44a <Read_GPS+0xb0>
     7ac:	0485                	addi	s1,s1,1
     7ae:	caf49fe3          	bne	s1,a5,46c <Read_GPS+0xd2>
     7b2:	b515                	j	5d6 <Read_GPS+0x23c>
     7b4:	0485                	addi	s1,s1,1
     7b6:	e2f49ce3          	bne	s1,a5,5ee <Read_GPS+0x254>
     7ba:	bf79                	j	758 <Read_GPS+0x3be>

000007bc <IIC_Init>:
     7bc:	a5bff2ef          	jal	t0,216 <__riscv_save_4>
     7c0:	1101                	addi	sp,sp,-32
     7c2:	8aaa                	mv	s5,a0
     7c4:	8a2e                	mv	s4,a1
     7c6:	4521                	li	a0,8
     7c8:	4585                	li	a1,1
     7ca:	797010ef          	jal	ra,2760 <RCC_APB2PeriphClockCmd>
     7ce:	4585                	li	a1,1
     7d0:	00400537          	lui	a0,0x400
     7d4:	7ab010ef          	jal	ra,277e <RCC_APB1PeriphClockCmd>
     7d8:	400114b7          	lui	s1,0x40011
     7dc:	40000413          	li	s0,1024
     7e0:	49f1                	li	s3,28
     7e2:	490d                	li	s2,3
     7e4:	004c                	addi	a1,sp,4
     7e6:	c0048513          	addi	a0,s1,-1024 # 40010c00 <_eusrstack+0x20008c00>
     7ea:	8260                	sh	s0,4(sp)
     7ec:	c64e                	sw	s3,12(sp)
     7ee:	c44a                	sw	s2,8(sp)
     7f0:	1e9010ef          	jal	ra,21d8 <GPIO_Init>
     7f4:	6785                	lui	a5,0x1
     7f6:	80078793          	addi	a5,a5,-2048 # 800 <__stack_size>
     7fa:	004c                	addi	a1,sp,4
     7fc:	c0048513          	addi	a0,s1,-1024
     800:	827c                	sh	a5,4(sp)
     802:	c64e                	sw	s3,12(sp)
     804:	c44a                	sw	s2,8(sp)
     806:	1d3010ef          	jal	ra,21d8 <GPIO_Init>
     80a:	400007b7          	lui	a5,0x40000
     80e:	85e0                	sh	s0,26(sp)
     810:	40006437          	lui	s0,0x40006
     814:	ca3e                	sw	a5,20(sp)
     816:	080c                	addi	a1,sp,16
     818:	6791                	lui	a5,0x4
     81a:	80040513          	addi	a0,s0,-2048 # 40005800 <_eusrstack+0x1fffd800>
     81e:	86fc                	sh	a5,28(sp)
     820:	c856                	sw	s5,16(sp)
     822:	01411c23          	sh	s4,24(sp)
     826:	35b010ef          	jal	ra,2380 <I2C_Init>
     82a:	80040513          	addi	a0,s0,-2048
     82e:	4585                	li	a1,1
     830:	443010ef          	jal	ra,2472 <I2C_Cmd>
     834:	4585                	li	a1,1
     836:	80040513          	addi	a0,s0,-2048
     83a:	485010ef          	jal	ra,24be <I2C_AcknowledgeConfig>
     83e:	6105                	addi	sp,sp,32
     840:	b429                	j	24a <__riscv_restore_4>

00000842 <MPU_Read_Len>:
     842:	9c7ff2ef          	jal	t0,208 <__riscv_save_10>
     846:	400064b7          	lui	s1,0x40006
     84a:	842a                	mv	s0,a0
     84c:	89ae                	mv	s3,a1
     84e:	80048513          	addi	a0,s1,-2048 # 40005800 <_eusrstack+0x1fffd800>
     852:	4585                	li	a1,1
     854:	8a32                	mv	s4,a2
     856:	8ab6                	mv	s5,a3
     858:	467010ef          	jal	ra,24be <I2C_AcknowledgeConfig>
     85c:	80048513          	addi	a0,s1,-2048
     860:	4585                	li	a1,1
     862:	000304b7          	lui	s1,0x30
     866:	40006937          	lui	s2,0x40006
     86a:	421010ef          	jal	ra,248a <I2C_GenerateSTART>
     86e:	0485                	addi	s1,s1,1
     870:	80090b13          	addi	s6,s2,-2048 # 40005800 <_eusrstack+0x1fffd800>
     874:	85a6                	mv	a1,s1
     876:	855a                	mv	a0,s6
     878:	47f010ef          	jal	ra,24f6 <I2C_CheckEvent>
     87c:	dd65                	beqz	a0,874 <MPU_Read_Len+0x32>
     87e:	0406                	slli	s0,s0,0x1
     880:	80090513          	addi	a0,s2,-2048
     884:	4601                	li	a2,0
     886:	0fe47593          	andi	a1,s0,254
     88a:	00070937          	lui	s2,0x70
     88e:	400064b7          	lui	s1,0x40006
     892:	453010ef          	jal	ra,24e4 <I2C_Send7bitAddress>
     896:	08290913          	addi	s2,s2,130 # 70082 <_data_lma+0x6799e>
     89a:	80048b13          	addi	s6,s1,-2048 # 40005800 <_eusrstack+0x1fffd800>
     89e:	85ca                	mv	a1,s2
     8a0:	855a                	mv	a0,s6
     8a2:	455010ef          	jal	ra,24f6 <I2C_CheckEvent>
     8a6:	dd65                	beqz	a0,89e <MPU_Read_Len+0x5c>
     8a8:	85ce                	mv	a1,s3
     8aa:	80048513          	addi	a0,s1,-2048
     8ae:	42b010ef          	jal	ra,24d8 <I2C_SendData>
     8b2:	80048513          	addi	a0,s1,-2048
     8b6:	4585                	li	a1,1
     8b8:	000304b7          	lui	s1,0x30
     8bc:	40006937          	lui	s2,0x40006
     8c0:	3cb010ef          	jal	ra,248a <I2C_GenerateSTART>
     8c4:	0485                	addi	s1,s1,1
     8c6:	80090993          	addi	s3,s2,-2048 # 40005800 <_eusrstack+0x1fffd800>
     8ca:	85a6                	mv	a1,s1
     8cc:	854e                	mv	a0,s3
     8ce:	429010ef          	jal	ra,24f6 <I2C_CheckEvent>
     8d2:	dd65                	beqz	a0,8ca <MPU_Read_Len+0x88>
     8d4:	00146593          	ori	a1,s0,1
     8d8:	4605                	li	a2,1
     8da:	0ff5f593          	andi	a1,a1,255
     8de:	80090513          	addi	a0,s2,-2048
     8e2:	000304b7          	lui	s1,0x30
     8e6:	40006437          	lui	s0,0x40006
     8ea:	3fb010ef          	jal	ra,24e4 <I2C_Send7bitAddress>
     8ee:	0489                	addi	s1,s1,2
     8f0:	80040413          	addi	s0,s0,-2048 # 40005800 <_eusrstack+0x1fffd800>
     8f4:	85a6                	mv	a1,s1
     8f6:	8522                	mv	a0,s0
     8f8:	3ff010ef          	jal	ra,24f6 <I2C_CheckEvent>
     8fc:	dd65                	beqz	a0,8f4 <MPU_Read_Len+0xb2>
     8fe:	400064b7          	lui	s1,0x40006
     902:	10000937          	lui	s2,0x10000
     906:	80048493          	addi	s1,s1,-2048 # 40005800 <_eusrstack+0x1fffd800>
     90a:	4401                	li	s0,0
     90c:	04090913          	addi	s2,s2,64 # 10000040 <_data_lma+0xfff795c>
     910:	ffea0b93          	addi	s7,s4,-2
     914:	89a6                	mv	s3,s1
     916:	01441c63          	bne	s0,s4,92e <MPU_Read_Len+0xec>
     91a:	40006537          	lui	a0,0x40006
     91e:	4585                	li	a1,1
     920:	80050513          	addi	a0,a0,-2048 # 40005800 <_eusrstack+0x1fffd800>
     924:	381010ef          	jal	ra,24a4 <I2C_GenerateSTOP>
     928:	4501                	li	a0,0
     92a:	917ff06f          	j	240 <__riscv_restore_10>
     92e:	85ca                	mv	a1,s2
     930:	8526                	mv	a0,s1
     932:	3db010ef          	jal	ra,250c <I2C_GetFlagStatus>
     936:	d165                	beqz	a0,916 <MPU_Read_Len+0xd4>
     938:	008a8b33          	add	s6,s5,s0
     93c:	01741663          	bne	s0,s7,948 <MPU_Read_Len+0x106>
     940:	4581                	li	a1,0
     942:	854e                	mv	a0,s3
     944:	37b010ef          	jal	ra,24be <I2C_AcknowledgeConfig>
     948:	854e                	mv	a0,s3
     94a:	393010ef          	jal	ra,24dc <I2C_ReceiveData>
     94e:	00ab0023          	sb	a0,0(s6)
     952:	0405                	addi	s0,s0,1
     954:	b7c9                	j	916 <MPU_Read_Len+0xd4>

00000956 <MPU_Get_Accelerometer>:
     956:	8dbff2ef          	jal	t0,230 <__riscv_save_0>
     95a:	1141                	addi	sp,sp,-16
     95c:	892a                	mv	s2,a0
     95e:	84ae                	mv	s1,a1
     960:	8432                	mv	s0,a2
     962:	0034                	addi	a3,sp,8
     964:	4619                	li	a2,6
     966:	03b00593          	li	a1,59
     96a:	06800513          	li	a0,104
     96e:	3dd1                	jal	842 <MPU_Read_Len>
     970:	e10d                	bnez	a0,992 <MPU_Get_Accelerometer+0x3c>
     972:	841c                	lbu	a5,8(sp)
     974:	8498                	lbu	a4,9(sp)
     976:	07a2                	slli	a5,a5,0x8
     978:	8fd9                	or	a5,a5,a4
     97a:	00f91023          	sh	a5,0(s2)
     97e:	851c                	lbu	a5,10(sp)
     980:	8598                	lbu	a4,11(sp)
     982:	07a2                	slli	a5,a5,0x8
     984:	8fd9                	or	a5,a5,a4
     986:	a09e                	sh	a5,0(s1)
     988:	861c                	lbu	a5,12(sp)
     98a:	8698                	lbu	a4,13(sp)
     98c:	07a2                	slli	a5,a5,0x8
     98e:	8fd9                	or	a5,a5,a4
     990:	a01e                	sh	a5,0(s0)
     992:	0141                	addi	sp,sp,16
     994:	8c1ff06f          	j	254 <__riscv_restore_0>

00000998 <MPU_Write_Byte>:
     998:	87fff2ef          	jal	t0,216 <__riscv_save_4>
     99c:	40006437          	lui	s0,0x40006
     9a0:	89aa                	mv	s3,a0
     9a2:	892e                	mv	s2,a1
     9a4:	80040513          	addi	a0,s0,-2048 # 40005800 <_eusrstack+0x1fffd800>
     9a8:	4585                	li	a1,1
     9aa:	315010ef          	jal	ra,24be <I2C_AcknowledgeConfig>
     9ae:	80040513          	addi	a0,s0,-2048
     9b2:	4585                	li	a1,1
     9b4:	00030437          	lui	s0,0x30
     9b8:	400064b7          	lui	s1,0x40006
     9bc:	2cf010ef          	jal	ra,248a <I2C_GenerateSTART>
     9c0:	0405                	addi	s0,s0,1
     9c2:	80048a13          	addi	s4,s1,-2048 # 40005800 <_eusrstack+0x1fffd800>
     9c6:	85a2                	mv	a1,s0
     9c8:	8552                	mv	a0,s4
     9ca:	32d010ef          	jal	ra,24f6 <I2C_CheckEvent>
     9ce:	dd65                	beqz	a0,9c6 <MPU_Write_Byte+0x2e>
     9d0:	80048513          	addi	a0,s1,-2048
     9d4:	4601                	li	a2,0
     9d6:	0d000593          	li	a1,208
     9da:	000704b7          	lui	s1,0x70
     9de:	40006437          	lui	s0,0x40006
     9e2:	303010ef          	jal	ra,24e4 <I2C_Send7bitAddress>
     9e6:	08248493          	addi	s1,s1,130 # 70082 <_data_lma+0x6799e>
     9ea:	80040413          	addi	s0,s0,-2048 # 40005800 <_eusrstack+0x1fffd800>
     9ee:	85a6                	mv	a1,s1
     9f0:	8522                	mv	a0,s0
     9f2:	305010ef          	jal	ra,24f6 <I2C_CheckEvent>
     9f6:	dd65                	beqz	a0,9ee <MPU_Write_Byte+0x56>
     9f8:	10000437          	lui	s0,0x10000
     9fc:	400064b7          	lui	s1,0x40006
     a00:	08040413          	addi	s0,s0,128 # 10000080 <_data_lma+0xfff799c>
     a04:	80048a13          	addi	s4,s1,-2048 # 40005800 <_eusrstack+0x1fffd800>
     a08:	85a2                	mv	a1,s0
     a0a:	8552                	mv	a0,s4
     a0c:	301010ef          	jal	ra,250c <I2C_GetFlagStatus>
     a10:	dd65                	beqz	a0,a08 <MPU_Write_Byte+0x70>
     a12:	80048513          	addi	a0,s1,-2048
     a16:	85ce                	mv	a1,s3
     a18:	000704b7          	lui	s1,0x70
     a1c:	40006437          	lui	s0,0x40006
     a20:	2b9010ef          	jal	ra,24d8 <I2C_SendData>
     a24:	08448493          	addi	s1,s1,132 # 70084 <_data_lma+0x679a0>
     a28:	80040413          	addi	s0,s0,-2048 # 40005800 <_eusrstack+0x1fffd800>
     a2c:	85a6                	mv	a1,s1
     a2e:	8522                	mv	a0,s0
     a30:	2c7010ef          	jal	ra,24f6 <I2C_CheckEvent>
     a34:	dd65                	beqz	a0,a2c <MPU_Write_Byte+0x94>
     a36:	100004b7          	lui	s1,0x10000
     a3a:	40006437          	lui	s0,0x40006
     a3e:	08048493          	addi	s1,s1,128 # 10000080 <_data_lma+0xfff799c>
     a42:	80040993          	addi	s3,s0,-2048 # 40005800 <_eusrstack+0x1fffd800>
     a46:	85a6                	mv	a1,s1
     a48:	854e                	mv	a0,s3
     a4a:	2c3010ef          	jal	ra,250c <I2C_GetFlagStatus>
     a4e:	dd65                	beqz	a0,a46 <MPU_Write_Byte+0xae>
     a50:	85ca                	mv	a1,s2
     a52:	80040513          	addi	a0,s0,-2048
     a56:	283010ef          	jal	ra,24d8 <I2C_SendData>
     a5a:	80040513          	addi	a0,s0,-2048
     a5e:	4585                	li	a1,1
     a60:	245010ef          	jal	ra,24a4 <I2C_GenerateSTOP>
     a64:	4501                	li	a0,0
     a66:	fe4ff06f          	j	24a <__riscv_restore_4>

00000a6a <MPU_Read_Byte>:
     a6a:	facff2ef          	jal	t0,216 <__riscv_save_4>
     a6e:	40006437          	lui	s0,0x40006
     a72:	4585                	li	a1,1
     a74:	892a                	mv	s2,a0
     a76:	80040513          	addi	a0,s0,-2048 # 40005800 <_eusrstack+0x1fffd800>
     a7a:	245010ef          	jal	ra,24be <I2C_AcknowledgeConfig>
     a7e:	80040513          	addi	a0,s0,-2048
     a82:	4585                	li	a1,1
     a84:	00030437          	lui	s0,0x30
     a88:	400064b7          	lui	s1,0x40006
     a8c:	1ff010ef          	jal	ra,248a <I2C_GenerateSTART>
     a90:	0405                	addi	s0,s0,1
     a92:	80048993          	addi	s3,s1,-2048 # 40005800 <_eusrstack+0x1fffd800>
     a96:	85a2                	mv	a1,s0
     a98:	854e                	mv	a0,s3
     a9a:	25d010ef          	jal	ra,24f6 <I2C_CheckEvent>
     a9e:	dd65                	beqz	a0,a96 <MPU_Read_Byte+0x2c>
     aa0:	80048513          	addi	a0,s1,-2048
     aa4:	4601                	li	a2,0
     aa6:	0d000593          	li	a1,208
     aaa:	00070437          	lui	s0,0x70
     aae:	400064b7          	lui	s1,0x40006
     ab2:	233010ef          	jal	ra,24e4 <I2C_Send7bitAddress>
     ab6:	08240413          	addi	s0,s0,130 # 70082 <_data_lma+0x6799e>
     aba:	80048993          	addi	s3,s1,-2048 # 40005800 <_eusrstack+0x1fffd800>
     abe:	85a2                	mv	a1,s0
     ac0:	854e                	mv	a0,s3
     ac2:	235010ef          	jal	ra,24f6 <I2C_CheckEvent>
     ac6:	dd65                	beqz	a0,abe <MPU_Read_Byte+0x54>
     ac8:	85ca                	mv	a1,s2
     aca:	80048513          	addi	a0,s1,-2048
     ace:	00070437          	lui	s0,0x70
     ad2:	400064b7          	lui	s1,0x40006
     ad6:	203010ef          	jal	ra,24d8 <I2C_SendData>
     ada:	08440413          	addi	s0,s0,132 # 70084 <_data_lma+0x679a0>
     ade:	80048913          	addi	s2,s1,-2048 # 40005800 <_eusrstack+0x1fffd800>
     ae2:	85a2                	mv	a1,s0
     ae4:	854a                	mv	a0,s2
     ae6:	211010ef          	jal	ra,24f6 <I2C_CheckEvent>
     aea:	dd65                	beqz	a0,ae2 <MPU_Read_Byte+0x78>
     aec:	80048513          	addi	a0,s1,-2048
     af0:	4585                	li	a1,1
     af2:	00030437          	lui	s0,0x30
     af6:	400064b7          	lui	s1,0x40006
     afa:	191010ef          	jal	ra,248a <I2C_GenerateSTART>
     afe:	0405                	addi	s0,s0,1
     b00:	80048913          	addi	s2,s1,-2048 # 40005800 <_eusrstack+0x1fffd800>
     b04:	85a2                	mv	a1,s0
     b06:	854a                	mv	a0,s2
     b08:	1ef010ef          	jal	ra,24f6 <I2C_CheckEvent>
     b0c:	dd65                	beqz	a0,b04 <MPU_Read_Byte+0x9a>
     b0e:	80048513          	addi	a0,s1,-2048
     b12:	4605                	li	a2,1
     b14:	0d100593          	li	a1,209
     b18:	000304b7          	lui	s1,0x30
     b1c:	40006437          	lui	s0,0x40006
     b20:	1c5010ef          	jal	ra,24e4 <I2C_Send7bitAddress>
     b24:	0489                	addi	s1,s1,2
     b26:	80040413          	addi	s0,s0,-2048 # 40005800 <_eusrstack+0x1fffd800>
     b2a:	85a6                	mv	a1,s1
     b2c:	8522                	mv	a0,s0
     b2e:	1c9010ef          	jal	ra,24f6 <I2C_CheckEvent>
     b32:	dd65                	beqz	a0,b2a <MPU_Read_Byte+0xc0>
     b34:	100004b7          	lui	s1,0x10000
     b38:	40006437          	lui	s0,0x40006
     b3c:	04048493          	addi	s1,s1,64 # 10000040 <_data_lma+0xfff795c>
     b40:	80040913          	addi	s2,s0,-2048 # 40005800 <_eusrstack+0x1fffd800>
     b44:	85a6                	mv	a1,s1
     b46:	854a                	mv	a0,s2
     b48:	1c5010ef          	jal	ra,250c <I2C_GetFlagStatus>
     b4c:	dd65                	beqz	a0,b44 <MPU_Read_Byte+0xda>
     b4e:	80040513          	addi	a0,s0,-2048
     b52:	18b010ef          	jal	ra,24dc <I2C_ReceiveData>
     b56:	84aa                	mv	s1,a0
     b58:	4585                	li	a1,1
     b5a:	80040513          	addi	a0,s0,-2048
     b5e:	147010ef          	jal	ra,24a4 <I2C_GenerateSTOP>
     b62:	8526                	mv	a0,s1
     b64:	ee6ff06f          	j	24a <__riscv_restore_4>

00000b68 <MPU_Init>:
     b68:	ec8ff2ef          	jal	t0,230 <__riscv_save_0>
     b6c:	6561                	lui	a0,0x18
     b6e:	4589                	li	a1,2
     b70:	6a050513          	addi	a0,a0,1696 # 186a0 <_data_lma+0xffbc>
     b74:	31a1                	jal	7bc <IIC_Init>
     b76:	08000593          	li	a1,128
     b7a:	06b00513          	li	a0,107
     b7e:	3d29                	jal	998 <MPU_Write_Byte>
     b80:	0c800513          	li	a0,200
     b84:	641010ef          	jal	ra,29c4 <Delay_Ms>
     b88:	4581                	li	a1,0
     b8a:	06b00513          	li	a0,107
     b8e:	3529                	jal	998 <MPU_Write_Byte>
     b90:	459d                	li	a1,7
     b92:	4565                	li	a0,25
     b94:	3511                	jal	998 <MPU_Write_Byte>
     b96:	4599                	li	a1,6
     b98:	4569                	li	a0,26
     b9a:	3bfd                	jal	998 <MPU_Write_Byte>
     b9c:	4585                	li	a1,1
     b9e:	4571                	li	a0,28
     ba0:	3be5                	jal	998 <MPU_Write_Byte>
     ba2:	45e1                	li	a1,24
     ba4:	456d                	li	a0,27
     ba6:	3bcd                	jal	998 <MPU_Write_Byte>
     ba8:	4581                	li	a1,0
     baa:	03800513          	li	a0,56
     bae:	33ed                	jal	998 <MPU_Write_Byte>
     bb0:	4581                	li	a1,0
     bb2:	06a00513          	li	a0,106
     bb6:	33cd                	jal	998 <MPU_Write_Byte>
     bb8:	4581                	li	a1,0
     bba:	02300513          	li	a0,35
     bbe:	3be9                	jal	998 <MPU_Write_Byte>
     bc0:	08000593          	li	a1,128
     bc4:	03700513          	li	a0,55
     bc8:	3bc1                	jal	998 <MPU_Write_Byte>
     bca:	07500513          	li	a0,117
     bce:	3d71                	jal	a6a <MPU_Read_Byte>
     bd0:	06800713          	li	a4,104
     bd4:	4785                	li	a5,1
     bd6:	00e51e63          	bne	a0,a4,bf2 <MPU_Init+0x8a>
     bda:	4585                	li	a1,1
     bdc:	06b00513          	li	a0,107
     be0:	3b65                	jal	998 <MPU_Write_Byte>
     be2:	4581                	li	a1,0
     be4:	06c00513          	li	a0,108
     be8:	3b45                	jal	998 <MPU_Write_Byte>
     bea:	459d                	li	a1,7
     bec:	4565                	li	a0,25
     bee:	336d                	jal	998 <MPU_Write_Byte>
     bf0:	4781                	li	a5,0
     bf2:	853e                	mv	a0,a5
     bf4:	e60ff06f          	j	254 <__riscv_restore_0>

00000bf8 <SPI_RC522_SendByte>:
     bf8:	e38ff2ef          	jal	t0,230 <__riscv_save_0>
     bfc:	40011437          	lui	s0,0x40011
     c00:	892a                	mv	s2,a0
     c02:	44a1                	li	s1,8
     c04:	c0040413          	addi	s0,s0,-1024 # 40010c00 <_eusrstack+0x20008c00>
     c08:	01891793          	slli	a5,s2,0x18
     c0c:	87e1                	srai	a5,a5,0x18
     c0e:	6591                	lui	a1,0x4
     c10:	8522                	mv	a0,s0
     c12:	0207de63          	bgez	a5,c4e <SPI_RC522_SendByte+0x56>
     c16:	68c010ef          	jal	ra,22a2 <GPIO_SetBits>
     c1a:	4551                	li	a0,20
     c1c:	59d010ef          	jal	ra,29b8 <Delay_Us>
     c20:	6589                	lui	a1,0x2
     c22:	8522                	mv	a0,s0
     c24:	682010ef          	jal	ra,22a6 <GPIO_ResetBits>
     c28:	4551                	li	a0,20
     c2a:	58f010ef          	jal	ra,29b8 <Delay_Us>
     c2e:	6589                	lui	a1,0x2
     c30:	8522                	mv	a0,s0
     c32:	670010ef          	jal	ra,22a2 <GPIO_SetBits>
     c36:	14fd                	addi	s1,s1,-1
     c38:	4551                	li	a0,20
     c3a:	0906                	slli	s2,s2,0x1
     c3c:	0ff4f493          	andi	s1,s1,255
     c40:	579010ef          	jal	ra,29b8 <Delay_Us>
     c44:	0ff97913          	andi	s2,s2,255
     c48:	f0e1                	bnez	s1,c08 <SPI_RC522_SendByte+0x10>
     c4a:	e0aff06f          	j	254 <__riscv_restore_0>
     c4e:	658010ef          	jal	ra,22a6 <GPIO_ResetBits>
     c52:	b7e1                	j	c1a <SPI_RC522_SendByte+0x22>

00000c54 <SPI_RC522_ReadByte>:
     c54:	dc2ff2ef          	jal	t0,216 <__riscv_save_4>
     c58:	40011937          	lui	s2,0x40011
     c5c:	44a1                	li	s1,8
     c5e:	4401                	li	s0,0
     c60:	c0090913          	addi	s2,s2,-1024 # 40010c00 <_eusrstack+0x20008c00>
     c64:	4985                	li	s3,1
     c66:	6589                	lui	a1,0x2
     c68:	854a                	mv	a0,s2
     c6a:	63c010ef          	jal	ra,22a6 <GPIO_ResetBits>
     c6e:	4551                	li	a0,20
     c70:	549010ef          	jal	ra,29b8 <Delay_Us>
     c74:	0406                	slli	s0,s0,0x1
     c76:	65a1                	lui	a1,0x8
     c78:	854a                	mv	a0,s2
     c7a:	0ff47413          	andi	s0,s0,255
     c7e:	61a010ef          	jal	ra,2298 <GPIO_ReadInputDataBit>
     c82:	01351463          	bne	a0,s3,c8a <SPI_RC522_ReadByte+0x36>
     c86:	00146413          	ori	s0,s0,1
     c8a:	4551                	li	a0,20
     c8c:	52d010ef          	jal	ra,29b8 <Delay_Us>
     c90:	6589                	lui	a1,0x2
     c92:	854a                	mv	a0,s2
     c94:	60e010ef          	jal	ra,22a2 <GPIO_SetBits>
     c98:	14fd                	addi	s1,s1,-1
     c9a:	4551                	li	a0,20
     c9c:	0ff4f493          	andi	s1,s1,255
     ca0:	519010ef          	jal	ra,29b8 <Delay_Us>
     ca4:	f0e9                	bnez	s1,c66 <SPI_RC522_ReadByte+0x12>
     ca6:	8522                	mv	a0,s0
     ca8:	da2ff06f          	j	24a <__riscv_restore_4>

00000cac <ReadRawRC>:
     cac:	d84ff2ef          	jal	t0,230 <__riscv_save_0>
     cb0:	400114b7          	lui	s1,0x40011
     cb4:	6585                	lui	a1,0x1
     cb6:	842a                	mv	s0,a0
     cb8:	c0048513          	addi	a0,s1,-1024 # 40010c00 <_eusrstack+0x20008c00>
     cbc:	5ea010ef          	jal	ra,22a6 <GPIO_ResetBits>
     cc0:	00141513          	slli	a0,s0,0x1
     cc4:	07e57513          	andi	a0,a0,126
     cc8:	08056513          	ori	a0,a0,128
     ccc:	3735                	jal	bf8 <SPI_RC522_SendByte>
     cce:	3759                	jal	c54 <SPI_RC522_ReadByte>
     cd0:	842a                	mv	s0,a0
     cd2:	6585                	lui	a1,0x1
     cd4:	c0048513          	addi	a0,s1,-1024
     cd8:	5ca010ef          	jal	ra,22a2 <GPIO_SetBits>
     cdc:	8522                	mv	a0,s0
     cde:	d76ff06f          	j	254 <__riscv_restore_0>

00000ce2 <WriteRawRC>:
     ce2:	d4eff2ef          	jal	t0,230 <__riscv_save_0>
     ce6:	400114b7          	lui	s1,0x40011
     cea:	842a                	mv	s0,a0
     cec:	892e                	mv	s2,a1
     cee:	c0048513          	addi	a0,s1,-1024 # 40010c00 <_eusrstack+0x20008c00>
     cf2:	6585                	lui	a1,0x1
     cf4:	5b2010ef          	jal	ra,22a6 <GPIO_ResetBits>
     cf8:	00141513          	slli	a0,s0,0x1
     cfc:	07e57513          	andi	a0,a0,126
     d00:	3de5                	jal	bf8 <SPI_RC522_SendByte>
     d02:	854a                	mv	a0,s2
     d04:	3dd5                	jal	bf8 <SPI_RC522_SendByte>
     d06:	6585                	lui	a1,0x1
     d08:	c0048513          	addi	a0,s1,-1024
     d0c:	596010ef          	jal	ra,22a2 <GPIO_SetBits>
     d10:	d44ff06f          	j	254 <__riscv_restore_0>

00000d14 <SetBitMask>:
     d14:	d1cff2ef          	jal	t0,230 <__riscv_save_0>
     d18:	1141                	addi	sp,sp,-16
     d1a:	842a                	mv	s0,a0
     d1c:	c62e                	sw	a1,12(sp)
     d1e:	3779                	jal	cac <ReadRawRC>
     d20:	45b2                	lw	a1,12(sp)
     d22:	8dc9                	or	a1,a1,a0
     d24:	0ff5f593          	andi	a1,a1,255
     d28:	8522                	mv	a0,s0
     d2a:	3f65                	jal	ce2 <WriteRawRC>
     d2c:	0141                	addi	sp,sp,16
     d2e:	d26ff06f          	j	254 <__riscv_restore_0>

00000d32 <ClearBitMask>:
     d32:	cfeff2ef          	jal	t0,230 <__riscv_save_0>
     d36:	1141                	addi	sp,sp,-16
     d38:	842a                	mv	s0,a0
     d3a:	c62e                	sw	a1,12(sp)
     d3c:	3f85                	jal	cac <ReadRawRC>
     d3e:	45b2                	lw	a1,12(sp)
     d40:	fff5c593          	not	a1,a1
     d44:	8de9                	and	a1,a1,a0
     d46:	0ff5f593          	andi	a1,a1,255
     d4a:	8522                	mv	a0,s0
     d4c:	3f59                	jal	ce2 <WriteRawRC>
     d4e:	0141                	addi	sp,sp,16
     d50:	d04ff06f          	j	254 <__riscv_restore_0>

00000d54 <PcdComMF522>:
     d54:	cb4ff2ef          	jal	t0,208 <__riscv_save_10>
     d58:	47b1                	li	a5,12
     d5a:	84aa                	mv	s1,a0
     d5c:	8bae                	mv	s7,a1
     d5e:	8b32                	mv	s6,a2
     d60:	89b6                	mv	s3,a3
     d62:	8a3a                	mv	s4,a4
     d64:	0cf50b63          	beq	a0,a5,e3a <PcdComMF522+0xe6>
     d68:	47b9                	li	a5,14
     d6a:	0cf50d63          	beq	a0,a5,e44 <PcdComMF522+0xf0>
     d6e:	4901                	li	s2,0
     d70:	4401                	li	s0,0
     d72:	08046593          	ori	a1,s0,128
     d76:	4509                	li	a0,2
     d78:	37ad                	jal	ce2 <WriteRawRC>
     d7a:	08000593          	li	a1,128
     d7e:	4511                	li	a0,4
     d80:	3f4d                	jal	d32 <ClearBitMask>
     d82:	4581                	li	a1,0
     d84:	4505                	li	a0,1
     d86:	3fb1                	jal	ce2 <WriteRawRC>
     d88:	08000593          	li	a1,128
     d8c:	4529                	li	a0,10
     d8e:	3759                	jal	d14 <SetBitMask>
     d90:	4a81                	li	s5,0
     d92:	0b6aec63          	bltu	s5,s6,e4a <PcdComMF522+0xf6>
     d96:	85a6                	mv	a1,s1
     d98:	4505                	li	a0,1
     d9a:	37a1                	jal	ce2 <WriteRawRC>
     d9c:	47b1                	li	a5,12
     d9e:	00f49663          	bne	s1,a5,daa <PcdComMF522+0x56>
     da2:	08000593          	li	a1,128
     da6:	4535                	li	a0,13
     da8:	37b5                	jal	d14 <SetBitMask>
     daa:	3e800a93          	li	s5,1000
     dae:	00196913          	ori	s2,s2,1
     db2:	4511                	li	a0,4
     db4:	3de5                	jal	cac <ReadRawRC>
     db6:	1afd                	addi	s5,s5,-1
     db8:	8b2a                	mv	s6,a0
     dba:	000a8563          	beqz	s5,dc4 <PcdComMF522+0x70>
     dbe:	012577b3          	and	a5,a0,s2
     dc2:	dbe5                	beqz	a5,db2 <PcdComMF522+0x5e>
     dc4:	08000593          	li	a1,128
     dc8:	4535                	li	a0,13
     dca:	37a5                	jal	d32 <ClearBitMask>
     dcc:	080a8663          	beqz	s5,e58 <PcdComMF522+0x104>
     dd0:	4519                	li	a0,6
     dd2:	3de9                	jal	cac <ReadRawRC>
     dd4:	896d                	andi	a0,a0,27
     dd6:	e149                	bnez	a0,e58 <PcdComMF522+0x104>
     dd8:	01647433          	and	s0,s0,s6
     ddc:	47b1                	li	a5,12
     dde:	8805                	andi	s0,s0,1
     de0:	04f49363          	bne	s1,a5,e26 <PcdComMF522+0xd2>
     de4:	4529                	li	a0,10
     de6:	35d9                	jal	cac <ReadRawRC>
     de8:	892a                	mv	s2,a0
     dea:	4531                	li	a0,12
     dec:	35c1                	jal	cac <ReadRawRC>
     dee:	891d                	andi	a0,a0,7
     df0:	00391793          	slli	a5,s2,0x3
     df4:	c509                	beqz	a0,dfe <PcdComMF522+0xaa>
     df6:	fff90793          	addi	a5,s2,-1
     dfa:	078e                	slli	a5,a5,0x3
     dfc:	97aa                	add	a5,a5,a0
     dfe:	00fa2023          	sw	a5,0(s4)
     e02:	4485                	li	s1,1
     e04:	00090863          	beqz	s2,e14 <PcdComMF522+0xc0>
     e08:	47c9                	li	a5,18
     e0a:	0ff97493          	andi	s1,s2,255
     e0e:	0127f363          	bgeu	a5,s2,e14 <PcdComMF522+0xc0>
     e12:	44c9                	li	s1,18
     e14:	4901                	li	s2,0
     e16:	4525                	li	a0,9
     e18:	3d51                	jal	cac <ReadRawRC>
     e1a:	012987b3          	add	a5,s3,s2
     e1e:	a388                	sb	a0,0(a5)
     e20:	0905                	addi	s2,s2,1
     e22:	fe996ae3          	bltu	s2,s1,e16 <PcdComMF522+0xc2>
     e26:	08000593          	li	a1,128
     e2a:	4531                	li	a0,12
     e2c:	35e5                	jal	d14 <SetBitMask>
     e2e:	4581                	li	a1,0
     e30:	4505                	li	a0,1
     e32:	3d45                	jal	ce2 <WriteRawRC>
     e34:	8522                	mv	a0,s0
     e36:	c0aff06f          	j	240 <__riscv_restore_10>
     e3a:	03000913          	li	s2,48
     e3e:	07700413          	li	s0,119
     e42:	bf05                	j	d72 <PcdComMF522+0x1e>
     e44:	4941                	li	s2,16
     e46:	4449                	li	s0,18
     e48:	b72d                	j	d72 <PcdComMF522+0x1e>
     e4a:	015b87b3          	add	a5,s7,s5
     e4e:	238c                	lbu	a1,0(a5)
     e50:	4525                	li	a0,9
     e52:	0a85                	addi	s5,s5,1
     e54:	3579                	jal	ce2 <WriteRawRC>
     e56:	bf35                	j	d92 <PcdComMF522+0x3e>
     e58:	4409                	li	s0,2
     e5a:	b7f1                	j	e26 <PcdComMF522+0xd2>

00000e5c <PcdRequest>:
     e5c:	bd4ff2ef          	jal	t0,230 <__riscv_save_0>
     e60:	1101                	addi	sp,sp,-32
     e62:	84aa                	mv	s1,a0
     e64:	842e                	mv	s0,a1
     e66:	4521                	li	a0,8
     e68:	45a1                	li	a1,8
     e6a:	35e1                	jal	d32 <ClearBitMask>
     e6c:	459d                	li	a1,7
     e6e:	4535                	li	a0,13
     e70:	3d8d                	jal	ce2 <WriteRawRC>
     e72:	458d                	li	a1,3
     e74:	4551                	li	a0,20
     e76:	3d79                	jal	d14 <SetBitMask>
     e78:	0074                	addi	a3,sp,12
     e7a:	0038                	addi	a4,sp,8
     e7c:	4605                	li	a2,1
     e7e:	85b6                	mv	a1,a3
     e80:	4531                	li	a0,12
     e82:	8644                	sb	s1,12(sp)
     e84:	3dc1                	jal	d54 <PcdComMF522>
     e86:	ed01                	bnez	a0,e9e <PcdRequest+0x42>
     e88:	4722                	lw	a4,8(sp)
     e8a:	47c1                	li	a5,16
     e8c:	00f71963          	bne	a4,a5,e9e <PcdRequest+0x42>
     e90:	861c                	lbu	a5,12(sp)
     e92:	a01c                	sb	a5,0(s0)
     e94:	869c                	lbu	a5,13(sp)
     e96:	b01c                	sb	a5,1(s0)
     e98:	6105                	addi	sp,sp,32
     e9a:	bbaff06f          	j	254 <__riscv_restore_0>
     e9e:	4509                	li	a0,2
     ea0:	bfe5                	j	e98 <PcdRequest+0x3c>

00000ea2 <PcdAnticoll>:
     ea2:	b8eff2ef          	jal	t0,230 <__riscv_save_0>
     ea6:	1101                	addi	sp,sp,-32
     ea8:	45a1                	li	a1,8
     eaa:	84aa                	mv	s1,a0
     eac:	4521                	li	a0,8
     eae:	3551                	jal	d32 <ClearBitMask>
     eb0:	4581                	li	a1,0
     eb2:	4535                	li	a0,13
     eb4:	353d                	jal	ce2 <WriteRawRC>
     eb6:	08000593          	li	a1,128
     eba:	4539                	li	a0,14
     ebc:	3d9d                	jal	d32 <ClearBitMask>
     ebe:	0074                	addi	a3,sp,12
     ec0:	6789                	lui	a5,0x2
     ec2:	09378793          	addi	a5,a5,147 # 2093 <DMA1_Channel5_IRQHandler+0x1>
     ec6:	0038                	addi	a4,sp,8
     ec8:	4609                	li	a2,2
     eca:	85b6                	mv	a1,a3
     ecc:	4531                	li	a0,12
     ece:	867c                	sh	a5,12(sp)
     ed0:	3551                	jal	d54 <PcdComMF522>
     ed2:	842a                	mv	s0,a0
     ed4:	e11d                	bnez	a0,efa <PcdAnticoll+0x58>
     ed6:	4781                	li	a5,0
     ed8:	4701                	li	a4,0
     eda:	4611                	li	a2,4
     edc:	0074                	addi	a3,sp,12
     ede:	96be                	add	a3,a3,a5
     ee0:	2294                	lbu	a3,0(a3)
     ee2:	00f485b3          	add	a1,s1,a5
     ee6:	0785                	addi	a5,a5,1
     ee8:	a194                	sb	a3,0(a1)
     eea:	8f35                	xor	a4,a4,a3
     eec:	fec798e3          	bne	a5,a2,edc <PcdAnticoll+0x3a>
     ef0:	01014783          	lbu	a5,16(sp)
     ef4:	00e78363          	beq	a5,a4,efa <PcdAnticoll+0x58>
     ef8:	4409                	li	s0,2
     efa:	08000593          	li	a1,128
     efe:	4539                	li	a0,14
     f00:	3d11                	jal	d14 <SetBitMask>
     f02:	8522                	mv	a0,s0
     f04:	6105                	addi	sp,sp,32
     f06:	b4eff06f          	j	254 <__riscv_restore_0>

00000f0a <CalulateCRC>:
     f0a:	b26ff2ef          	jal	t0,230 <__riscv_save_0>
     f0e:	842a                	mv	s0,a0
     f10:	84ae                	mv	s1,a1
     f12:	4515                	li	a0,5
     f14:	4591                	li	a1,4
     f16:	8932                	mv	s2,a2
     f18:	3d29                	jal	d32 <ClearBitMask>
     f1a:	4581                	li	a1,0
     f1c:	4505                	li	a0,1
     f1e:	33d1                	jal	ce2 <WriteRawRC>
     f20:	08000593          	li	a1,128
     f24:	4529                	li	a0,10
     f26:	33fd                	jal	d14 <SetBitMask>
     f28:	94a2                	add	s1,s1,s0
     f2a:	02941b63          	bne	s0,s1,f60 <CalulateCRC+0x56>
     f2e:	458d                	li	a1,3
     f30:	4505                	li	a0,1
     f32:	3b45                	jal	ce2 <WriteRawRC>
     f34:	0ff00413          	li	s0,255
     f38:	147d                	addi	s0,s0,-1
     f3a:	4515                	li	a0,5
     f3c:	0ff47413          	andi	s0,s0,255
     f40:	33b5                	jal	cac <ReadRawRC>
     f42:	c019                	beqz	s0,f48 <CalulateCRC+0x3e>
     f44:	8911                	andi	a0,a0,4
     f46:	d96d                	beqz	a0,f38 <CalulateCRC+0x2e>
     f48:	02200513          	li	a0,34
     f4c:	3385                	jal	cac <ReadRawRC>
     f4e:	00a90023          	sb	a0,0(s2)
     f52:	02100513          	li	a0,33
     f56:	3b99                	jal	cac <ReadRawRC>
     f58:	00a900a3          	sb	a0,1(s2)
     f5c:	af8ff06f          	j	254 <__riscv_restore_0>
     f60:	200c                	lbu	a1,0(s0)
     f62:	4525                	li	a0,9
     f64:	0405                	addi	s0,s0,1
     f66:	3bb5                	jal	ce2 <WriteRawRC>
     f68:	b7c9                	j	f2a <CalulateCRC+0x20>

00000f6a <PcdSelect>:
     f6a:	ac6ff2ef          	jal	t0,230 <__riscv_save_0>
     f6e:	1101                	addi	sp,sp,-32
     f70:	679d                	lui	a5,0x7
     f72:	09378793          	addi	a5,a5,147 # 7093 <ascii_3216+0x4d7>
     f76:	0078                	addi	a4,sp,12
     f78:	867c                	sh	a5,12(sp)
     f7a:	00010923          	sb	zero,18(sp)
     f7e:	4781                	li	a5,0
     f80:	86ba                	mv	a3,a4
     f82:	4591                	li	a1,4
     f84:	00f50633          	add	a2,a0,a5
     f88:	2210                	lbu	a2,0(a2)
     f8a:	0785                	addi	a5,a5,1
     f8c:	0705                	addi	a4,a4,1
     f8e:	b310                	sb	a2,1(a4)
     f90:	01214803          	lbu	a6,18(sp)
     f94:	01064633          	xor	a2,a2,a6
     f98:	00c10923          	sb	a2,18(sp)
     f9c:	feb794e3          	bne	a5,a1,f84 <PcdSelect+0x1a>
     fa0:	8536                	mv	a0,a3
     fa2:	01310613          	addi	a2,sp,19
     fa6:	459d                	li	a1,7
     fa8:	378d                	jal	f0a <CalulateCRC>
     faa:	45a1                	li	a1,8
     fac:	4521                	li	a0,8
     fae:	3351                	jal	d32 <ClearBitMask>
     fb0:	0074                	addi	a3,sp,12
     fb2:	0038                	addi	a4,sp,8
     fb4:	4625                	li	a2,9
     fb6:	85b6                	mv	a1,a3
     fb8:	4531                	li	a0,12
     fba:	3b69                	jal	d54 <PcdComMF522>
     fbc:	e901                	bnez	a0,fcc <PcdSelect+0x62>
     fbe:	4722                	lw	a4,8(sp)
     fc0:	47e1                	li	a5,24
     fc2:	00f71563          	bne	a4,a5,fcc <PcdSelect+0x62>
     fc6:	6105                	addi	sp,sp,32
     fc8:	a8cff06f          	j	254 <__riscv_restore_0>
     fcc:	4509                	li	a0,2
     fce:	bfe5                	j	fc6 <PcdSelect+0x5c>

00000fd0 <PcdAuthState>:
     fd0:	a60ff2ef          	jal	t0,230 <__riscv_save_0>
     fd4:	1101                	addi	sp,sp,-32
     fd6:	007c                	addi	a5,sp,12
     fd8:	8836                	mv	a6,a3
     fda:	8648                	sb	a0,12(sp)
     fdc:	86cc                	sb	a1,13(sp)
     fde:	4701                	li	a4,0
     fe0:	85be                	mv	a1,a5
     fe2:	86be                	mv	a3,a5
     fe4:	4519                	li	a0,6
     fe6:	00e608b3          	add	a7,a2,a4
     fea:	0008c883          	lbu	a7,0(a7)
     fee:	0705                	addi	a4,a4,1
     ff0:	0585                	addi	a1,a1,1
     ff2:	011580a3          	sb	a7,1(a1) # 1001 <PcdAuthState+0x31>
     ff6:	fea718e3          	bne	a4,a0,fe6 <PcdAuthState+0x16>
     ffa:	4701                	li	a4,0
     ffc:	4619                	li	a2,6
     ffe:	00e805b3          	add	a1,a6,a4
    1002:	218c                	lbu	a1,0(a1)
    1004:	0705                	addi	a4,a4,1
    1006:	0785                	addi	a5,a5,1
    1008:	b3ec                	sb	a1,7(a5)
    100a:	fec71ae3          	bne	a4,a2,ffe <PcdAuthState+0x2e>
    100e:	0038                	addi	a4,sp,8
    1010:	4631                	li	a2,12
    1012:	85b6                	mv	a1,a3
    1014:	4539                	li	a0,14
    1016:	3b3d                	jal	d54 <PcdComMF522>
    1018:	842a                	mv	s0,a0
    101a:	e509                	bnez	a0,1024 <PcdAuthState+0x54>
    101c:	4521                	li	a0,8
    101e:	3179                	jal	cac <ReadRawRC>
    1020:	8921                	andi	a0,a0,8
    1022:	e111                	bnez	a0,1026 <PcdAuthState+0x56>
    1024:	4409                	li	s0,2
    1026:	8522                	mv	a0,s0
    1028:	6105                	addi	sp,sp,32
    102a:	a2aff06f          	j	254 <__riscv_restore_0>

0000102e <PcdWrite>:
    102e:	a02ff2ef          	jal	t0,230 <__riscv_save_0>
    1032:	1101                	addi	sp,sp,-32
    1034:	fa000793          	li	a5,-96
    1038:	86c8                	sb	a0,13(sp)
    103a:	00e10613          	addi	a2,sp,14
    103e:	0068                	addi	a0,sp,12
    1040:	842e                	mv	s0,a1
    1042:	4589                	li	a1,2
    1044:	865c                	sb	a5,12(sp)
    1046:	35d1                	jal	f0a <CalulateCRC>
    1048:	0074                	addi	a3,sp,12
    104a:	0038                	addi	a4,sp,8
    104c:	4611                	li	a2,4
    104e:	85b6                	mv	a1,a3
    1050:	4531                	li	a0,12
    1052:	3309                	jal	d54 <PcdComMF522>
    1054:	ed31                	bnez	a0,10b0 <PcdWrite+0x82>
    1056:	4722                	lw	a4,8(sp)
    1058:	4791                	li	a5,4
    105a:	04f71b63          	bne	a4,a5,10b0 <PcdWrite+0x82>
    105e:	861c                	lbu	a5,12(sp)
    1060:	4729                	li	a4,10
    1062:	8bbd                	andi	a5,a5,15
    1064:	04e79663          	bne	a5,a4,10b0 <PcdWrite+0x82>
    1068:	4641                	li	a2,16
    106a:	85a2                	mv	a1,s0
    106c:	0068                	addi	a0,sp,12
    106e:	4a9030ef          	jal	ra,4d16 <memcpy>
    1072:	4781                	li	a5,0
    1074:	4741                	li	a4,16
    1076:	00f40633          	add	a2,s0,a5
    107a:	2210                	lbu	a2,0(a2)
    107c:	0074                	addi	a3,sp,12
    107e:	96be                	add	a3,a3,a5
    1080:	a290                	sb	a2,0(a3)
    1082:	0785                	addi	a5,a5,1
    1084:	fee799e3          	bne	a5,a4,1076 <PcdWrite+0x48>
    1088:	0870                	addi	a2,sp,28
    108a:	45c1                	li	a1,16
    108c:	0068                	addi	a0,sp,12
    108e:	3db5                	jal	f0a <CalulateCRC>
    1090:	0074                	addi	a3,sp,12
    1092:	0038                	addi	a4,sp,8
    1094:	4649                	li	a2,18
    1096:	85b6                	mv	a1,a3
    1098:	4531                	li	a0,12
    109a:	396d                	jal	d54 <PcdComMF522>
    109c:	e911                	bnez	a0,10b0 <PcdWrite+0x82>
    109e:	4722                	lw	a4,8(sp)
    10a0:	4791                	li	a5,4
    10a2:	00f71763          	bne	a4,a5,10b0 <PcdWrite+0x82>
    10a6:	861c                	lbu	a5,12(sp)
    10a8:	4729                	li	a4,10
    10aa:	8bbd                	andi	a5,a5,15
    10ac:	00e78363          	beq	a5,a4,10b2 <PcdWrite+0x84>
    10b0:	4509                	li	a0,2
    10b2:	6105                	addi	sp,sp,32
    10b4:	9a0ff06f          	j	254 <__riscv_restore_0>

000010b8 <PcdRead>:
    10b8:	978ff2ef          	jal	t0,230 <__riscv_save_0>
    10bc:	1101                	addi	sp,sp,-32
    10be:	03000793          	li	a5,48
    10c2:	86c8                	sb	a0,13(sp)
    10c4:	00e10613          	addi	a2,sp,14
    10c8:	0068                	addi	a0,sp,12
    10ca:	842e                	mv	s0,a1
    10cc:	4589                	li	a1,2
    10ce:	865c                	sb	a5,12(sp)
    10d0:	3d2d                	jal	f0a <CalulateCRC>
    10d2:	0074                	addi	a3,sp,12
    10d4:	0038                	addi	a4,sp,8
    10d6:	4611                	li	a2,4
    10d8:	85b6                	mv	a1,a3
    10da:	4531                	li	a0,12
    10dc:	39a5                	jal	d54 <PcdComMF522>
    10de:	e505                	bnez	a0,1106 <PcdRead+0x4e>
    10e0:	4722                	lw	a4,8(sp)
    10e2:	09000793          	li	a5,144
    10e6:	02f71063          	bne	a4,a5,1106 <PcdRead+0x4e>
    10ea:	4781                	li	a5,0
    10ec:	4741                	li	a4,16
    10ee:	0070                	addi	a2,sp,12
    10f0:	963e                	add	a2,a2,a5
    10f2:	2210                	lbu	a2,0(a2)
    10f4:	00f406b3          	add	a3,s0,a5
    10f8:	0785                	addi	a5,a5,1
    10fa:	a290                	sb	a2,0(a3)
    10fc:	fee799e3          	bne	a5,a4,10ee <PcdRead+0x36>
    1100:	6105                	addi	sp,sp,32
    1102:	952ff06f          	j	254 <__riscv_restore_0>
    1106:	4509                	li	a0,2
    1108:	bfe5                	j	1100 <PcdRead+0x48>

0000110a <ShowID>:
    110a:	88018693          	addi	a3,gp,-1920 # 20000128 <Card_ID>
    110e:	00450813          	addi	a6,a0,4
    1112:	88018713          	addi	a4,gp,-1920 # 20000128 <Card_ID>
    1116:	09f00893          	li	a7,159
    111a:	4325                	li	t1,9
    111c:	210c                	lbu	a1,0(a0)
    111e:	0045d613          	srli	a2,a1,0x4
    1122:	03060793          	addi	a5,a2,48
    1126:	00b8f463          	bgeu	a7,a1,112e <ShowID+0x24>
    112a:	03760793          	addi	a5,a2,55
    112e:	a29c                	sb	a5,0(a3)
    1130:	211c                	lbu	a5,0(a0)
    1132:	8bbd                	andi	a5,a5,15
    1134:	03078613          	addi	a2,a5,48
    1138:	00f37463          	bgeu	t1,a5,1140 <ShowID+0x36>
    113c:	03778613          	addi	a2,a5,55
    1140:	b290                	sb	a2,1(a3)
    1142:	0505                	addi	a0,a0,1
    1144:	0689                	addi	a3,a3,2
    1146:	fd051be3          	bne	a0,a6,111c <ShowID+0x12>
    114a:	00070423          	sb	zero,8(a4)
    114e:	8082                	ret

00001150 <RC522_Handle>:
    1150:	8c6ff2ef          	jal	t0,216 <__riscv_save_4>
    1154:	83c18593          	addi	a1,gp,-1988 # 200000e4 <CT>
    1158:	05200513          	li	a0,82
    115c:	3301                	jal	e5c <PcdRequest>
    115e:	0ff57513          	andi	a0,a0,255
    1162:	84918413          	addi	s0,gp,-1975 # 200000f1 <status>
    1166:	12051a63          	bnez	a0,129a <RC522_Handle+0x14a>
    116a:	4789                	li	a5,2
    116c:	84018513          	addi	a0,gp,-1984 # 200000e8 <SN>
    1170:	a01c                	sb	a5,0(s0)
    1172:	3b05                	jal	ea2 <PcdAnticoll>
    1174:	0ff57513          	andi	a0,a0,255
    1178:	a008                	sb	a0,0(s0)
    117a:	1a051363          	bnez	a0,1320 <RC522_Handle+0x1d0>
    117e:	400129b7          	lui	s3,0x40012
    1182:	0c800913          	li	s2,200
    1186:	80098993          	addi	s3,s3,-2048 # 40011800 <_eusrstack+0x20009800>
    118a:	4585                	li	a1,1
    118c:	854e                	mv	a0,s3
    118e:	114010ef          	jal	ra,22a2 <GPIO_SetBits>
    1192:	4505                	li	a0,1
    1194:	05f010ef          	jal	ra,29f2 <delay_ms>
    1198:	4585                	li	a1,1
    119a:	854e                	mv	a0,s3
    119c:	10a010ef          	jal	ra,22a6 <GPIO_ResetBits>
    11a0:	197d                	addi	s2,s2,-1
    11a2:	4505                	li	a0,1
    11a4:	0ff97913          	andi	s2,s2,255
    11a8:	04b010ef          	jal	ra,29f2 <delay_ms>
    11ac:	fc091fe3          	bnez	s2,118a <RC522_Handle+0x3a>
    11b0:	4789                	li	a5,2
    11b2:	84018513          	addi	a0,gp,-1984 # 200000e8 <SN>
    11b6:	a01c                	sb	a5,0(s0)
    11b8:	3f89                	jal	110a <ShowID>
    11ba:	84018913          	addi	s2,gp,-1984 # 200000e8 <SN>
    11be:	81018713          	addi	a4,gp,-2032 # 200000b8 <card_0>
    11c2:	00094683          	lbu	a3,0(s2)
    11c6:	2310                	lbu	a2,0(a4)
    11c8:	84018793          	addi	a5,gp,-1984 # 200000e8 <SN>
    11cc:	02d61163          	bne	a2,a3,11ee <RC522_Handle+0x9e>
    11d0:	338c                	lbu	a1,1(a5)
    11d2:	3310                	lbu	a2,1(a4)
    11d4:	00c59d63          	bne	a1,a2,11ee <RC522_Handle+0x9e>
    11d8:	23ac                	lbu	a1,2(a5)
    11da:	2330                	lbu	a2,2(a4)
    11dc:	00c59963          	bne	a1,a2,11ee <RC522_Handle+0x9e>
    11e0:	33b0                	lbu	a2,3(a5)
    11e2:	3338                	lbu	a4,3(a4)
    11e4:	00e61563          	bne	a2,a4,11ee <RC522_Handle+0x9e>
    11e8:	4605                	li	a2,1
    11ea:	84c18223          	sb	a2,-1980(gp) # 200000ec <card0_bit>
    11ee:	81418713          	addi	a4,gp,-2028 # 200000bc <card_1>
    11f2:	2310                	lbu	a2,0(a4)
    11f4:	02d61163          	bne	a2,a3,1216 <RC522_Handle+0xc6>
    11f8:	338c                	lbu	a1,1(a5)
    11fa:	3310                	lbu	a2,1(a4)
    11fc:	00c59d63          	bne	a1,a2,1216 <RC522_Handle+0xc6>
    1200:	23ac                	lbu	a1,2(a5)
    1202:	2330                	lbu	a2,2(a4)
    1204:	00c59963          	bne	a1,a2,1216 <RC522_Handle+0xc6>
    1208:	33b0                	lbu	a2,3(a5)
    120a:	3338                	lbu	a4,3(a4)
    120c:	00e61563          	bne	a2,a4,1216 <RC522_Handle+0xc6>
    1210:	4605                	li	a2,1
    1212:	84c182a3          	sb	a2,-1979(gp) # 200000ed <card1_bit>
    1216:	81818713          	addi	a4,gp,-2024 # 200000c0 <card_2>
    121a:	2310                	lbu	a2,0(a4)
    121c:	02d61163          	bne	a2,a3,123e <RC522_Handle+0xee>
    1220:	338c                	lbu	a1,1(a5)
    1222:	3310                	lbu	a2,1(a4)
    1224:	00c59d63          	bne	a1,a2,123e <RC522_Handle+0xee>
    1228:	23ac                	lbu	a1,2(a5)
    122a:	2330                	lbu	a2,2(a4)
    122c:	00c59963          	bne	a1,a2,123e <RC522_Handle+0xee>
    1230:	33b0                	lbu	a2,3(a5)
    1232:	3338                	lbu	a4,3(a4)
    1234:	00e61563          	bne	a2,a4,123e <RC522_Handle+0xee>
    1238:	4605                	li	a2,1
    123a:	84c18323          	sb	a2,-1978(gp) # 200000ee <card2_bit>
    123e:	81c18713          	addi	a4,gp,-2020 # 200000c4 <card_3>
    1242:	2310                	lbu	a2,0(a4)
    1244:	02d61163          	bne	a2,a3,1266 <RC522_Handle+0x116>
    1248:	338c                	lbu	a1,1(a5)
    124a:	3310                	lbu	a2,1(a4)
    124c:	00c59d63          	bne	a1,a2,1266 <RC522_Handle+0x116>
    1250:	23ac                	lbu	a1,2(a5)
    1252:	2330                	lbu	a2,2(a4)
    1254:	00c59963          	bne	a1,a2,1266 <RC522_Handle+0x116>
    1258:	33b0                	lbu	a2,3(a5)
    125a:	3338                	lbu	a4,3(a4)
    125c:	00e61563          	bne	a2,a4,1266 <RC522_Handle+0x116>
    1260:	4605                	li	a2,1
    1262:	84c183a3          	sb	a2,-1977(gp) # 200000ef <card3_bit>
    1266:	82018713          	addi	a4,gp,-2016 # 200000c8 <card_4>
    126a:	2310                	lbu	a2,0(a4)
    126c:	02d61163          	bne	a2,a3,128e <RC522_Handle+0x13e>
    1270:	3390                	lbu	a2,1(a5)
    1272:	3314                	lbu	a3,1(a4)
    1274:	00d61d63          	bne	a2,a3,128e <RC522_Handle+0x13e>
    1278:	23b0                	lbu	a2,2(a5)
    127a:	2334                	lbu	a3,2(a4)
    127c:	00d61963          	bne	a2,a3,128e <RC522_Handle+0x13e>
    1280:	33b4                	lbu	a3,3(a5)
    1282:	333c                	lbu	a5,3(a4)
    1284:	00f69563          	bne	a3,a5,128e <RC522_Handle+0x13e>
    1288:	4705                	li	a4,1
    128a:	84e18423          	sb	a4,-1976(gp) # 200000f0 <card4_bit>
    128e:	84018513          	addi	a0,gp,-1984 # 200000e8 <SN>
    1292:	39e1                	jal	f6a <PcdSelect>
    1294:	0ff57513          	andi	a0,a0,255
    1298:	c119                	beqz	a0,129e <RC522_Handle+0x14e>
    129a:	a008                	sb	a0,0(s0)
    129c:	a051                	j	1320 <RC522_Handle+0x1d0>
    129e:	20000637          	lui	a2,0x20000
    12a2:	84018693          	addi	a3,gp,-1984 # 200000e8 <SN>
    12a6:	0a860613          	addi	a2,a2,168 # 200000a8 <KEY_A>
    12aa:	45ad                	li	a1,11
    12ac:	4989                	li	s3,2
    12ae:	06000513          	li	a0,96
    12b2:	01340023          	sb	s3,0(s0)
    12b6:	3b29                	jal	fd0 <PcdAuthState>
    12b8:	a008                	sb	a0,0(s0)
    12ba:	84018693          	addi	a3,gp,-1984 # 200000e8 <SN>
    12be:	80818613          	addi	a2,gp,-2040 # 200000b0 <KEY_B>
    12c2:	45ad                	li	a1,11
    12c4:	06100513          	li	a0,97
    12c8:	3321                	jal	fd0 <PcdAuthState>
    12ca:	0ff57513          	andi	a0,a0,255
    12ce:	f571                	bnez	a0,129a <RC522_Handle+0x14a>
    12d0:	80e1c503          	lbu	a0,-2034(gp) # 200000b6 <addr>
    12d4:	88c18593          	addi	a1,gp,-1908 # 20000134 <DATA>
    12d8:	01340023          	sb	s3,0(s0)
    12dc:	3bf1                	jal	10b8 <PcdRead>
    12de:	0ff57513          	andi	a0,a0,255
    12e2:	80e18913          	addi	s2,gp,-2034 # 200000b6 <addr>
    12e6:	f955                	bnez	a0,129a <RC522_Handle+0x14a>
    12e8:	3e800513          	li	a0,1000
    12ec:	01340023          	sb	s3,0(s0)
    12f0:	6d4010ef          	jal	ra,29c4 <Delay_Ms>
    12f4:	00094503          	lbu	a0,0(s2)
    12f8:	200005b7          	lui	a1,0x20000
    12fc:	00058593          	mv	a1,a1
    1300:	333d                	jal	102e <PcdWrite>
    1302:	0ff57513          	andi	a0,a0,255
    1306:	a008                	sb	a0,0(s0)
    1308:	ed11                	bnez	a0,1324 <RC522_Handle+0x1d4>
    130a:	00094503          	lbu	a0,0(s2)
    130e:	4789                	li	a5,2
    1310:	88c18593          	addi	a1,gp,-1908 # 20000134 <DATA>
    1314:	a01c                	sb	a5,0(s0)
    1316:	334d                	jal	10b8 <PcdRead>
    1318:	0ff57513          	andi	a0,a0,255
    131c:	a008                	sb	a0,0(s0)
    131e:	c919                	beqz	a0,1334 <RC522_Handle+0x1e4>
    1320:	f2bfe06f          	j	24a <__riscv_restore_4>
    1324:	6505                	lui	a0,0x1
    1326:	bb850513          	addi	a0,a0,-1096 # bb8 <MPU_Init+0x50>
    132a:	69a010ef          	jal	ra,29c4 <Delay_Ms>
    132e:	201c                	lbu	a5,0(s0)
    1330:	dfe9                	beqz	a5,130a <RC522_Handle+0x1ba>
    1332:	b7fd                	j	1320 <RC522_Handle+0x1d0>
    1334:	4901                	li	s2,0
    1336:	88c18493          	addi	s1,gp,-1908 # 20000134 <DATA>
    133a:	00006a37          	lui	s4,0x6
    133e:	49c1                	li	s3,16
    1340:	012487b3          	add	a5,s1,s2
    1344:	238c                	lbu	a1,0(a5)
    1346:	5c4a0513          	addi	a0,s4,1476 # 65c4 <_read+0x1aa>
    134a:	0905                	addi	s2,s2,1
    134c:	27d030ef          	jal	ra,4dc8 <iprintf>
    1350:	ff3918e3          	bne	s2,s3,1340 <RC522_Handle+0x1f0>
    1354:	201c                	lbu	a5,0(s0)
    1356:	f7e9                	bnez	a5,1320 <RC522_Handle+0x1d0>
    1358:	4789                	li	a5,2
    135a:	3e800513          	li	a0,1000
    135e:	a01c                	sb	a5,0(s0)
    1360:	664010ef          	jal	ra,29c4 <Delay_Ms>
    1364:	bf75                	j	1320 <RC522_Handle+0x1d0>

00001366 <Get_ADC_Val>:
    1366:	ecbfe2ef          	jal	t0,230 <__riscv_save_0>
    136a:	40012537          	lui	a0,0x40012
    136e:	4585                	li	a1,1
    1370:	40050513          	addi	a0,a0,1024 # 40012400 <_eusrstack+0x2000a400>
    1374:	40012437          	lui	s0,0x40012
    1378:	637000ef          	jal	ra,21ae <ADC_SoftwareStartConvCmd>
    137c:	40040493          	addi	s1,s0,1024 # 40012400 <_eusrstack+0x2000a400>
    1380:	4589                	li	a1,2
    1382:	8526                	mv	a0,s1
    1384:	64b000ef          	jal	ra,21ce <ADC_GetFlagStatus>
    1388:	dd65                	beqz	a0,1380 <Get_ADC_Val+0x1a>
    138a:	40040513          	addi	a0,s0,1024
    138e:	639000ef          	jal	ra,21c6 <ADC_GetConversionValue>
    1392:	ec3fe06f          	j	254 <__riscv_restore_0>

00001396 <NMI_Handler>:
    1396:	30200073          	mret

0000139a <HardFault_Handler>:
    139a:	a001                	j	139a <HardFault_Handler>

0000139c <Start_Trig>:
    139c:	e95fe2ef          	jal	t0,230 <__riscv_save_0>
    13a0:	40011437          	lui	s0,0x40011
    13a4:	4585                	li	a1,1
    13a6:	c0040513          	addi	a0,s0,-1024 # 40010c00 <_eusrstack+0x20008c00>
    13aa:	6f9000ef          	jal	ra,22a2 <GPIO_SetBits>
    13ae:	03200513          	li	a0,50
    13b2:	606010ef          	jal	ra,29b8 <Delay_Us>
    13b6:	4585                	li	a1,1
    13b8:	c0040513          	addi	a0,s0,-1024
    13bc:	6eb000ef          	jal	ra,22a6 <GPIO_ResetBits>
    13c0:	e95fe06f          	j	254 <__riscv_restore_0>

000013c4 <spi_readwrite>:
    13c4:	e53fe2ef          	jal	t0,216 <__riscv_save_4>
    13c8:	400044b7          	lui	s1,0x40004
    13cc:	892a                	mv	s2,a0
    13ce:	0c900413          	li	s0,201
    13d2:	c0048993          	addi	s3,s1,-1024 # 40003c00 <_eusrstack+0x1fffbc00>
    13d6:	4589                	li	a1,2
    13d8:	854e                	mv	a0,s3
    13da:	3ca010ef          	jal	ra,27a4 <SPI_I2S_GetFlagStatus>
    13de:	c905                	beqz	a0,140e <spi_readwrite+0x4a>
    13e0:	85ca                	mv	a1,s2
    13e2:	c0048513          	addi	a0,s1,-1024
    13e6:	400044b7          	lui	s1,0x40004
    13ea:	3b2010ef          	jal	ra,279c <SPI_I2S_SendData>
    13ee:	0c900413          	li	s0,201
    13f2:	c0048913          	addi	s2,s1,-1024 # 40003c00 <_eusrstack+0x1fffbc00>
    13f6:	4585                	li	a1,1
    13f8:	854a                	mv	a0,s2
    13fa:	3aa010ef          	jal	ra,27a4 <SPI_I2S_GetFlagStatus>
    13fe:	cd19                	beqz	a0,141c <spi_readwrite+0x58>
    1400:	c0048513          	addi	a0,s1,-1024
    1404:	39c010ef          	jal	ra,27a0 <SPI_I2S_ReceiveData>
    1408:	0ff57513          	andi	a0,a0,255
    140c:	a031                	j	1418 <spi_readwrite+0x54>
    140e:	147d                	addi	s0,s0,-1
    1410:	0ff47413          	andi	s0,s0,255
    1414:	f069                	bnez	s0,13d6 <spi_readwrite+0x12>
    1416:	4501                	li	a0,0
    1418:	e33fe06f          	j	24a <__riscv_restore_4>
    141c:	147d                	addi	s0,s0,-1
    141e:	0ff47413          	andi	s0,s0,255
    1422:	f871                	bnez	s0,13f6 <spi_readwrite+0x32>
    1424:	bfcd                	j	1416 <spi_readwrite+0x52>

00001426 <LCD_WR_DATA>:
    1426:	e0bfe2ef          	jal	t0,230 <__riscv_save_0>
    142a:	40011437          	lui	s0,0x40011
    142e:	84aa                	mv	s1,a0
    1430:	45c1                	li	a1,16
    1432:	40040513          	addi	a0,s0,1024 # 40011400 <_eusrstack+0x20009400>
    1436:	671000ef          	jal	ra,22a6 <GPIO_ResetBits>
    143a:	45a1                	li	a1,8
    143c:	40040513          	addi	a0,s0,1024
    1440:	663000ef          	jal	ra,22a2 <GPIO_SetBits>
    1444:	0084d513          	srli	a0,s1,0x8
    1448:	3fb5                	jal	13c4 <spi_readwrite>
    144a:	0ff4f513          	andi	a0,s1,255
    144e:	3f9d                	jal	13c4 <spi_readwrite>
    1450:	45c1                	li	a1,16
    1452:	40040513          	addi	a0,s0,1024
    1456:	64d000ef          	jal	ra,22a2 <GPIO_SetBits>
    145a:	dfbfe06f          	j	254 <__riscv_restore_0>

0000145e <LCD_WR_REG>:
    145e:	dd3fe2ef          	jal	t0,230 <__riscv_save_0>
    1462:	40011437          	lui	s0,0x40011
    1466:	84aa                	mv	s1,a0
    1468:	45c1                	li	a1,16
    146a:	40040513          	addi	a0,s0,1024 # 40011400 <_eusrstack+0x20009400>
    146e:	639000ef          	jal	ra,22a6 <GPIO_ResetBits>
    1472:	45a1                	li	a1,8
    1474:	40040513          	addi	a0,s0,1024
    1478:	62f000ef          	jal	ra,22a6 <GPIO_ResetBits>
    147c:	8526                	mv	a0,s1
    147e:	3799                	jal	13c4 <spi_readwrite>
    1480:	45c1                	li	a1,16
    1482:	40040513          	addi	a0,s0,1024
    1486:	61d000ef          	jal	ra,22a2 <GPIO_SetBits>
    148a:	dcbfe06f          	j	254 <__riscv_restore_0>

0000148e <LCD_Address_Set>:
    148e:	da3fe2ef          	jal	t0,230 <__riscv_save_0>
    1492:	1141                	addi	sp,sp,-16
    1494:	842a                	mv	s0,a0
    1496:	02a00513          	li	a0,42
    149a:	c236                	sw	a3,4(sp)
    149c:	c62e                	sw	a1,12(sp)
    149e:	c432                	sw	a2,8(sp)
    14a0:	3f7d                	jal	145e <LCD_WR_REG>
    14a2:	00240513          	addi	a0,s0,2
    14a6:	0542                	slli	a0,a0,0x10
    14a8:	8141                	srli	a0,a0,0x10
    14aa:	3fb5                	jal	1426 <LCD_WR_DATA>
    14ac:	4622                	lw	a2,8(sp)
    14ae:	0609                	addi	a2,a2,2
    14b0:	01061513          	slli	a0,a2,0x10
    14b4:	8141                	srli	a0,a0,0x10
    14b6:	3f85                	jal	1426 <LCD_WR_DATA>
    14b8:	02b00513          	li	a0,43
    14bc:	374d                	jal	145e <LCD_WR_REG>
    14be:	45b2                	lw	a1,12(sp)
    14c0:	058d                	addi	a1,a1,3
    14c2:	01059513          	slli	a0,a1,0x10
    14c6:	8141                	srli	a0,a0,0x10
    14c8:	3fb9                	jal	1426 <LCD_WR_DATA>
    14ca:	4692                	lw	a3,4(sp)
    14cc:	068d                	addi	a3,a3,3
    14ce:	01069513          	slli	a0,a3,0x10
    14d2:	8141                	srli	a0,a0,0x10
    14d4:	3f89                	jal	1426 <LCD_WR_DATA>
    14d6:	02c00513          	li	a0,44
    14da:	3751                	jal	145e <LCD_WR_REG>
    14dc:	0141                	addi	sp,sp,16
    14de:	d77fe06f          	j	254 <__riscv_restore_0>

000014e2 <LCD_DrawPoint>:
    14e2:	d4ffe2ef          	jal	t0,230 <__riscv_save_0>
    14e6:	8432                	mv	s0,a2
    14e8:	86ae                	mv	a3,a1
    14ea:	862a                	mv	a2,a0
    14ec:	374d                	jal	148e <LCD_Address_Set>
    14ee:	8522                	mv	a0,s0
    14f0:	3f1d                	jal	1426 <LCD_WR_DATA>
    14f2:	d63fe06f          	j	254 <__riscv_restore_0>

000014f6 <LCD_ShowChar>:
    14f6:	d0bfe2ef          	jal	t0,200 <__riscv_save_12>
    14fa:	1101                	addi	sp,sp,-32
    14fc:	8b36                	mv	s6,a3
    14fe:	01079693          	slli	a3,a5,0x10
    1502:	cc3a                	sw	a4,24(sp)
    1504:	82c1                	srli	a3,a3,0x10
    1506:	0047d713          	srli	a4,a5,0x4
    150a:	0017da93          	srli	s5,a5,0x1
    150e:	8d3e                	mv	s10,a5
    1510:	02e687b3          	mul	a5,a3,a4
    1514:	8932                	mv	s2,a2
    1516:	fff58713          	addi	a4,a1,-1 # 1fffffff <_data_lma+0x1fff791b>
    151a:	fff50613          	addi	a2,a0,-1
    151e:	96ba                	add	a3,a3,a4
    1520:	9656                	add	a2,a2,s5
    1522:	06c2                	slli	a3,a3,0x10
    1524:	0642                	slli	a2,a2,0x10
    1526:	8241                	srli	a2,a2,0x10
    1528:	82c1                	srli	a3,a3,0x10
    152a:	84aa                	mv	s1,a0
    152c:	ca3e                	sw	a5,20(sp)
    152e:	842e                	mv	s0,a1
    1530:	ce42                	sw	a6,28(sp)
    1532:	3fb1                	jal	148e <LCD_Address_Set>
    1534:	fe090613          	addi	a2,s2,-32
    1538:	0ff67613          	andi	a2,a2,255
    153c:	00661793          	slli	a5,a2,0x6
    1540:	c63e                	sw	a5,12(sp)
    1542:	699d                	lui	s3,0x7
    1544:	00461793          	slli	a5,a2,0x4
    1548:	6a19                	lui	s4,0x6
    154a:	c83e                	sw	a5,16(sp)
    154c:	8ca6                	mv	s9,s1
    154e:	4c01                	li	s8,0
    1550:	bbc98993          	addi	s3,s3,-1092 # 6bbc <ascii_3216>
    1554:	5cca0a13          	addi	s4,s4,1484 # 65cc <ascii_1608>
    1558:	4da1                	li	s11,8
    155a:	47d2                	lw	a5,20(sp)
    155c:	010c1613          	slli	a2,s8,0x10
    1560:	8241                	srli	a2,a2,0x10
    1562:	00f66563          	bltu	a2,a5,156c <LCD_ShowChar+0x76>
    1566:	6105                	addi	sp,sp,32
    1568:	cd5fe06f          	j	23c <__riscv_restore_12>
    156c:	47c1                	li	a5,16
    156e:	02fd1663          	bne	s10,a5,159a <LCD_ShowChar+0xa4>
    1572:	47c2                	lw	a5,16(sp)
    1574:	01878633          	add	a2,a5,s8
    1578:	9652                	add	a2,a2,s4
    157a:	00064b83          	lbu	s7,0(a2)
    157e:	4901                	li	s2,0
    1580:	47f2                	lw	a5,28(sp)
    1582:	412bd633          	sra	a2,s7,s2
    1586:	8a05                	andi	a2,a2,1
    1588:	e395                	bnez	a5,15ac <LCD_ShowChar+0xb6>
    158a:	855a                	mv	a0,s6
    158c:	e211                	bnez	a2,1590 <LCD_ShowChar+0x9a>
    158e:	4562                	lw	a0,24(sp)
    1590:	3d59                	jal	1426 <LCD_WR_DATA>
    1592:	0905                	addi	s2,s2,1
    1594:	ffb916e3          	bne	s2,s11,1580 <LCD_ShowChar+0x8a>
    1598:	a82d                	j	15d2 <LCD_ShowChar+0xdc>
    159a:	02000793          	li	a5,32
    159e:	fcfd14e3          	bne	s10,a5,1566 <LCD_ShowChar+0x70>
    15a2:	47b2                	lw	a5,12(sp)
    15a4:	01878633          	add	a2,a5,s8
    15a8:	964e                	add	a2,a2,s3
    15aa:	bfc1                	j	157a <LCD_ShowChar+0x84>
    15ac:	c609                	beqz	a2,15b6 <LCD_ShowChar+0xc0>
    15ae:	865a                	mv	a2,s6
    15b0:	85a2                	mv	a1,s0
    15b2:	8566                	mv	a0,s9
    15b4:	373d                	jal	14e2 <LCD_DrawPoint>
    15b6:	001c8713          	addi	a4,s9,1
    15ba:	01071c93          	slli	s9,a4,0x10
    15be:	010cdc93          	srli	s9,s9,0x10
    15c2:	409c8633          	sub	a2,s9,s1
    15c6:	fd5616e3          	bne	a2,s5,1592 <LCD_ShowChar+0x9c>
    15ca:	0405                	addi	s0,s0,1
    15cc:	0442                	slli	s0,s0,0x10
    15ce:	8041                	srli	s0,s0,0x10
    15d0:	8ca6                	mv	s9,s1
    15d2:	0c05                	addi	s8,s8,1
    15d4:	b759                	j	155a <LCD_ShowChar+0x64>

000015d6 <LCD_ShowString>:
    15d6:	c33fe2ef          	jal	t0,208 <__riscv_save_10>
    15da:	842a                	mv	s0,a0
    15dc:	8a2e                	mv	s4,a1
    15de:	84b2                	mv	s1,a2
    15e0:	8ab6                	mv	s5,a3
    15e2:	8b3a                	mv	s6,a4
    15e4:	8bc2                	mv	s7,a6
    15e6:	893e                	mv	s2,a5
    15e8:	0017d993          	srli	s3,a5,0x1
    15ec:	2090                	lbu	a2,0(s1)
    15ee:	e219                	bnez	a2,15f4 <LCD_ShowString+0x1e>
    15f0:	c51fe06f          	j	240 <__riscv_restore_10>
    15f4:	8522                	mv	a0,s0
    15f6:	944e                	add	s0,s0,s3
    15f8:	885e                	mv	a6,s7
    15fa:	87ca                	mv	a5,s2
    15fc:	875a                	mv	a4,s6
    15fe:	86d6                	mv	a3,s5
    1600:	85d2                	mv	a1,s4
    1602:	0442                	slli	s0,s0,0x10
    1604:	3dcd                	jal	14f6 <LCD_ShowChar>
    1606:	8041                	srli	s0,s0,0x10
    1608:	0485                	addi	s1,s1,1
    160a:	b7cd                	j	15ec <LCD_ShowString+0x16>

0000160c <LCD_ShowIntNum>:
    160c:	bf5fe2ef          	jal	t0,200 <__riscv_save_12>
    1610:	1141                	addi	sp,sp,-16
    1612:	8a3e                	mv	s4,a5
    1614:	fff68a93          	addi	s5,a3,-1
    1618:	00185793          	srli	a5,a6,0x1
    161c:	8d2a                	mv	s10,a0
    161e:	892e                	mv	s2,a1
    1620:	8c32                	mv	s8,a2
    1622:	89ba                	mv	s3,a4
    1624:	8bc2                	mv	s7,a6
    1626:	c63e                	sw	a5,12(sp)
    1628:	0ffafc93          	andi	s9,s5,255
    162c:	4d81                	li	s11,0
    162e:	4481                	li	s1,0
    1630:	0ff00413          	li	s0,255
    1634:	4b29                	li	s6,10
    1636:	008c9563          	bne	s9,s0,1640 <LCD_ShowIntNum+0x34>
    163a:	0141                	addi	sp,sp,16
    163c:	c01fe06f          	j	23c <__riscv_restore_12>
    1640:	8766                	mv	a4,s9
    1642:	4785                	li	a5,1
    1644:	177d                	addi	a4,a4,-1
    1646:	0ff77713          	andi	a4,a4,255
    164a:	02871f63          	bne	a4,s0,1688 <LCD_ShowIntNum+0x7c>
    164e:	02fc57b3          	divu	a5,s8,a5
    1652:	0367f7b3          	remu	a5,a5,s6
    1656:	0ff7f613          	andi	a2,a5,255
    165a:	e89d                	bnez	s1,1690 <LCD_ShowIntNum+0x84>
    165c:	035dda63          	bge	s11,s5,1690 <LCD_ShowIntNum+0x84>
    1660:	e79d                	bnez	a5,168e <LCD_ShowIntNum+0x82>
    1662:	4801                	li	a6,0
    1664:	87de                	mv	a5,s7
    1666:	8752                	mv	a4,s4
    1668:	86ce                	mv	a3,s3
    166a:	02000613          	li	a2,32
    166e:	856a                	mv	a0,s10
    1670:	85ca                	mv	a1,s2
    1672:	3551                	jal	14f6 <LCD_ShowChar>
    1674:	47b2                	lw	a5,12(sp)
    1676:	1cfd                	addi	s9,s9,-1
    1678:	0d85                	addi	s11,s11,1
    167a:	9d3e                	add	s10,s10,a5
    167c:	0d42                	slli	s10,s10,0x10
    167e:	010d5d13          	srli	s10,s10,0x10
    1682:	0ffcfc93          	andi	s9,s9,255
    1686:	bf45                	j	1636 <LCD_ShowIntNum+0x2a>
    1688:	036787b3          	mul	a5,a5,s6
    168c:	bf65                	j	1644 <LCD_ShowIntNum+0x38>
    168e:	4485                	li	s1,1
    1690:	4801                	li	a6,0
    1692:	87de                	mv	a5,s7
    1694:	8752                	mv	a4,s4
    1696:	86ce                	mv	a3,s3
    1698:	03060613          	addi	a2,a2,48
    169c:	bfc9                	j	166e <LCD_ShowIntNum+0x62>

0000169e <Acquire_SensorDATE>:
    169e:	b6bfe2ef          	jal	t0,208 <__riscv_save_10>
    16a2:	85a18613          	addi	a2,gp,-1958 # 20000102 <gyroz>
    16a6:	85818593          	addi	a1,gp,-1960 # 20000100 <gyroy>
    16aa:	85618513          	addi	a0,gp,-1962 # 200000fe <gyrox>
    16ae:	aa8ff0ef          	jal	ra,956 <MPU_Get_Accelerometer>
    16b2:	85618993          	addi	s3,gp,-1962 # 200000fe <gyrox>
    16b6:	00099503          	lh	a0,0(s3)
    16ba:	00006ab7          	lui	s5,0x6
    16be:	85818b93          	addi	s7,gp,-1960 # 20000100 <gyroy>
    16c2:	540020ef          	jal	ra,3c02 <__floatsidf>
    16c6:	590aa603          	lw	a2,1424(s5) # 6590 <_read+0x176>
    16ca:	594aa683          	lw	a3,1428(s5)
    16ce:	85a18b13          	addi	s6,gp,-1958 # 20000102 <gyroz>
    16d2:	85818413          	addi	s0,gp,-1960 # 20000100 <gyroy>
    16d6:	00c020ef          	jal	ra,36e2 <__muldf3>
    16da:	4c0020ef          	jal	ra,3b9a <__fixdfsi>
    16de:	01051a13          	slli	s4,a0,0x10
    16e2:	000b9503          	lh	a0,0(s7)
    16e6:	410a5a13          	srai	s4,s4,0x10
    16ea:	01499023          	sh	s4,0(s3)
    16ee:	514020ef          	jal	ra,3c02 <__floatsidf>
    16f2:	590aa603          	lw	a2,1424(s5)
    16f6:	594aa683          	lw	a3,1428(s5)
    16fa:	031a0a13          	addi	s4,s4,49
    16fe:	0a42                	slli	s4,s4,0x10
    1700:	7e3010ef          	jal	ra,36e2 <__muldf3>
    1704:	496020ef          	jal	ra,3b9a <__fixdfsi>
    1708:	01051993          	slli	s3,a0,0x10
    170c:	000b1503          	lh	a0,0(s6)
    1710:	4109d993          	srai	s3,s3,0x10
    1714:	013b9023          	sh	s3,0(s7)
    1718:	4ea020ef          	jal	ra,3c02 <__floatsidf>
    171c:	590aa603          	lw	a2,1424(s5)
    1720:	594aa683          	lw	a3,1428(s5)
    1724:	010a5a13          	srli	s4,s4,0x10
    1728:	85a18913          	addi	s2,gp,-1958 # 20000102 <gyroz>
    172c:	7b7010ef          	jal	ra,36e2 <__muldf3>
    1730:	46a020ef          	jal	ra,3b9a <__fixdfsi>
    1734:	0542                	slli	a0,a0,0x10
    1736:	8541                	srai	a0,a0,0x10
    1738:	00ab1023          	sh	a0,0(s6)
    173c:	06200793          	li	a5,98
    1740:	85618493          	addi	s1,gp,-1962 # 200000fe <gyrox>
    1744:	1d47e563          	bltu	a5,s4,190e <Acquire_SensorDATE+0x270>
    1748:	03198993          	addi	s3,s3,49
    174c:	09c2                	slli	s3,s3,0x10
    174e:	0109d993          	srli	s3,s3,0x10
    1752:	1b37ee63          	bltu	a5,s3,190e <Acquire_SensorDATE+0x270>
    1756:	f7d50513          	addi	a0,a0,-131
    175a:	0542                	slli	a0,a0,0x10
    175c:	8141                	srli	a0,a0,0x10
    175e:	47c9                	li	a5,18
    1760:	1aa7e763          	bltu	a5,a0,190e <Acquire_SensorDATE+0x270>
    1764:	4511                	li	a0,4
    1766:	c01ff0ef          	jal	ra,1366 <Get_ADC_Val>
    176a:	0ff57513          	andi	a0,a0,255
    176e:	86a18423          	sb	a0,-1944(gp) # 20000110 <wp_adc>
    1772:	25a030ef          	jal	ra,49cc <__floatsisf>
    1776:	000087b7          	lui	a5,0x8
    177a:	37c7a583          	lw	a1,892(a5) # 837c <ascii_3216+0x17c0>
    177e:	85018993          	addi	s3,gp,-1968 # 200000f8 <Water_Pressure>
    1782:	60b020ef          	jal	ra,458c <__subsf3>
    1786:	000087b7          	lui	a5,0x8
    178a:	3807a583          	lw	a1,896(a5) # 8380 <ascii_3216+0x17c4>
    178e:	85018a13          	addi	s4,gp,-1968 # 200000f8 <Water_Pressure>
    1792:	367020ef          	jal	ra,42f8 <__mulsf3>
    1796:	00a9a023          	sw	a0,0(s3)
    179a:	9b7ff0ef          	jal	ra,1150 <RC522_Handle>
    179e:	2185                	jal	1bfe <Ultrasoniclength>
    17a0:	00049783          	lh	a5,0(s1)
    17a4:	84a1a623          	sw	a0,-1972(gp) # 200000f4 <Water_Level>
    17a8:	84c18a93          	addi	s5,gp,-1972 # 200000f4 <Water_Level>
    17ac:	1a07d163          	bgez	a5,194e <Acquire_SensorDATE+0x2b0>
    17b0:	66c1                	lui	a3,0x10
    17b2:	00008637          	lui	a2,0x8
    17b6:	47c1                	li	a5,16
    17b8:	fff68713          	addi	a4,a3,-1 # ffff <_data_lma+0x791b>
    17bc:	4801                	li	a6,0
    17be:	80068693          	addi	a3,a3,-2048
    17c2:	38460613          	addi	a2,a2,900 # 8384 <ascii_3216+0x17c8>
    17c6:	45a9                	li	a1,10
    17c8:	4529                	li	a0,10
    17ca:	3531                	jal	15d6 <LCD_ShowString>
    17cc:	209e                	lhu	a5,0(s1)
    17ce:	40f007b3          	neg	a5,a5
    17d2:	a09e                	sh	a5,0(s1)
    17d4:	2092                	lhu	a2,0(s1)
    17d6:	69c1                	lui	s3,0x10
    17d8:	4841                	li	a6,16
    17da:	fff98793          	addi	a5,s3,-1 # ffff <_data_lma+0x791b>
    17de:	80098713          	addi	a4,s3,-2048
    17e2:	468d                	li	a3,3
    17e4:	45a9                	li	a1,10
    17e6:	04600513          	li	a0,70
    17ea:	350d                	jal	160c <LCD_ShowIntNum>
    17ec:	00041783          	lh	a5,0(s0)
    17f0:	4801                	li	a6,0
    17f2:	1607de63          	bgez	a5,196e <Acquire_SensorDATE+0x2d0>
    17f6:	00008637          	lui	a2,0x8
    17fa:	47c1                	li	a5,16
    17fc:	fff98713          	addi	a4,s3,-1
    1800:	80098693          	addi	a3,s3,-2048
    1804:	39460613          	addi	a2,a2,916 # 8394 <ascii_3216+0x17d8>
    1808:	45f9                	li	a1,30
    180a:	4529                	li	a0,10
    180c:	dcbff0ef          	jal	ra,15d6 <LCD_ShowString>
    1810:	201e                	lhu	a5,0(s0)
    1812:	40f007b3          	neg	a5,a5
    1816:	a01e                	sh	a5,0(s0)
    1818:	2012                	lhu	a2,0(s0)
    181a:	64c1                	lui	s1,0x10
    181c:	4841                	li	a6,16
    181e:	fff48793          	addi	a5,s1,-1 # ffff <_data_lma+0x791b>
    1822:	80048713          	addi	a4,s1,-2048
    1826:	468d                	li	a3,3
    1828:	45f9                	li	a1,30
    182a:	04600513          	li	a0,70
    182e:	ddfff0ef          	jal	ra,160c <LCD_ShowIntNum>
    1832:	00041783          	lh	a5,0(s0)
    1836:	4801                	li	a6,0
    1838:	1407d963          	bgez	a5,198a <Acquire_SensorDATE+0x2ec>
    183c:	00008637          	lui	a2,0x8
    1840:	47c1                	li	a5,16
    1842:	fff48713          	addi	a4,s1,-1
    1846:	80048693          	addi	a3,s1,-2048
    184a:	3a460613          	addi	a2,a2,932 # 83a4 <ascii_3216+0x17e8>
    184e:	03200593          	li	a1,50
    1852:	4529                	li	a0,10
    1854:	d83ff0ef          	jal	ra,15d6 <LCD_ShowString>
    1858:	00095783          	lhu	a5,0(s2)
    185c:	40f007b3          	neg	a5,a5
    1860:	00f91023          	sh	a5,0(s2)
    1864:	00095603          	lhu	a2,0(s2)
    1868:	6441                	lui	s0,0x10
    186a:	fff40793          	addi	a5,s0,-1 # ffff <_data_lma+0x791b>
    186e:	80040713          	addi	a4,s0,-2048
    1872:	4841                	li	a6,16
    1874:	468d                	li	a3,3
    1876:	03200593          	li	a1,50
    187a:	04600513          	li	a0,70
    187e:	d8fff0ef          	jal	ra,160c <LCD_ShowIntNum>
    1882:	00008637          	lui	a2,0x8
    1886:	fff40713          	addi	a4,s0,-1
    188a:	80040693          	addi	a3,s0,-2048
    188e:	4801                	li	a6,0
    1890:	47c1                	li	a5,16
    1892:	3b460613          	addi	a2,a2,948 # 83b4 <ascii_3216+0x17f8>
    1896:	04600593          	li	a1,70
    189a:	4529                	li	a0,10
    189c:	d3bff0ef          	jal	ra,15d6 <LCD_ShowString>
    18a0:	000aa503          	lw	a0,0(s5)
    18a4:	0d2030ef          	jal	ra,4976 <__fixunssfsi>
    18a8:	01051613          	slli	a2,a0,0x10
    18ac:	fff40793          	addi	a5,s0,-1
    18b0:	80040713          	addi	a4,s0,-2048
    18b4:	4841                	li	a6,16
    18b6:	468d                	li	a3,3
    18b8:	8241                	srli	a2,a2,0x10
    18ba:	04600593          	li	a1,70
    18be:	04600513          	li	a0,70
    18c2:	d4bff0ef          	jal	ra,160c <LCD_ShowIntNum>
    18c6:	00008637          	lui	a2,0x8
    18ca:	fff40713          	addi	a4,s0,-1
    18ce:	80040693          	addi	a3,s0,-2048
    18d2:	4801                	li	a6,0
    18d4:	47c1                	li	a5,16
    18d6:	3bc60613          	addi	a2,a2,956 # 83bc <ascii_3216+0x1800>
    18da:	05a00593          	li	a1,90
    18de:	4529                	li	a0,10
    18e0:	cf7ff0ef          	jal	ra,15d6 <LCD_ShowString>
    18e4:	000a2503          	lw	a0,0(s4)
    18e8:	08e030ef          	jal	ra,4976 <__fixunssfsi>
    18ec:	01051613          	slli	a2,a0,0x10
    18f0:	4841                	li	a6,16
    18f2:	fff40793          	addi	a5,s0,-1
    18f6:	80040713          	addi	a4,s0,-2048
    18fa:	468d                	li	a3,3
    18fc:	8241                	srli	a2,a2,0x10
    18fe:	05a00593          	li	a1,90
    1902:	04600513          	li	a0,70
    1906:	d07ff0ef          	jal	ra,160c <LCD_ShowIntNum>
    190a:	937fe06f          	j	240 <__riscv_restore_10>
    190e:	40012a37          	lui	s4,0x40012
    1912:	8601a223          	sw	zero,-1948(gp) # 2000010c <t>
    1916:	800a0a13          	addi	s4,s4,-2048 # 40011800 <_eusrstack+0x20009800>
    191a:	86418993          	addi	s3,gp,-1948 # 2000010c <t>
    191e:	0c700a93          	li	s5,199
    1922:	4585                	li	a1,1
    1924:	8552                	mv	a0,s4
    1926:	17d000ef          	jal	ra,22a2 <GPIO_SetBits>
    192a:	4509                	li	a0,2
    192c:	0c6010ef          	jal	ra,29f2 <delay_ms>
    1930:	4585                	li	a1,1
    1932:	8552                	mv	a0,s4
    1934:	173000ef          	jal	ra,22a6 <GPIO_ResetBits>
    1938:	4509                	li	a0,2
    193a:	0b8010ef          	jal	ra,29f2 <delay_ms>
    193e:	0009a783          	lw	a5,0(s3)
    1942:	0785                	addi	a5,a5,1
    1944:	00f9a023          	sw	a5,0(s3)
    1948:	fcfadde3          	bge	s5,a5,1922 <Acquire_SensorDATE+0x284>
    194c:	bd21                	j	1764 <Acquire_SensorDATE+0xc6>
    194e:	66c1                	lui	a3,0x10
    1950:	00008637          	lui	a2,0x8
    1954:	fff68713          	addi	a4,a3,-1 # ffff <_data_lma+0x791b>
    1958:	4801                	li	a6,0
    195a:	47c1                	li	a5,16
    195c:	80068693          	addi	a3,a3,-2048
    1960:	38c60613          	addi	a2,a2,908 # 838c <ascii_3216+0x17d0>
    1964:	45a9                	li	a1,10
    1966:	4529                	li	a0,10
    1968:	c6fff0ef          	jal	ra,15d6 <LCD_ShowString>
    196c:	b5a5                	j	17d4 <Acquire_SensorDATE+0x136>
    196e:	00008637          	lui	a2,0x8
    1972:	47c1                	li	a5,16
    1974:	fff98713          	addi	a4,s3,-1
    1978:	80098693          	addi	a3,s3,-2048
    197c:	39c60613          	addi	a2,a2,924 # 839c <ascii_3216+0x17e0>
    1980:	45f9                	li	a1,30
    1982:	4529                	li	a0,10
    1984:	c53ff0ef          	jal	ra,15d6 <LCD_ShowString>
    1988:	bd41                	j	1818 <Acquire_SensorDATE+0x17a>
    198a:	00008637          	lui	a2,0x8
    198e:	47c1                	li	a5,16
    1990:	fff48713          	addi	a4,s1,-1
    1994:	80048693          	addi	a3,s1,-2048
    1998:	3ac60613          	addi	a2,a2,940 # 83ac <ascii_3216+0x17f0>
    199c:	03200593          	li	a1,50
    19a0:	4529                	li	a0,10
    19a2:	c35ff0ef          	jal	ra,15d6 <LCD_ShowString>
    19a6:	bd7d                	j	1864 <Acquire_SensorDATE+0x1c6>

000019a8 <Pub_Msgdata>:
    19a8:	889fe2ef          	jal	t0,230 <__riscv_save_0>
    19ac:	85a19503          	lh	a0,-1958(gp) # 20000102 <gyroz>
    19b0:	1101                	addi	sp,sp,-32
    19b2:	01a030ef          	jal	ra,49cc <__floatsisf>
    19b6:	ce2a                	sw	a0,28(sp)
    19b8:	85819503          	lh	a0,-1960(gp) # 20000100 <gyroy>
    19bc:	010030ef          	jal	ra,49cc <__floatsisf>
    19c0:	cc2a                	sw	a0,24(sp)
    19c2:	85619503          	lh	a0,-1962(gp) # 200000fe <gyrox>
    19c6:	006030ef          	jal	ra,49cc <__floatsisf>
    19ca:	84c1a783          	lw	a5,-1972(gp) # 200000f4 <Water_Level>
    19ce:	48f2                	lw	a7,28(sp)
    19d0:	4862                	lw	a6,24(sp)
    19d2:	8501a603          	lw	a2,-1968(gp) # 200000f8 <Water_Pressure>
    19d6:	20000737          	lui	a4,0x20000
    19da:	200006b7          	lui	a3,0x20000
    19de:	01070713          	addi	a4,a4,16 # 20000010 <lat>
    19e2:	02468693          	addi	a3,a3,36 # 20000024 <lon>
    19e6:	c03e                	sw	a5,0(sp)
    19e8:	88018593          	addi	a1,gp,-1920 # 20000128 <Card_ID>
    19ec:	87aa                	mv	a5,a0
    19ee:	8a818513          	addi	a0,gp,-1880 # 20000150 <send_jason>
    19f2:	917fe0ef          	jal	ra,308 <Mqtt_Savedata>
    19f6:	000085b7          	lui	a1,0x8
    19fa:	862a                	mv	a2,a0
    19fc:	84a18a23          	sb	a0,-1964(gp) # 200000fc <data_len>
    1a00:	3c458593          	addi	a1,a1,964 # 83c4 <ascii_3216+0x1808>
    1a04:	89c18513          	addi	a0,gp,-1892 # 20000144 <datastr>
    1a08:	4e0030ef          	jal	ra,4ee8 <siprintf>
    1a0c:	00008537          	lui	a0,0x8
    1a10:	89c18593          	addi	a1,gp,-1892 # 20000144 <datastr>
    1a14:	3c850513          	addi	a0,a0,968 # 83c8 <ascii_3216+0x180c>
    1a18:	3b0030ef          	jal	ra,4dc8 <iprintf>
    1a1c:	06400513          	li	a0,100
    1a20:	7d3000ef          	jal	ra,29f2 <delay_ms>
    1a24:	8a818513          	addi	a0,gp,-1880 # 20000150 <send_jason>
    1a28:	23d9                	jal	1fee <Uart2_SendStr>
    1a2a:	000084b7          	lui	s1,0x8
    1a2e:	3e848593          	addi	a1,s1,1000 # 83e8 <ascii_3216+0x182c>
    1a32:	97018513          	addi	a0,gp,-1680 # 20000218 <RxBuffer2>
    1a36:	50a030ef          	jal	ra,4f40 <strstr>
    1a3a:	86a1a023          	sw	a0,-1952(gp) # 20000108 <stry>
    1a3e:	86018413          	addi	s0,gp,-1952 # 20000108 <stry>
    1a42:	401c                	lw	a5,0(s0)
    1a44:	cb91                	beqz	a5,1a58 <Pub_Msgdata+0xb0>
    1a46:	3e800513          	li	a0,1000
    1a4a:	7a9000ef          	jal	ra,29f2 <delay_ms>
    1a4e:	4509                	li	a0,2
    1a50:	23c1                	jal	2010 <Clear_Buffer>
    1a52:	6105                	addi	sp,sp,32
    1a54:	801fe06f          	j	254 <__riscv_restore_0>
    1a58:	3e848593          	addi	a1,s1,1000
    1a5c:	97018513          	addi	a0,gp,-1680 # 20000218 <RxBuffer2>
    1a60:	4e0030ef          	jal	ra,4f40 <strstr>
    1a64:	c008                	sw	a0,0(s0)
    1a66:	bff1                	j	1a42 <Pub_Msgdata+0x9a>

00001a68 <main>:
    1a68:	faefe2ef          	jal	t0,216 <__riscv_save_4>
    1a6c:	4509                	li	a0,2
    1a6e:	2d1000ef          	jal	ra,253e <NVIC_PriorityGroupConfig>
    1a72:	6471                	lui	s0,0x1c
    1a74:	6f1000ef          	jal	ra,2964 <Delay_Init>
    1a78:	20040513          	addi	a0,s0,512 # 1c200 <_data_lma+0x13b1c>
    1a7c:	245d                	jal	1d22 <USART1_Init>
    1a7e:	20040513          	addi	a0,s0,512
    1a82:	2e3d                	jal	1dc0 <USART2_Init>
    1a84:	6509                	lui	a0,0x2
    1a86:	58050513          	addi	a0,a0,1408 # 2580 <NVIC_Init+0x3c>
    1a8a:	2901                	jal	1e9a <USART3_Init>
    1a8c:	8dcff0ef          	jal	ra,b68 <MPU_Init>
    1a90:	ed05                	bnez	a0,1ac8 <main+0x60>
    1a92:	4911                	li	s2,4
    1a94:	200009b7          	lui	s3,0x20000
    1a98:	20000a37          	lui	s4,0x20000
    1a9c:	c03ff0ef          	jal	ra,169e <Acquire_SensorDATE>
    1aa0:	85c1a783          	lw	a5,-1956(gp) # 20000104 <q>
    1aa4:	85c18413          	addi	s0,gp,-1956 # 20000104 <q>
    1aa8:	00f95c63          	bge	s2,a5,1ac0 <main+0x58>
    1aac:	02498593          	addi	a1,s3,36 # 20000024 <lon>
    1ab0:	010a0513          	addi	a0,s4,16 # 20000010 <lat>
    1ab4:	8e7fe0ef          	jal	ra,39a <Read_GPS>
    1ab8:	ef1ff0ef          	jal	ra,19a8 <Pub_Msgdata>
    1abc:	00042023          	sw	zero,0(s0)
    1ac0:	401c                	lw	a5,0(s0)
    1ac2:	0785                	addi	a5,a5,1
    1ac4:	c01c                	sw	a5,0(s0)
    1ac6:	bfd9                	j	1a9c <main+0x34>
    1ac8:	0c800513          	li	a0,200
    1acc:	6f9000ef          	jal	ra,29c4 <Delay_Ms>
    1ad0:	bf75                	j	1a8c <main+0x24>

00001ad2 <SystemInit>:
    1ad2:	400217b7          	lui	a5,0x40021
    1ad6:	4398                	lw	a4,0(a5)
    1ad8:	f8ff06b7          	lui	a3,0xf8ff0
    1adc:	1141                	addi	sp,sp,-16
    1ade:	00176713          	ori	a4,a4,1
    1ae2:	c398                	sw	a4,0(a5)
    1ae4:	43d8                	lw	a4,4(a5)
    1ae6:	00020637          	lui	a2,0x20
    1aea:	8f75                	and	a4,a4,a3
    1aec:	c3d8                	sw	a4,4(a5)
    1aee:	4398                	lw	a4,0(a5)
    1af0:	fef706b7          	lui	a3,0xfef70
    1af4:	16fd                	addi	a3,a3,-1
    1af6:	8f75                	and	a4,a4,a3
    1af8:	c398                	sw	a4,0(a5)
    1afa:	4398                	lw	a4,0(a5)
    1afc:	fffc06b7          	lui	a3,0xfffc0
    1b00:	16fd                	addi	a3,a3,-1
    1b02:	8f75                	and	a4,a4,a3
    1b04:	c398                	sw	a4,0(a5)
    1b06:	43d8                	lw	a4,4(a5)
    1b08:	ff8106b7          	lui	a3,0xff810
    1b0c:	16fd                	addi	a3,a3,-1
    1b0e:	8f75                	and	a4,a4,a3
    1b10:	c3d8                	sw	a4,4(a5)
    1b12:	4398                	lw	a4,0(a5)
    1b14:	ec0006b7          	lui	a3,0xec000
    1b18:	16fd                	addi	a3,a3,-1
    1b1a:	8f75                	and	a4,a4,a3
    1b1c:	c398                	sw	a4,0(a5)
    1b1e:	00ff0737          	lui	a4,0xff0
    1b22:	c798                	sw	a4,8(a5)
    1b24:	0207a623          	sw	zero,44(a5) # 4002102c <_eusrstack+0x2001902c>
    1b28:	c402                	sw	zero,8(sp)
    1b2a:	c602                	sw	zero,12(sp)
    1b2c:	4398                	lw	a4,0(a5)
    1b2e:	66c1                	lui	a3,0x10
    1b30:	8f55                	or	a4,a4,a3
    1b32:	c398                	sw	a4,0(a5)
    1b34:	400216b7          	lui	a3,0x40021
    1b38:	6705                	lui	a4,0x1
    1b3a:	429c                	lw	a5,0(a3)
    1b3c:	8ff1                	and	a5,a5,a2
    1b3e:	c63e                	sw	a5,12(sp)
    1b40:	47a2                	lw	a5,8(sp)
    1b42:	0785                	addi	a5,a5,1
    1b44:	c43e                	sw	a5,8(sp)
    1b46:	47b2                	lw	a5,12(sp)
    1b48:	e781                	bnez	a5,1b50 <SystemInit+0x7e>
    1b4a:	47a2                	lw	a5,8(sp)
    1b4c:	fee797e3          	bne	a5,a4,1b3a <SystemInit+0x68>
    1b50:	400217b7          	lui	a5,0x40021
    1b54:	439c                	lw	a5,0(a5)
    1b56:	00e79713          	slli	a4,a5,0xe
    1b5a:	06075763          	bgez	a4,1bc8 <SystemInit+0xf6>
    1b5e:	4785                	li	a5,1
    1b60:	c63e                	sw	a5,12(sp)
    1b62:	4732                	lw	a4,12(sp)
    1b64:	4785                	li	a5,1
    1b66:	04f71f63          	bne	a4,a5,1bc4 <SystemInit+0xf2>
    1b6a:	400217b7          	lui	a5,0x40021
    1b6e:	43d8                	lw	a4,4(a5)
    1b70:	ffc106b7          	lui	a3,0xffc10
    1b74:	16fd                	addi	a3,a3,-1
    1b76:	c3d8                	sw	a4,4(a5)
    1b78:	43d8                	lw	a4,4(a5)
    1b7a:	c3d8                	sw	a4,4(a5)
    1b7c:	43d8                	lw	a4,4(a5)
    1b7e:	40076713          	ori	a4,a4,1024
    1b82:	c3d8                	sw	a4,4(a5)
    1b84:	43d8                	lw	a4,4(a5)
    1b86:	8f75                	and	a4,a4,a3
    1b88:	c3d8                	sw	a4,4(a5)
    1b8a:	43d8                	lw	a4,4(a5)
    1b8c:	002906b7          	lui	a3,0x290
    1b90:	8f55                	or	a4,a4,a3
    1b92:	c3d8                	sw	a4,4(a5)
    1b94:	4398                	lw	a4,0(a5)
    1b96:	010006b7          	lui	a3,0x1000
    1b9a:	8f55                	or	a4,a4,a3
    1b9c:	c398                	sw	a4,0(a5)
    1b9e:	4398                	lw	a4,0(a5)
    1ba0:	00671693          	slli	a3,a4,0x6
    1ba4:	fe06dde3          	bgez	a3,1b9e <SystemInit+0xcc>
    1ba8:	43d8                	lw	a4,4(a5)
    1baa:	400216b7          	lui	a3,0x40021
    1bae:	9b71                	andi	a4,a4,-4
    1bb0:	c3d8                	sw	a4,4(a5)
    1bb2:	43d8                	lw	a4,4(a5)
    1bb4:	00276713          	ori	a4,a4,2
    1bb8:	c3d8                	sw	a4,4(a5)
    1bba:	4721                	li	a4,8
    1bbc:	42dc                	lw	a5,4(a3)
    1bbe:	8bb1                	andi	a5,a5,12
    1bc0:	fee79ee3          	bne	a5,a4,1bbc <SystemInit+0xea>
    1bc4:	0141                	addi	sp,sp,16
    1bc6:	8082                	ret
    1bc8:	c602                	sw	zero,12(sp)
    1bca:	bf61                	j	1b62 <SystemInit+0x90>

00001bcc <ENABLE_TIM>:
    1bcc:	e64fe2ef          	jal	t0,230 <__riscv_save_0>
    1bd0:	4581                	li	a1,0
    1bd2:	40000537          	lui	a0,0x40000
    1bd6:	3f1000ef          	jal	ra,27c6 <TIM_SetCounter>
    1bda:	4585                	li	a1,1
    1bdc:	40000537          	lui	a0,0x40000
    1be0:	86019523          	sh	zero,-1942(gp) # 20000112 <count>
    1be4:	3cb000ef          	jal	ra,27ae <TIM_Cmd>
    1be8:	e6cfe06f          	j	254 <__riscv_restore_0>

00001bec <DISABLE_TIM>:
    1bec:	e44fe2ef          	jal	t0,230 <__riscv_save_0>
    1bf0:	4581                	li	a1,0
    1bf2:	40000537          	lui	a0,0x40000
    1bf6:	3b9000ef          	jal	ra,27ae <TIM_Cmd>
    1bfa:	e5afe06f          	j	254 <__riscv_restore_0>

00001bfe <Ultrasoniclength>:
    1bfe:	e0afe2ef          	jal	t0,208 <__riscv_save_10>
    1c02:	000087b7          	lui	a5,0x8
    1c06:	4007aa03          	lw	s4,1024(a5) # 8400 <ascii_3216+0x1844>
    1c0a:	4047aa83          	lw	s5,1028(a5)
    1c0e:	40011437          	lui	s0,0x40011
    1c12:	4915                	li	s2,5
    1c14:	00000493          	li	s1,0
    1c18:	c0040413          	addi	s0,s0,-1024 # 40010c00 <_eusrstack+0x20008c00>
    1c1c:	4c05                	li	s8,1
    1c1e:	3e800b13          	li	s6,1000
    1c22:	f7aff0ef          	jal	ra,139c <Start_Trig>
    1c26:	4589                	li	a1,2
    1c28:	8522                	mv	a0,s0
    1c2a:	25bd                	jal	2298 <GPIO_ReadInputDataBit>
    1c2c:	dd6d                	beqz	a0,1c26 <Ultrasoniclength+0x28>
    1c2e:	3f79                	jal	1bcc <ENABLE_TIM>
    1c30:	4589                	li	a1,2
    1c32:	8522                	mv	a0,s0
    1c34:	2595                	jal	2298 <GPIO_ReadInputDataBit>
    1c36:	ff850de3          	beq	a0,s8,1c30 <Ultrasoniclength+0x32>
    1c3a:	3f4d                	jal	1bec <DISABLE_TIM>
    1c3c:	40000537          	lui	a0,0x40000
    1c40:	38b000ef          	jal	ra,27ca <TIM_GetCounter>
    1c44:	86a18993          	addi	s3,gp,-1942 # 20000112 <count>
    1c48:	0009d783          	lhu	a5,0(s3)
    1c4c:	197d                	addi	s2,s2,-1
    1c4e:	036787b3          	mul	a5,a5,s6
    1c52:	953e                	add	a0,a0,a5
    1c54:	020020ef          	jal	ra,3c74 <__floatunsidf>
    1c58:	8652                	mv	a2,s4
    1c5a:	86d6                	mv	a3,s5
    1c5c:	4d2010ef          	jal	ra,312e <__divdf3>
    1c60:	6df020ef          	jal	ra,4b3e <__truncdfsf2>
    1c64:	85aa                	mv	a1,a0
    1c66:	8526                	mv	a0,s1
    1c68:	074020ef          	jal	ra,3cdc <__addsf3>
    1c6c:	4581                	li	a1,0
    1c6e:	84aa                	mv	s1,a0
    1c70:	40000537          	lui	a0,0x40000
    1c74:	353000ef          	jal	ra,27c6 <TIM_SetCounter>
    1c78:	06400513          	li	a0,100
    1c7c:	00099023          	sh	zero,0(s3)
    1c80:	545000ef          	jal	ra,29c4 <Delay_Ms>
    1c84:	f8091fe3          	bnez	s2,1c22 <Ultrasoniclength+0x24>
    1c88:	000087b7          	lui	a5,0x8
    1c8c:	3807a583          	lw	a1,896(a5) # 8380 <ascii_3216+0x17c4>
    1c90:	8526                	mv	a0,s1
    1c92:	3b4020ef          	jal	ra,4046 <__divsf3>
    1c96:	daafe06f          	j	240 <__riscv_restore_10>

00001c9a <TIM2_IRQHandler>:
    1c9a:	4585                	li	a1,1
    1c9c:	40000537          	lui	a0,0x40000
    1ca0:	32f000ef          	jal	ra,27ce <TIM_GetITStatus>
    1ca4:	c919                	beqz	a0,1cba <TIM2_IRQHandler+0x20>
    1ca6:	4585                	li	a1,1
    1ca8:	40000537          	lui	a0,0x40000
    1cac:	33b000ef          	jal	ra,27e6 <TIM_ClearITPendingBit>
    1cb0:	86a18793          	addi	a5,gp,-1942 # 20000112 <count>
    1cb4:	239a                	lhu	a4,0(a5)
    1cb6:	0705                	addi	a4,a4,1
    1cb8:	a39a                	sh	a4,0(a5)
    1cba:	30200073          	mret

00001cbe <_write>:
    1cbe:	d58fe2ef          	jal	t0,216 <__riscv_save_4>
    1cc2:	400044b7          	lui	s1,0x40004
    1cc6:	89ae                	mv	s3,a1
    1cc8:	8932                	mv	s2,a2
    1cca:	4401                	li	s0,0
    1ccc:	40048493          	addi	s1,s1,1024 # 40004400 <_eusrstack+0x1fffc400>
    1cd0:	01244563          	blt	s0,s2,1cda <_write+0x1c>
    1cd4:	854a                	mv	a0,s2
    1cd6:	d74fe06f          	j	24a <__riscv_restore_4>
    1cda:	04000593          	li	a1,64
    1cde:	8526                	mv	a0,s1
    1ce0:	42b000ef          	jal	ra,290a <USART_GetFlagStatus>
    1ce4:	d97d                	beqz	a0,1cda <_write+0x1c>
    1ce6:	008987b3          	add	a5,s3,s0
    1cea:	00078583          	lb	a1,0(a5)
    1cee:	8526                	mv	a0,s1
    1cf0:	0405                	addi	s0,s0,1
    1cf2:	05c2                	slli	a1,a1,0x10
    1cf4:	81c1                	srli	a1,a1,0x10
    1cf6:	405000ef          	jal	ra,28fa <USART_SendData>
    1cfa:	bfd9                	j	1cd0 <_write+0x12>

00001cfc <_sbrk>:
    1cfc:	82818713          	addi	a4,gp,-2008 # 200000d0 <curbrk.5226>
    1d00:	431c                	lw	a5,0(a4)
    1d02:	b0418693          	addi	a3,gp,-1276 # 200003ac <_ebss>
    1d06:	953e                	add	a0,a0,a5
    1d08:	00d56b63          	bltu	a0,a3,1d1e <_sbrk+0x22>
    1d0c:	200086b7          	lui	a3,0x20008
    1d10:	80068693          	addi	a3,a3,-2048 # 20007800 <_heap_end>
    1d14:	00a6e563          	bltu	a3,a0,1d1e <_sbrk+0x22>
    1d18:	c308                	sw	a0,0(a4)
    1d1a:	853e                	mv	a0,a5
    1d1c:	8082                	ret
    1d1e:	57fd                	li	a5,-1
    1d20:	bfed                	j	1d1a <_sbrk+0x1e>

00001d22 <USART1_Init>:
    1d22:	d0efe2ef          	jal	t0,230 <__riscv_save_0>
    1d26:	84aa                	mv	s1,a0
    1d28:	6511                	lui	a0,0x4
    1d2a:	7179                	addi	sp,sp,-48
    1d2c:	4585                	li	a1,1
    1d2e:	0511                	addi	a0,a0,4
    1d30:	ca02                	sw	zero,20(sp)
    1d32:	cc02                	sw	zero,24(sp)
    1d34:	ce02                	sw	zero,28(sp)
    1d36:	d002                	sw	zero,32(sp)
    1d38:	d202                	sw	zero,36(sp)
    1d3a:	d402                	sw	zero,40(sp)
    1d3c:	d602                	sw	zero,44(sp)
    1d3e:	c602                	sw	zero,12(sp)
    1d40:	c802                	sw	zero,16(sp)
    1d42:	21f000ef          	jal	ra,2760 <RCC_APB2PeriphClockCmd>
    1d46:	20000793          	li	a5,512
    1d4a:	82fc                	sh	a5,20(sp)
    1d4c:	40011437          	lui	s0,0x40011
    1d50:	478d                	li	a5,3
    1d52:	cc3e                	sw	a5,24(sp)
    1d54:	084c                	addi	a1,sp,20
    1d56:	47e1                	li	a5,24
    1d58:	80040513          	addi	a0,s0,-2048 # 40010800 <_eusrstack+0x20008800>
    1d5c:	ce3e                	sw	a5,28(sp)
    1d5e:	29ad                	jal	21d8 <GPIO_Init>
    1d60:	40000793          	li	a5,1024
    1d64:	82fc                	sh	a5,20(sp)
    1d66:	084c                	addi	a1,sp,20
    1d68:	4791                	li	a5,4
    1d6a:	80040513          	addi	a0,s0,-2048
    1d6e:	ce3e                	sw	a5,28(sp)
    1d70:	40014437          	lui	s0,0x40014
    1d74:	2195                	jal	21d8 <GPIO_Init>
    1d76:	000c07b7          	lui	a5,0xc0
    1d7a:	100c                	addi	a1,sp,32
    1d7c:	80040513          	addi	a0,s0,-2048 # 40013800 <_eusrstack+0x2000b800>
    1d80:	d43e                	sw	a5,40(sp)
    1d82:	d026                	sw	s1,32(sp)
    1d84:	d202                	sw	zero,36(sp)
    1d86:	02011623          	sh	zero,44(sp)
    1d8a:	269000ef          	jal	ra,27f2 <USART_Init>
    1d8e:	4605                	li	a2,1
    1d90:	52500593          	li	a1,1317
    1d94:	80040513          	addi	a0,s0,-2048
    1d98:	32d000ef          	jal	ra,28c4 <USART_ITConfig>
    1d9c:	23500793          	li	a5,565
    1da0:	867c                	sh	a5,12(sp)
    1da2:	4789                	li	a5,2
    1da4:	875c                	sb	a5,14(sp)
    1da6:	0068                	addi	a0,sp,12
    1da8:	4785                	li	a5,1
    1daa:	c83e                	sw	a5,16(sp)
    1dac:	798000ef          	jal	ra,2544 <NVIC_Init>
    1db0:	4585                	li	a1,1
    1db2:	80040513          	addi	a0,s0,-2048
    1db6:	2f9000ef          	jal	ra,28ae <USART_Cmd>
    1dba:	6145                	addi	sp,sp,48
    1dbc:	c98fe06f          	j	254 <__riscv_restore_0>

00001dc0 <USART2_Init>:
    1dc0:	c70fe2ef          	jal	t0,230 <__riscv_save_0>
    1dc4:	7179                	addi	sp,sp,-48
    1dc6:	84aa                	mv	s1,a0
    1dc8:	4585                	li	a1,1
    1dca:	00020537          	lui	a0,0x20
    1dce:	ca02                	sw	zero,20(sp)
    1dd0:	cc02                	sw	zero,24(sp)
    1dd2:	ce02                	sw	zero,28(sp)
    1dd4:	d002                	sw	zero,32(sp)
    1dd6:	d202                	sw	zero,36(sp)
    1dd8:	d402                	sw	zero,40(sp)
    1dda:	d602                	sw	zero,44(sp)
    1ddc:	c602                	sw	zero,12(sp)
    1dde:	c802                	sw	zero,16(sp)
    1de0:	19f000ef          	jal	ra,277e <RCC_APB1PeriphClockCmd>
    1de4:	4585                	li	a1,1
    1de6:	4511                	li	a0,4
    1de8:	179000ef          	jal	ra,2760 <RCC_APB2PeriphClockCmd>
    1dec:	4791                	li	a5,4
    1dee:	82fc                	sh	a5,20(sp)
    1df0:	40011437          	lui	s0,0x40011
    1df4:	478d                	li	a5,3
    1df6:	cc3e                	sw	a5,24(sp)
    1df8:	084c                	addi	a1,sp,20
    1dfa:	47e1                	li	a5,24
    1dfc:	80040513          	addi	a0,s0,-2048 # 40010800 <_eusrstack+0x20008800>
    1e00:	ce3e                	sw	a5,28(sp)
    1e02:	2ed9                	jal	21d8 <GPIO_Init>
    1e04:	47a1                	li	a5,8
    1e06:	82fc                	sh	a5,20(sp)
    1e08:	084c                	addi	a1,sp,20
    1e0a:	4791                	li	a5,4
    1e0c:	80040513          	addi	a0,s0,-2048
    1e10:	ce3e                	sw	a5,28(sp)
    1e12:	40004437          	lui	s0,0x40004
    1e16:	26c9                	jal	21d8 <GPIO_Init>
    1e18:	000c07b7          	lui	a5,0xc0
    1e1c:	100c                	addi	a1,sp,32
    1e1e:	40040513          	addi	a0,s0,1024 # 40004400 <_eusrstack+0x1fffc400>
    1e22:	d43e                	sw	a5,40(sp)
    1e24:	d026                	sw	s1,32(sp)
    1e26:	d202                	sw	zero,36(sp)
    1e28:	02011623          	sh	zero,44(sp)
    1e2c:	1c7000ef          	jal	ra,27f2 <USART_Init>
    1e30:	4605                	li	a2,1
    1e32:	52500593          	li	a1,1317
    1e36:	40040513          	addi	a0,s0,1024
    1e3a:	28b000ef          	jal	ra,28c4 <USART_ITConfig>
    1e3e:	13600793          	li	a5,310
    1e42:	867c                	sh	a5,12(sp)
    1e44:	4785                	li	a5,1
    1e46:	875c                	sb	a5,14(sp)
    1e48:	0068                	addi	a0,sp,12
    1e4a:	4785                	li	a5,1
    1e4c:	c83e                	sw	a5,16(sp)
    1e4e:	2ddd                	jal	2544 <NVIC_Init>
    1e50:	4585                	li	a1,1
    1e52:	40040513          	addi	a0,s0,1024
    1e56:	259000ef          	jal	ra,28ae <USART_Cmd>
    1e5a:	6145                	addi	sp,sp,48
    1e5c:	bf8fe06f          	j	254 <__riscv_restore_0>

00001e60 <USART2_IRQHandler>:
    1e60:	1141                	addi	sp,sp,-16
    1e62:	c622                	sw	s0,12(sp)
    1e64:	40004437          	lui	s0,0x40004
    1e68:	52500593          	li	a1,1317
    1e6c:	40040513          	addi	a0,s0,1024 # 40004400 <_eusrstack+0x1fffc400>
    1e70:	2a5000ef          	jal	ra,2914 <USART_GetITStatus>
    1e74:	cd19                	beqz	a0,1e92 <USART2_IRQHandler+0x32>
    1e76:	40040513          	addi	a0,s0,1024
    1e7a:	289000ef          	jal	ra,2902 <USART_ReceiveData>
    1e7e:	86c18713          	addi	a4,gp,-1940 # 20000114 <Rxcouter2>
    1e82:	2314                	lbu	a3,0(a4)
    1e84:	00168793          	addi	a5,a3,1
    1e88:	a31c                	sb	a5,0(a4)
    1e8a:	97018793          	addi	a5,gp,-1680 # 20000218 <RxBuffer2>
    1e8e:	97b6                	add	a5,a5,a3
    1e90:	a388                	sb	a0,0(a5)
    1e92:	4432                	lw	s0,12(sp)
    1e94:	0141                	addi	sp,sp,16
    1e96:	30200073          	mret

00001e9a <USART3_Init>:
    1e9a:	b96fe2ef          	jal	t0,230 <__riscv_save_0>
    1e9e:	7179                	addi	sp,sp,-48
    1ea0:	84aa                	mv	s1,a0
    1ea2:	4585                	li	a1,1
    1ea4:	00040537          	lui	a0,0x40
    1ea8:	ca02                	sw	zero,20(sp)
    1eaa:	cc02                	sw	zero,24(sp)
    1eac:	ce02                	sw	zero,28(sp)
    1eae:	d002                	sw	zero,32(sp)
    1eb0:	d202                	sw	zero,36(sp)
    1eb2:	d402                	sw	zero,40(sp)
    1eb4:	d602                	sw	zero,44(sp)
    1eb6:	c602                	sw	zero,12(sp)
    1eb8:	c802                	sw	zero,16(sp)
    1eba:	0c5000ef          	jal	ra,277e <RCC_APB1PeriphClockCmd>
    1ebe:	4585                	li	a1,1
    1ec0:	02000513          	li	a0,32
    1ec4:	09d000ef          	jal	ra,2760 <RCC_APB2PeriphClockCmd>
    1ec8:	4585                	li	a1,1
    1eca:	4505                	li	a0,1
    1ecc:	095000ef          	jal	ra,2760 <RCC_APB2PeriphClockCmd>
    1ed0:	00140537          	lui	a0,0x140
    1ed4:	4585                	li	a1,1
    1ed6:	03050513          	addi	a0,a0,48 # 140030 <_data_lma+0x13794c>
    1eda:	2ec1                	jal	22aa <GPIO_PinRemapConfig>
    1edc:	10000793          	li	a5,256
    1ee0:	82fc                	sh	a5,20(sp)
    1ee2:	40011437          	lui	s0,0x40011
    1ee6:	478d                	li	a5,3
    1ee8:	cc3e                	sw	a5,24(sp)
    1eea:	084c                	addi	a1,sp,20
    1eec:	47e1                	li	a5,24
    1eee:	40040513          	addi	a0,s0,1024 # 40011400 <_eusrstack+0x20009400>
    1ef2:	ce3e                	sw	a5,28(sp)
    1ef4:	24d5                	jal	21d8 <GPIO_Init>
    1ef6:	20000793          	li	a5,512
    1efa:	82fc                	sh	a5,20(sp)
    1efc:	084c                	addi	a1,sp,20
    1efe:	4791                	li	a5,4
    1f00:	40040513          	addi	a0,s0,1024
    1f04:	ce3e                	sw	a5,28(sp)
    1f06:	40005437          	lui	s0,0x40005
    1f0a:	24f9                	jal	21d8 <GPIO_Init>
    1f0c:	000c07b7          	lui	a5,0xc0
    1f10:	100c                	addi	a1,sp,32
    1f12:	80040513          	addi	a0,s0,-2048 # 40004800 <_eusrstack+0x1fffc800>
    1f16:	d43e                	sw	a5,40(sp)
    1f18:	d026                	sw	s1,32(sp)
    1f1a:	d202                	sw	zero,36(sp)
    1f1c:	02011623          	sh	zero,44(sp)
    1f20:	0d3000ef          	jal	ra,27f2 <USART_Init>
    1f24:	4605                	li	a2,1
    1f26:	52500593          	li	a1,1317
    1f2a:	80040513          	addi	a0,s0,-2048
    1f2e:	197000ef          	jal	ra,28c4 <USART_ITConfig>
    1f32:	23700793          	li	a5,567
    1f36:	867c                	sh	a5,12(sp)
    1f38:	4789                	li	a5,2
    1f3a:	875c                	sb	a5,14(sp)
    1f3c:	0068                	addi	a0,sp,12
    1f3e:	4785                	li	a5,1
    1f40:	c83e                	sw	a5,16(sp)
    1f42:	2509                	jal	2544 <NVIC_Init>
    1f44:	4585                	li	a1,1
    1f46:	80040513          	addi	a0,s0,-2048
    1f4a:	165000ef          	jal	ra,28ae <USART_Cmd>
    1f4e:	6145                	addi	sp,sp,48
    1f50:	b04fe06f          	j	254 <__riscv_restore_0>

00001f54 <USART3_IRQHandler>:
    1f54:	1141                	addi	sp,sp,-16
    1f56:	c622                	sw	s0,12(sp)
    1f58:	40005437          	lui	s0,0x40005
    1f5c:	52500593          	li	a1,1317
    1f60:	80040513          	addi	a0,s0,-2048 # 40004800 <_eusrstack+0x1fffc800>
    1f64:	1b1000ef          	jal	ra,2914 <USART_GetITStatus>
    1f68:	cd19                	beqz	a0,1f86 <USART3_IRQHandler+0x32>
    1f6a:	80040513          	addi	a0,s0,-2048
    1f6e:	195000ef          	jal	ra,2902 <USART_ReceiveData>
    1f72:	86d18713          	addi	a4,gp,-1939 # 20000115 <Rxcouter3>
    1f76:	2314                	lbu	a3,0(a4)
    1f78:	00168793          	addi	a5,a3,1
    1f7c:	a31c                	sb	a5,0(a4)
    1f7e:	a3818793          	addi	a5,gp,-1480 # 200002e0 <RxBuffer3>
    1f82:	97b6                	add	a5,a5,a3
    1f84:	a388                	sb	a0,0(a5)
    1f86:	4432                	lw	s0,12(sp)
    1f88:	0141                	addi	sp,sp,16
    1f8a:	30200073          	mret

00001f8e <USART1_IRQHandler>:
    1f8e:	1141                	addi	sp,sp,-16
    1f90:	c622                	sw	s0,12(sp)
    1f92:	40014437          	lui	s0,0x40014
    1f96:	52500593          	li	a1,1317
    1f9a:	80040513          	addi	a0,s0,-2048 # 40013800 <_eusrstack+0x2000b800>
    1f9e:	177000ef          	jal	ra,2914 <USART_GetITStatus>
    1fa2:	c915                	beqz	a0,1fd6 <USART1_IRQHandler+0x48>
    1fa4:	80040513          	addi	a0,s0,-2048
    1fa8:	15b000ef          	jal	ra,2902 <USART_ReceiveData>
    1fac:	86e18793          	addi	a5,gp,-1938 # 20000116 <ucCnt>
    1fb0:	2394                	lbu	a3,0(a5)
    1fb2:	0ff57513          	andi	a0,a0,255
    1fb6:	00168713          	addi	a4,a3,1
    1fba:	a398                	sb	a4,0(a5)
    1fbc:	a9c18713          	addi	a4,gp,-1380 # 20000344 <ucRxData>
    1fc0:	9736                	add	a4,a4,a3
    1fc2:	a308                	sb	a0,0(a4)
    1fc4:	06d00713          	li	a4,109
    1fc8:	00e51763          	bne	a0,a4,1fd6 <USART1_IRQHandler+0x48>
    1fcc:	4685                	li	a3,1
    1fce:	86d187a3          	sb	a3,-1937(gp) # 20000117 <ucRxFinish>
    1fd2:	00078023          	sb	zero,0(a5) # c0000 <_data_lma+0xb791c>
    1fd6:	40014537          	lui	a0,0x40014
    1fda:	52500593          	li	a1,1317
    1fde:	80050513          	addi	a0,a0,-2048 # 40013800 <_eusrstack+0x2000b800>
    1fe2:	16f000ef          	jal	ra,2950 <USART_ClearITPendingBit>
    1fe6:	4432                	lw	s0,12(sp)
    1fe8:	0141                	addi	sp,sp,16
    1fea:	30200073          	mret

00001fee <Uart2_SendStr>:
    1fee:	400046b7          	lui	a3,0x40004
    1ff2:	00050783          	lb	a5,0(a0)
    1ff6:	e391                	bnez	a5,1ffa <Uart2_SendStr+0xc>
    1ff8:	8082                	ret
    1ffa:	4006d703          	lhu	a4,1024(a3) # 40004400 <_eusrstack+0x1fffc400>
    1ffe:	04077713          	andi	a4,a4,64
    2002:	df65                	beqz	a4,1ffa <Uart2_SendStr+0xc>
    2004:	0ff7f793          	andi	a5,a5,255
    2008:	40f69223          	sh	a5,1028(a3)
    200c:	0505                	addi	a0,a0,1
    200e:	b7d5                	j	1ff2 <Uart2_SendStr+0x4>

00002010 <Clear_Buffer>:
    2010:	4789                	li	a5,2
    2012:	02f51663          	bne	a0,a5,203e <Clear_Buffer+0x2e>
    2016:	86c1c583          	lbu	a1,-1940(gp) # 20000114 <Rxcouter2>
    201a:	4701                	li	a4,0
    201c:	86c18793          	addi	a5,gp,-1940 # 20000114 <Rxcouter2>
    2020:	97018693          	addi	a3,gp,-1680 # 20000218 <RxBuffer2>
    2024:	0ff77613          	andi	a2,a4,255
    2028:	00b66563          	bltu	a2,a1,2032 <Clear_Buffer+0x22>
    202c:	00078023          	sb	zero,0(a5)
    2030:	8082                	ret
    2032:	00e68633          	add	a2,a3,a4
    2036:	00060023          	sb	zero,0(a2) # 20000 <_data_lma+0x1791c>
    203a:	0705                	addi	a4,a4,1
    203c:	b7e5                	j	2024 <Clear_Buffer+0x14>
    203e:	478d                	li	a5,3
    2040:	fef518e3          	bne	a0,a5,2030 <Clear_Buffer+0x20>
    2044:	86d1c583          	lbu	a1,-1939(gp) # 20000115 <Rxcouter3>
    2048:	4701                	li	a4,0
    204a:	86d18793          	addi	a5,gp,-1939 # 20000115 <Rxcouter3>
    204e:	a3818693          	addi	a3,gp,-1480 # 200002e0 <RxBuffer3>
    2052:	0ff77613          	andi	a2,a4,255
    2056:	fcb67be3          	bgeu	a2,a1,202c <Clear_Buffer+0x1c>
    205a:	00e68633          	add	a2,a3,a4
    205e:	00060023          	sb	zero,0(a2)
    2062:	0705                	addi	a4,a4,1
    2064:	b7fd                	j	2052 <Clear_Buffer+0x42>
    2066:	a001                	j	2066 <Clear_Buffer+0x56>
    2068:	a001                	j	2068 <Clear_Buffer+0x58>

0000206a <Ecall_M_Mode_Handler>:
    206a:	a001                	j	206a <Ecall_M_Mode_Handler>

0000206c <Ecall_U_Mode_Handler>:
    206c:	a001                	j	206c <Ecall_U_Mode_Handler>

0000206e <Break_Point_Handler>:
    206e:	a001                	j	206e <Break_Point_Handler>

00002070 <SysTick_Handler>:
    2070:	a001                	j	2070 <SysTick_Handler>

00002072 <SW_Handler>:
    2072:	a001                	j	2072 <SW_Handler>

00002074 <WWDG_IRQHandler>:
    2074:	a001                	j	2074 <WWDG_IRQHandler>

00002076 <PVD_IRQHandler>:
    2076:	a001                	j	2076 <PVD_IRQHandler>

00002078 <TAMPER_IRQHandler>:
    2078:	a001                	j	2078 <TAMPER_IRQHandler>

0000207a <RTC_IRQHandler>:
    207a:	a001                	j	207a <RTC_IRQHandler>

0000207c <FLASH_IRQHandler>:
    207c:	a001                	j	207c <FLASH_IRQHandler>

0000207e <RCC_IRQHandler>:
    207e:	a001                	j	207e <RCC_IRQHandler>

00002080 <EXTI0_IRQHandler>:
    2080:	a001                	j	2080 <EXTI0_IRQHandler>

00002082 <EXTI1_IRQHandler>:
    2082:	a001                	j	2082 <EXTI1_IRQHandler>

00002084 <EXTI2_IRQHandler>:
    2084:	a001                	j	2084 <EXTI2_IRQHandler>

00002086 <EXTI3_IRQHandler>:
    2086:	a001                	j	2086 <EXTI3_IRQHandler>

00002088 <EXTI4_IRQHandler>:
    2088:	a001                	j	2088 <EXTI4_IRQHandler>

0000208a <DMA1_Channel1_IRQHandler>:
    208a:	a001                	j	208a <DMA1_Channel1_IRQHandler>

0000208c <DMA1_Channel2_IRQHandler>:
    208c:	a001                	j	208c <DMA1_Channel2_IRQHandler>

0000208e <DMA1_Channel3_IRQHandler>:
    208e:	a001                	j	208e <DMA1_Channel3_IRQHandler>

00002090 <DMA1_Channel4_IRQHandler>:
    2090:	a001                	j	2090 <DMA1_Channel4_IRQHandler>

00002092 <DMA1_Channel5_IRQHandler>:
    2092:	a001                	j	2092 <DMA1_Channel5_IRQHandler>

00002094 <DMA1_Channel6_IRQHandler>:
    2094:	a001                	j	2094 <DMA1_Channel6_IRQHandler>

00002096 <DMA1_Channel7_IRQHandler>:
    2096:	a001                	j	2096 <DMA1_Channel7_IRQHandler>

00002098 <ADC1_2_IRQHandler>:
    2098:	a001                	j	2098 <ADC1_2_IRQHandler>

0000209a <USB_HP_CAN1_TX_IRQHandler>:
    209a:	a001                	j	209a <USB_HP_CAN1_TX_IRQHandler>

0000209c <USB_LP_CAN1_RX0_IRQHandler>:
    209c:	a001                	j	209c <USB_LP_CAN1_RX0_IRQHandler>

0000209e <CAN1_RX1_IRQHandler>:
    209e:	a001                	j	209e <CAN1_RX1_IRQHandler>

000020a0 <CAN1_SCE_IRQHandler>:
    20a0:	a001                	j	20a0 <CAN1_SCE_IRQHandler>

000020a2 <EXTI9_5_IRQHandler>:
    20a2:	a001                	j	20a2 <EXTI9_5_IRQHandler>

000020a4 <TIM1_BRK_IRQHandler>:
    20a4:	a001                	j	20a4 <TIM1_BRK_IRQHandler>

000020a6 <TIM1_UP_IRQHandler>:
    20a6:	a001                	j	20a6 <TIM1_UP_IRQHandler>

000020a8 <TIM1_TRG_COM_IRQHandler>:
    20a8:	a001                	j	20a8 <TIM1_TRG_COM_IRQHandler>

000020aa <TIM1_CC_IRQHandler>:
    20aa:	a001                	j	20aa <TIM1_CC_IRQHandler>
    20ac:	a001                	j	20ac <TIM1_CC_IRQHandler+0x2>

000020ae <TIM3_IRQHandler>:
    20ae:	a001                	j	20ae <TIM3_IRQHandler>

000020b0 <TIM4_IRQHandler>:
    20b0:	a001                	j	20b0 <TIM4_IRQHandler>

000020b2 <I2C1_EV_IRQHandler>:
    20b2:	a001                	j	20b2 <I2C1_EV_IRQHandler>

000020b4 <I2C1_ER_IRQHandler>:
    20b4:	a001                	j	20b4 <I2C1_ER_IRQHandler>

000020b6 <I2C2_EV_IRQHandler>:
    20b6:	a001                	j	20b6 <I2C2_EV_IRQHandler>

000020b8 <I2C2_ER_IRQHandler>:
    20b8:	a001                	j	20b8 <I2C2_ER_IRQHandler>

000020ba <SPI1_IRQHandler>:
    20ba:	a001                	j	20ba <SPI1_IRQHandler>

000020bc <SPI2_IRQHandler>:
    20bc:	a001                	j	20bc <SPI2_IRQHandler>
    20be:	a001                	j	20be <SPI2_IRQHandler+0x2>
    20c0:	a001                	j	20c0 <SPI2_IRQHandler+0x4>
    20c2:	a001                	j	20c2 <SPI2_IRQHandler+0x6>

000020c4 <EXTI15_10_IRQHandler>:
    20c4:	a001                	j	20c4 <EXTI15_10_IRQHandler>

000020c6 <RTCAlarm_IRQHandler>:
    20c6:	a001                	j	20c6 <RTCAlarm_IRQHandler>

000020c8 <USBWakeUp_IRQHandler>:
    20c8:	a001                	j	20c8 <USBWakeUp_IRQHandler>

000020ca <TIM8_BRK_IRQHandler>:
    20ca:	a001                	j	20ca <TIM8_BRK_IRQHandler>

000020cc <TIM8_UP_IRQHandler>:
    20cc:	a001                	j	20cc <TIM8_UP_IRQHandler>

000020ce <TIM8_TRG_COM_IRQHandler>:
    20ce:	a001                	j	20ce <TIM8_TRG_COM_IRQHandler>

000020d0 <TIM8_CC_IRQHandler>:
    20d0:	a001                	j	20d0 <TIM8_CC_IRQHandler>

000020d2 <RNG_IRQHandler>:
    20d2:	a001                	j	20d2 <RNG_IRQHandler>

000020d4 <FSMC_IRQHandler>:
    20d4:	a001                	j	20d4 <FSMC_IRQHandler>

000020d6 <SDIO_IRQHandler>:
    20d6:	a001                	j	20d6 <SDIO_IRQHandler>

000020d8 <TIM5_IRQHandler>:
    20d8:	a001                	j	20d8 <TIM5_IRQHandler>

000020da <SPI3_IRQHandler>:
    20da:	a001                	j	20da <SPI3_IRQHandler>

000020dc <UART4_IRQHandler>:
    20dc:	a001                	j	20dc <UART4_IRQHandler>

000020de <UART5_IRQHandler>:
    20de:	a001                	j	20de <UART5_IRQHandler>

000020e0 <TIM6_IRQHandler>:
    20e0:	a001                	j	20e0 <TIM6_IRQHandler>

000020e2 <TIM7_IRQHandler>:
    20e2:	a001                	j	20e2 <TIM7_IRQHandler>

000020e4 <DMA2_Channel1_IRQHandler>:
    20e4:	a001                	j	20e4 <DMA2_Channel1_IRQHandler>

000020e6 <DMA2_Channel2_IRQHandler>:
    20e6:	a001                	j	20e6 <DMA2_Channel2_IRQHandler>

000020e8 <DMA2_Channel3_IRQHandler>:
    20e8:	a001                	j	20e8 <DMA2_Channel3_IRQHandler>

000020ea <DMA2_Channel4_IRQHandler>:
    20ea:	a001                	j	20ea <DMA2_Channel4_IRQHandler>

000020ec <DMA2_Channel5_IRQHandler>:
    20ec:	a001                	j	20ec <DMA2_Channel5_IRQHandler>

000020ee <ETH_IRQHandler>:
    20ee:	a001                	j	20ee <ETH_IRQHandler>

000020f0 <ETH_WKUP_IRQHandler>:
    20f0:	a001                	j	20f0 <ETH_WKUP_IRQHandler>

000020f2 <CAN2_TX_IRQHandler>:
    20f2:	a001                	j	20f2 <CAN2_TX_IRQHandler>

000020f4 <CAN2_RX0_IRQHandler>:
    20f4:	a001                	j	20f4 <CAN2_RX0_IRQHandler>

000020f6 <CAN2_RX1_IRQHandler>:
    20f6:	a001                	j	20f6 <CAN2_RX1_IRQHandler>

000020f8 <CAN2_SCE_IRQHandler>:
    20f8:	a001                	j	20f8 <CAN2_SCE_IRQHandler>

000020fa <OTG_FS_IRQHandler>:
    20fa:	a001                	j	20fa <OTG_FS_IRQHandler>

000020fc <USBHSWakeup_IRQHandler>:
    20fc:	a001                	j	20fc <USBHSWakeup_IRQHandler>

000020fe <USBHS_IRQHandler>:
    20fe:	a001                	j	20fe <USBHS_IRQHandler>

00002100 <DVP_IRQHandler>:
    2100:	a001                	j	2100 <DVP_IRQHandler>

00002102 <UART6_IRQHandler>:
    2102:	a001                	j	2102 <UART6_IRQHandler>

00002104 <UART7_IRQHandler>:
    2104:	a001                	j	2104 <UART7_IRQHandler>

00002106 <UART8_IRQHandler>:
    2106:	a001                	j	2106 <UART8_IRQHandler>

00002108 <TIM9_BRK_IRQHandler>:
    2108:	a001                	j	2108 <TIM9_BRK_IRQHandler>

0000210a <TIM9_UP_IRQHandler>:
    210a:	a001                	j	210a <TIM9_UP_IRQHandler>

0000210c <TIM9_TRG_COM_IRQHandler>:
    210c:	a001                	j	210c <TIM9_TRG_COM_IRQHandler>

0000210e <TIM9_CC_IRQHandler>:
    210e:	a001                	j	210e <TIM9_CC_IRQHandler>

00002110 <TIM10_BRK_IRQHandler>:
    2110:	a001                	j	2110 <TIM10_BRK_IRQHandler>

00002112 <TIM10_UP_IRQHandler>:
    2112:	a001                	j	2112 <TIM10_UP_IRQHandler>

00002114 <TIM10_TRG_COM_IRQHandler>:
    2114:	a001                	j	2114 <TIM10_TRG_COM_IRQHandler>

00002116 <TIM10_CC_IRQHandler>:
    2116:	a001                	j	2116 <TIM10_CC_IRQHandler>

00002118 <DMA2_Channel6_IRQHandler>:
    2118:	a001                	j	2118 <DMA2_Channel6_IRQHandler>

0000211a <DMA2_Channel7_IRQHandler>:
    211a:	a001                	j	211a <DMA2_Channel7_IRQHandler>

0000211c <DMA2_Channel8_IRQHandler>:
    211c:	a001                	j	211c <DMA2_Channel8_IRQHandler>

0000211e <DMA2_Channel9_IRQHandler>:
    211e:	a001                	j	211e <DMA2_Channel9_IRQHandler>

00002120 <DMA2_Channel10_IRQHandler>:
    2120:	a001                	j	2120 <DMA2_Channel10_IRQHandler>

00002122 <DMA2_Channel11_IRQHandler>:
    2122:	a001                	j	2122 <DMA2_Channel11_IRQHandler>

00002124 <handle_reset>:
    2124:	1fffe197          	auipc	gp,0x1fffe
    2128:	78418193          	addi	gp,gp,1924 # 200008a8 <__global_pointer$>
    212c:	20006117          	auipc	sp,0x20006
    2130:	ed410113          	addi	sp,sp,-300 # 20008000 <_eusrstack>
    2134:	00006517          	auipc	a0,0x6
    2138:	5b050513          	addi	a0,a0,1456 # 86e4 <_data_lma>
    213c:	1fffe597          	auipc	a1,0x1fffe
    2140:	ec458593          	addi	a1,a1,-316 # 20000000 <_data_vma>
    2144:	83818613          	addi	a2,gp,-1992 # 200000e0 <_edata>
    2148:	00c5fa63          	bgeu	a1,a2,215c <handle_reset+0x38>
    214c:	00052283          	lw	t0,0(a0)
    2150:	0055a023          	sw	t0,0(a1)
    2154:	0511                	addi	a0,a0,4
    2156:	0591                	addi	a1,a1,4
    2158:	fec5eae3          	bltu	a1,a2,214c <handle_reset+0x28>
    215c:	83818513          	addi	a0,gp,-1992 # 200000e0 <_edata>
    2160:	b0418593          	addi	a1,gp,-1276 # 200003ac <_ebss>
    2164:	00b57763          	bgeu	a0,a1,2172 <handle_reset+0x4e>
    2168:	00052023          	sw	zero,0(a0)
    216c:	0511                	addi	a0,a0,4
    216e:	feb56de3          	bltu	a0,a1,2168 <handle_reset+0x44>
    2172:	42fd                	li	t0,31
    2174:	bc029073          	csrw	0xbc0,t0
    2178:	42ad                	li	t0,11
    217a:	80429073          	csrw	0x804,t0
    217e:	000062b7          	lui	t0,0x6
    2182:	08828293          	addi	t0,t0,136 # 6088 <_printf_i+0x1e2>
    2186:	3002a073          	csrs	mstatus,t0
    218a:	ffffe297          	auipc	t0,0xffffe
    218e:	eae28293          	addi	t0,t0,-338 # 38 <_einit>
    2192:	0032e293          	ori	t0,t0,3
    2196:	30529073          	csrw	mtvec,t0
    219a:	939ff0ef          	jal	ra,1ad2 <SystemInit>
    219e:	00000297          	auipc	t0,0x0
    21a2:	8ca28293          	addi	t0,t0,-1846 # 1a68 <main>
    21a6:	34129073          	csrw	mepc,t0
    21aa:	30200073          	mret

000021ae <ADC_SoftwareStartConvCmd>:
    21ae:	451c                	lw	a5,8(a0)
    21b0:	c591                	beqz	a1,21bc <ADC_SoftwareStartConvCmd+0xe>
    21b2:	00500737          	lui	a4,0x500
    21b6:	8fd9                	or	a5,a5,a4
    21b8:	c51c                	sw	a5,8(a0)
    21ba:	8082                	ret
    21bc:	ffb00737          	lui	a4,0xffb00
    21c0:	177d                	addi	a4,a4,-1
    21c2:	8ff9                	and	a5,a5,a4
    21c4:	bfd5                	j	21b8 <ADC_SoftwareStartConvCmd+0xa>

000021c6 <ADC_GetConversionValue>:
    21c6:	4568                	lw	a0,76(a0)
    21c8:	0542                	slli	a0,a0,0x10
    21ca:	8141                	srli	a0,a0,0x10
    21cc:	8082                	ret

000021ce <ADC_GetFlagStatus>:
    21ce:	4108                	lw	a0,0(a0)
    21d0:	8d6d                	and	a0,a0,a1
    21d2:	00a03533          	snez	a0,a0
    21d6:	8082                	ret

000021d8 <GPIO_Init>:
    21d8:	459c                	lw	a5,8(a1)
    21da:	0107f713          	andi	a4,a5,16
    21de:	00f7f813          	andi	a6,a5,15
    21e2:	c701                	beqz	a4,21ea <GPIO_Init+0x12>
    21e4:	41d8                	lw	a4,4(a1)
    21e6:	00e86833          	or	a6,a6,a4
    21ea:	218e                	lhu	a1,0(a1)
    21ec:	0ff5f713          	andi	a4,a1,255
    21f0:	c339                	beqz	a4,2236 <GPIO_Init+0x5e>
    21f2:	4118                	lw	a4,0(a0)
    21f4:	4681                	li	a3,0
    21f6:	4e85                	li	t4,1
    21f8:	4f3d                	li	t5,15
    21fa:	02800f93          	li	t6,40
    21fe:	04800293          	li	t0,72
    2202:	4e21                	li	t3,8
    2204:	00de9633          	sll	a2,t4,a3
    2208:	00c5f8b3          	and	a7,a1,a2
    220c:	03161163          	bne	a2,a7,222e <GPIO_Init+0x56>
    2210:	00269893          	slli	a7,a3,0x2
    2214:	011f1333          	sll	t1,t5,a7
    2218:	fff34313          	not	t1,t1
    221c:	00e37733          	and	a4,t1,a4
    2220:	011818b3          	sll	a7,a6,a7
    2224:	00e8e733          	or	a4,a7,a4
    2228:	05f79f63          	bne	a5,t6,2286 <GPIO_Init+0xae>
    222c:	c950                	sw	a2,20(a0)
    222e:	0685                	addi	a3,a3,1
    2230:	fdc69ae3          	bne	a3,t3,2204 <GPIO_Init+0x2c>
    2234:	c118                	sw	a4,0(a0)
    2236:	0ff00713          	li	a4,255
    223a:	04b77563          	bgeu	a4,a1,2284 <GPIO_Init+0xac>
    223e:	4154                	lw	a3,4(a0)
    2240:	4621                	li	a2,8
    2242:	4e85                	li	t4,1
    2244:	4f3d                	li	t5,15
    2246:	02800f93          	li	t6,40
    224a:	04800293          	li	t0,72
    224e:	4e41                	li	t3,16
    2250:	00ce98b3          	sll	a7,t4,a2
    2254:	0115f733          	and	a4,a1,a7
    2258:	02e89263          	bne	a7,a4,227c <GPIO_Init+0xa4>
    225c:	00261713          	slli	a4,a2,0x2
    2260:	1701                	addi	a4,a4,-32
    2262:	00ef1333          	sll	t1,t5,a4
    2266:	fff34313          	not	t1,t1
    226a:	00d376b3          	and	a3,t1,a3
    226e:	00e81733          	sll	a4,a6,a4
    2272:	8ed9                	or	a3,a3,a4
    2274:	01f79d63          	bne	a5,t6,228e <GPIO_Init+0xb6>
    2278:	01152a23          	sw	a7,20(a0)
    227c:	0605                	addi	a2,a2,1
    227e:	fdc619e3          	bne	a2,t3,2250 <GPIO_Init+0x78>
    2282:	c154                	sw	a3,4(a0)
    2284:	8082                	ret
    2286:	fa5794e3          	bne	a5,t0,222e <GPIO_Init+0x56>
    228a:	c910                	sw	a2,16(a0)
    228c:	b74d                	j	222e <GPIO_Init+0x56>
    228e:	fe5797e3          	bne	a5,t0,227c <GPIO_Init+0xa4>
    2292:	01152823          	sw	a7,16(a0)
    2296:	b7dd                	j	227c <GPIO_Init+0xa4>

00002298 <GPIO_ReadInputDataBit>:
    2298:	4508                	lw	a0,8(a0)
    229a:	8d6d                	and	a0,a0,a1
    229c:	00a03533          	snez	a0,a0
    22a0:	8082                	ret

000022a2 <GPIO_SetBits>:
    22a2:	c90c                	sw	a1,16(a0)
    22a4:	8082                	ret

000022a6 <GPIO_ResetBits>:
    22a6:	c94c                	sw	a1,20(a0)
    22a8:	8082                	ret

000022aa <GPIO_PinRemapConfig>:
    22aa:	400107b7          	lui	a5,0x40010
    22ae:	04055a63          	bgez	a0,2302 <GPIO_PinRemapConfig+0x58>
    22b2:	4fdc                	lw	a5,28(a5)
    22b4:	01055693          	srli	a3,a0,0x10
    22b8:	01051813          	slli	a6,a0,0x10
    22bc:	00300737          	lui	a4,0x300
    22c0:	00f6f613          	andi	a2,a3,15
    22c4:	01085813          	srli	a6,a6,0x10
    22c8:	00e576b3          	and	a3,a0,a4
    22cc:	06055063          	bgez	a0,232c <GPIO_PinRemapConfig+0x82>
    22d0:	02e69b63          	bne	a3,a4,2306 <GPIO_PinRemapConfig+0x5c>
    22d4:	01060693          	addi	a3,a2,16
    22d8:	460d                	li	a2,3
    22da:	00d616b3          	sll	a3,a2,a3
    22de:	fff6c693          	not	a3,a3
    22e2:	8ff5                	and	a5,a5,a3
    22e4:	c999                	beqz	a1,22fa <GPIO_PinRemapConfig+0x50>
    22e6:	01555713          	srli	a4,a0,0x15
    22ea:	3ff77713          	andi	a4,a4,1023
    22ee:	0712                	slli	a4,a4,0x4
    22f0:	00e81733          	sll	a4,a6,a4
    22f4:	8fd9                	or	a5,a5,a4
    22f6:	04055763          	bgez	a0,2344 <GPIO_PinRemapConfig+0x9a>
    22fa:	40010737          	lui	a4,0x40010
    22fe:	cf5c                	sw	a5,28(a4)
    2300:	8082                	ret
    2302:	43dc                	lw	a5,4(a5)
    2304:	bf45                	j	22b4 <GPIO_PinRemapConfig+0xa>
    2306:	00b51713          	slli	a4,a0,0xb
    230a:	00075663          	bgez	a4,2316 <GPIO_PinRemapConfig+0x6c>
    230e:	468d                	li	a3,3
    2310:	00c696b3          	sll	a3,a3,a2
    2314:	b7e9                	j	22de <GPIO_PinRemapConfig+0x34>
    2316:	01555713          	srli	a4,a0,0x15
    231a:	3ff77713          	andi	a4,a4,1023
    231e:	0712                	slli	a4,a4,0x4
    2320:	00e81733          	sll	a4,a6,a4
    2324:	fff74713          	not	a4,a4
    2328:	8ff9                	and	a5,a5,a4
    232a:	bf6d                	j	22e4 <GPIO_PinRemapConfig+0x3a>
    232c:	02e69063          	bne	a3,a4,234c <GPIO_PinRemapConfig+0xa2>
    2330:	40010637          	lui	a2,0x40010
    2334:	4254                	lw	a3,4(a2)
    2336:	f1000737          	lui	a4,0xf1000
    233a:	177d                	addi	a4,a4,-1
    233c:	8ff9                	and	a5,a5,a4
    233e:	8f75                	and	a4,a4,a3
    2340:	c258                	sw	a4,4(a2)
    2342:	f1d5                	bnez	a1,22e6 <GPIO_PinRemapConfig+0x3c>
    2344:	40010737          	lui	a4,0x40010
    2348:	c35c                	sw	a5,4(a4)
    234a:	8082                	ret
    234c:	00b51713          	slli	a4,a0,0xb
    2350:	00075c63          	bgez	a4,2368 <GPIO_PinRemapConfig+0xbe>
    2354:	468d                	li	a3,3
    2356:	00c696b3          	sll	a3,a3,a2
    235a:	fff6c693          	not	a3,a3
    235e:	8efd                	and	a3,a3,a5
    2360:	0f0007b7          	lui	a5,0xf000
    2364:	8fd5                	or	a5,a5,a3
    2366:	bff1                	j	2342 <GPIO_PinRemapConfig+0x98>
    2368:	01555713          	srli	a4,a0,0x15
    236c:	0712                	slli	a4,a4,0x4
    236e:	00e81733          	sll	a4,a6,a4
    2372:	fff74713          	not	a4,a4
    2376:	8f7d                	and	a4,a4,a5
    2378:	0f0007b7          	lui	a5,0xf000
    237c:	8fd9                	or	a5,a5,a4
    237e:	b7d1                	j	2342 <GPIO_PinRemapConfig+0x98>

00002380 <I2C_Init>:
    2380:	eb1fd2ef          	jal	t0,230 <__riscv_save_0>
    2384:	7179                	addi	sp,sp,-48
    2386:	842a                	mv	s0,a0
    2388:	2146                	lhu	s1,4(a0)
    238a:	0868                	addi	a0,sp,28
    238c:	c62e                	sw	a1,12(sp)
    238e:	2cb1                	jal	25ea <RCC_GetClocksFreq>
    2390:	5792                	lw	a5,36(sp)
    2392:	000f4737          	lui	a4,0xf4
    2396:	24070713          	addi	a4,a4,576 # f4240 <_data_lma+0xebb5c>
    239a:	02e7d733          	divu	a4,a5,a4
    239e:	04c2                	slli	s1,s1,0x10
    23a0:	80c1                	srli	s1,s1,0x10
    23a2:	fc04f493          	andi	s1,s1,-64
    23a6:	04c2                	slli	s1,s1,0x10
    23a8:	80c1                	srli	s1,s1,0x10
    23aa:	45b2                	lw	a1,12(sp)
    23ac:	6561                	lui	a0,0x18
    23ae:	6a050513          	addi	a0,a0,1696 # 186a0 <_data_lma+0xffbc>
    23b2:	01071613          	slli	a2,a4,0x10
    23b6:	8241                	srli	a2,a2,0x10
    23b8:	8cd1                	or	s1,s1,a2
    23ba:	a046                	sh	s1,4(s0)
    23bc:	2016                	lhu	a3,0(s0)
    23be:	06c2                	slli	a3,a3,0x10
    23c0:	82c1                	srli	a3,a3,0x10
    23c2:	9af9                	andi	a3,a3,-2
    23c4:	06c2                	slli	a3,a3,0x10
    23c6:	82c1                	srli	a3,a3,0x10
    23c8:	a016                	sh	a3,0(s0)
    23ca:	4194                	lw	a3,0(a1)
    23cc:	04d56963          	bltu	a0,a3,241e <I2C_Init+0x9e>
    23d0:	0686                	slli	a3,a3,0x1
    23d2:	02d7d7b3          	divu	a5,a5,a3
    23d6:	4691                	li	a3,4
    23d8:	01079713          	slli	a4,a5,0x10
    23dc:	8341                	srli	a4,a4,0x10
    23de:	87ba                	mv	a5,a4
    23e0:	00d77363          	bgeu	a4,a3,23e6 <I2C_Init+0x66>
    23e4:	4791                	li	a5,4
    23e6:	0605                	addi	a2,a2,1
    23e8:	0642                	slli	a2,a2,0x10
    23ea:	07c2                	slli	a5,a5,0x10
    23ec:	8241                	srli	a2,a2,0x10
    23ee:	83c1                	srli	a5,a5,0x10
    23f0:	b012                	sh	a2,32(s0)
    23f2:	ac5e                	sh	a5,28(s0)
    23f4:	201e                	lhu	a5,0(s0)
    23f6:	21da                	lhu	a4,4(a1)
    23f8:	25b6                	lhu	a3,10(a1)
    23fa:	0017e793          	ori	a5,a5,1
    23fe:	a01e                	sh	a5,0(s0)
    2400:	201e                	lhu	a5,0(s0)
    2402:	8f55                	or	a4,a4,a3
    2404:	07c2                	slli	a5,a5,0x10
    2406:	83c1                	srli	a5,a5,0x10
    2408:	bf57f793          	andi	a5,a5,-1035
    240c:	8fd9                	or	a5,a5,a4
    240e:	a01e                	sh	a5,0(s0)
    2410:	259a                	lhu	a4,8(a1)
    2412:	25de                	lhu	a5,12(a1)
    2414:	8fd9                	or	a5,a5,a4
    2416:	a41e                	sh	a5,8(s0)
    2418:	6145                	addi	sp,sp,48
    241a:	e3bfd06f          	j	254 <__riscv_restore_0>
    241e:	21ea                	lhu	a0,6(a1)
    2420:	6631                	lui	a2,0xc
    2422:	167d                	addi	a2,a2,-1
    2424:	02c51d63          	bne	a0,a2,245e <I2C_Init+0xde>
    2428:	460d                	li	a2,3
    242a:	02c686b3          	mul	a3,a3,a2
    242e:	02d7d7b3          	divu	a5,a5,a3
    2432:	07c2                	slli	a5,a5,0x10
    2434:	83c1                	srli	a5,a5,0x10
    2436:	01479693          	slli	a3,a5,0x14
    243a:	e299                	bnez	a3,2440 <I2C_Init+0xc0>
    243c:	0017e793          	ori	a5,a5,1
    2440:	66a1                	lui	a3,0x8
    2442:	8fd5                	or	a5,a5,a3
    2444:	12c00693          	li	a3,300
    2448:	02d70733          	mul	a4,a4,a3
    244c:	3e800693          	li	a3,1000
    2450:	02d74733          	div	a4,a4,a3
    2454:	0705                	addi	a4,a4,1
    2456:	0742                	slli	a4,a4,0x10
    2458:	8341                	srli	a4,a4,0x10
    245a:	b01a                	sh	a4,32(s0)
    245c:	bf59                	j	23f2 <I2C_Init+0x72>
    245e:	4665                	li	a2,25
    2460:	02c686b3          	mul	a3,a3,a2
    2464:	02d7d7b3          	divu	a5,a5,a3
    2468:	6691                	lui	a3,0x4
    246a:	07c2                	slli	a5,a5,0x10
    246c:	83c1                	srli	a5,a5,0x10
    246e:	8fd5                	or	a5,a5,a3
    2470:	b7d9                	j	2436 <I2C_Init+0xb6>

00002472 <I2C_Cmd>:
    2472:	211e                	lhu	a5,0(a0)
    2474:	c589                	beqz	a1,247e <I2C_Cmd+0xc>
    2476:	0017e793          	ori	a5,a5,1
    247a:	a11e                	sh	a5,0(a0)
    247c:	8082                	ret
    247e:	07c2                	slli	a5,a5,0x10
    2480:	83c1                	srli	a5,a5,0x10
    2482:	9bf9                	andi	a5,a5,-2
    2484:	07c2                	slli	a5,a5,0x10
    2486:	83c1                	srli	a5,a5,0x10
    2488:	bfcd                	j	247a <I2C_Cmd+0x8>

0000248a <I2C_GenerateSTART>:
    248a:	211e                	lhu	a5,0(a0)
    248c:	c589                	beqz	a1,2496 <I2C_GenerateSTART+0xc>
    248e:	1007e793          	ori	a5,a5,256
    2492:	a11e                	sh	a5,0(a0)
    2494:	8082                	ret
    2496:	07c2                	slli	a5,a5,0x10
    2498:	83c1                	srli	a5,a5,0x10
    249a:	eff7f793          	andi	a5,a5,-257
    249e:	07c2                	slli	a5,a5,0x10
    24a0:	83c1                	srli	a5,a5,0x10
    24a2:	bfc5                	j	2492 <I2C_GenerateSTART+0x8>

000024a4 <I2C_GenerateSTOP>:
    24a4:	211e                	lhu	a5,0(a0)
    24a6:	c589                	beqz	a1,24b0 <I2C_GenerateSTOP+0xc>
    24a8:	2007e793          	ori	a5,a5,512
    24ac:	a11e                	sh	a5,0(a0)
    24ae:	8082                	ret
    24b0:	07c2                	slli	a5,a5,0x10
    24b2:	83c1                	srli	a5,a5,0x10
    24b4:	dff7f793          	andi	a5,a5,-513
    24b8:	07c2                	slli	a5,a5,0x10
    24ba:	83c1                	srli	a5,a5,0x10
    24bc:	bfc5                	j	24ac <I2C_GenerateSTOP+0x8>

000024be <I2C_AcknowledgeConfig>:
    24be:	211e                	lhu	a5,0(a0)
    24c0:	c589                	beqz	a1,24ca <I2C_AcknowledgeConfig+0xc>
    24c2:	4007e793          	ori	a5,a5,1024
    24c6:	a11e                	sh	a5,0(a0)
    24c8:	8082                	ret
    24ca:	07c2                	slli	a5,a5,0x10
    24cc:	83c1                	srli	a5,a5,0x10
    24ce:	bff7f793          	andi	a5,a5,-1025
    24d2:	07c2                	slli	a5,a5,0x10
    24d4:	83c1                	srli	a5,a5,0x10
    24d6:	bfc5                	j	24c6 <I2C_AcknowledgeConfig+0x8>

000024d8 <I2C_SendData>:
    24d8:	a90e                	sh	a1,16(a0)
    24da:	8082                	ret

000024dc <I2C_ReceiveData>:
    24dc:	290a                	lhu	a0,16(a0)
    24de:	0ff57513          	andi	a0,a0,255
    24e2:	8082                	ret

000024e4 <I2C_Send7bitAddress>:
    24e4:	0fe5f793          	andi	a5,a1,254
    24e8:	c219                	beqz	a2,24ee <I2C_Send7bitAddress+0xa>
    24ea:	0015e793          	ori	a5,a1,1
    24ee:	07c2                	slli	a5,a5,0x10
    24f0:	83c1                	srli	a5,a5,0x10
    24f2:	a91e                	sh	a5,16(a0)
    24f4:	8082                	ret

000024f6 <I2C_CheckEvent>:
    24f6:	295e                	lhu	a5,20(a0)
    24f8:	2d0a                	lhu	a0,24(a0)
    24fa:	0542                	slli	a0,a0,0x10
    24fc:	8d5d                	or	a0,a0,a5
    24fe:	8d6d                	and	a0,a0,a1
    2500:	0522                	slli	a0,a0,0x8
    2502:	8121                	srli	a0,a0,0x8
    2504:	8d0d                	sub	a0,a0,a1
    2506:	00153513          	seqz	a0,a0
    250a:	8082                	ret

0000250c <I2C_GetFlagStatus>:
    250c:	1141                	addi	sp,sp,-16
    250e:	c402                	sw	zero,8(sp)
    2510:	c602                	sw	zero,12(sp)
    2512:	01c5d793          	srli	a5,a1,0x1c
    2516:	c62a                	sw	a0,12(sp)
    2518:	c43e                	sw	a5,8(sp)
    251a:	47a2                	lw	a5,8(sp)
    251c:	05a2                	slli	a1,a1,0x8
    251e:	81a1                	srli	a1,a1,0x8
    2520:	cb99                	beqz	a5,2536 <I2C_GetFlagStatus+0x2a>
    2522:	47b2                	lw	a5,12(sp)
    2524:	07d1                	addi	a5,a5,20
    2526:	c63e                	sw	a5,12(sp)
    2528:	47b2                	lw	a5,12(sp)
    252a:	4388                	lw	a0,0(a5)
    252c:	0141                	addi	sp,sp,16
    252e:	8d6d                	and	a0,a0,a1
    2530:	00a03533          	snez	a0,a0
    2534:	8082                	ret
    2536:	47b2                	lw	a5,12(sp)
    2538:	81c1                	srli	a1,a1,0x10
    253a:	07e1                	addi	a5,a5,24
    253c:	b7ed                	j	2526 <I2C_GetFlagStatus+0x1a>

0000253e <NVIC_PriorityGroupConfig>:
    253e:	86a1a823          	sw	a0,-1936(gp) # 20000118 <NVIC_Priority_Group>
    2542:	8082                	ret

00002544 <NVIC_Init>:
    2544:	87018793          	addi	a5,gp,-1936 # 20000118 <NVIC_Priority_Group>
    2548:	4394                	lw	a3,0(a5)
    254a:	2118                	lbu	a4,0(a0)
    254c:	e681                	bnez	a3,2554 <NVIC_Init+0x10>
    254e:	213c                	lbu	a5,2(a0)
    2550:	0792                	slli	a5,a5,0x4
    2552:	a821                	j	256a <NVIC_Init+0x26>
    2554:	4394                	lw	a3,0(a5)
    2556:	4605                	li	a2,1
    2558:	02c69f63          	bne	a3,a2,2596 <NVIC_Init+0x52>
    255c:	213c                	lbu	a5,2(a0)
    255e:	3110                	lbu	a2,1(a0)
    2560:	0792                	slli	a5,a5,0x4
    2562:	00d61463          	bne	a2,a3,256a <NVIC_Init+0x26>
    2566:	f807e793          	ori	a5,a5,-128
    256a:	e000e6b7          	lui	a3,0xe000e
    256e:	0ff7f793          	andi	a5,a5,255
    2572:	96ba                	add	a3,a3,a4
    2574:	40f68023          	sb	a5,1024(a3) # e000e400 <_eusrstack+0xc0006400>
    2578:	4685                	li	a3,1
    257a:	00575793          	srli	a5,a4,0x5
    257e:	00e69733          	sll	a4,a3,a4
    2582:	4154                	lw	a3,4(a0)
    2584:	c2a5                	beqz	a3,25e4 <NVIC_Init+0xa0>
    2586:	04078793          	addi	a5,a5,64 # f000040 <_data_lma+0xeff795c>
    258a:	078a                	slli	a5,a5,0x2
    258c:	e000e6b7          	lui	a3,0xe000e
    2590:	97b6                	add	a5,a5,a3
    2592:	c398                	sw	a4,0(a5)
    2594:	8082                	ret
    2596:	438c                	lw	a1,0(a5)
    2598:	4689                	li	a3,2
    259a:	02d59163          	bne	a1,a3,25bc <NVIC_Init+0x78>
    259e:	3114                	lbu	a3,1(a0)
    25a0:	213c                	lbu	a5,2(a0)
    25a2:	00d66563          	bltu	a2,a3,25ac <NVIC_Init+0x68>
    25a6:	068a                	slli	a3,a3,0x2
    25a8:	97b6                	add	a5,a5,a3
    25aa:	b75d                	j	2550 <NVIC_Init+0xc>
    25ac:	03e68693          	addi	a3,a3,62 # e000e03e <_eusrstack+0xc000603e>
    25b0:	068a                	slli	a3,a3,0x2
    25b2:	97b6                	add	a5,a5,a3
    25b4:	0ff7f793          	andi	a5,a5,255
    25b8:	0792                	slli	a5,a5,0x4
    25ba:	b775                	j	2566 <NVIC_Init+0x22>
    25bc:	4390                	lw	a2,0(a5)
    25be:	468d                	li	a3,3
    25c0:	00d61c63          	bne	a2,a3,25d8 <NVIC_Init+0x94>
    25c4:	3114                	lbu	a3,1(a0)
    25c6:	213c                	lbu	a5,2(a0)
    25c8:	00d66463          	bltu	a2,a3,25d0 <NVIC_Init+0x8c>
    25cc:	0686                	slli	a3,a3,0x1
    25ce:	bfe9                	j	25a8 <NVIC_Init+0x64>
    25d0:	07c68693          	addi	a3,a3,124
    25d4:	0686                	slli	a3,a3,0x1
    25d6:	bff1                	j	25b2 <NVIC_Init+0x6e>
    25d8:	4394                	lw	a3,0(a5)
    25da:	4791                	li	a5,4
    25dc:	f8f69ee3          	bne	a3,a5,2578 <NVIC_Init+0x34>
    25e0:	311c                	lbu	a5,1(a0)
    25e2:	b7bd                	j	2550 <NVIC_Init+0xc>
    25e4:	06078793          	addi	a5,a5,96
    25e8:	b74d                	j	258a <NVIC_Init+0x46>

000025ea <RCC_GetClocksFreq>:
    25ea:	40021737          	lui	a4,0x40021
    25ee:	435c                	lw	a5,4(a4)
    25f0:	4691                	li	a3,4
    25f2:	8bb1                	andi	a5,a5,12
    25f4:	00d78563          	beq	a5,a3,25fe <RCC_GetClocksFreq+0x14>
    25f8:	46a1                	li	a3,8
    25fa:	06d78263          	beq	a5,a3,265e <RCC_GetClocksFreq+0x74>
    25fe:	007a17b7          	lui	a5,0x7a1
    2602:	20078793          	addi	a5,a5,512 # 7a1200 <_data_lma+0x798b1c>
    2606:	c11c                	sw	a5,0(a0)
    2608:	40021637          	lui	a2,0x40021
    260c:	425c                	lw	a5,4(a2)
    260e:	20000737          	lui	a4,0x20000
    2612:	03870713          	addi	a4,a4,56 # 20000038 <APBAHBPrescTable>
    2616:	8391                	srli	a5,a5,0x4
    2618:	8bbd                	andi	a5,a5,15
    261a:	97ba                	add	a5,a5,a4
    261c:	2394                	lbu	a3,0(a5)
    261e:	411c                	lw	a5,0(a0)
    2620:	00d7d7b3          	srl	a5,a5,a3
    2624:	c15c                	sw	a5,4(a0)
    2626:	4254                	lw	a3,4(a2)
    2628:	82a1                	srli	a3,a3,0x8
    262a:	8a9d                	andi	a3,a3,7
    262c:	96ba                	add	a3,a3,a4
    262e:	2294                	lbu	a3,0(a3)
    2630:	00d7d6b3          	srl	a3,a5,a3
    2634:	c514                	sw	a3,8(a0)
    2636:	4254                	lw	a3,4(a2)
    2638:	82ad                	srli	a3,a3,0xb
    263a:	8a9d                	andi	a3,a3,7
    263c:	9736                	add	a4,a4,a3
    263e:	2318                	lbu	a4,0(a4)
    2640:	00e7d7b3          	srl	a5,a5,a4
    2644:	c55c                	sw	a5,12(a0)
    2646:	4258                	lw	a4,4(a2)
    2648:	8339                	srli	a4,a4,0xe
    264a:	00377693          	andi	a3,a4,3
    264e:	82c18713          	addi	a4,gp,-2004 # 200000d4 <ADCPrescTable>
    2652:	9736                	add	a4,a4,a3
    2654:	2318                	lbu	a4,0(a4)
    2656:	02e7d7b3          	divu	a5,a5,a4
    265a:	c91c                	sw	a5,16(a0)
    265c:	8082                	ret
    265e:	435c                	lw	a5,4(a4)
    2660:	4358                	lw	a4,4(a4)
    2662:	66c1                	lui	a3,0x10
    2664:	83c9                	srli	a5,a5,0x12
    2666:	8f75                	and	a4,a4,a3
    2668:	1ffff6b7          	lui	a3,0x1ffff
    266c:	70c6a683          	lw	a3,1804(a3) # 1ffff70c <_data_lma+0x1fff7028>
    2670:	8bbd                	andi	a5,a5,15
    2672:	0789                	addi	a5,a5,2
    2674:	01169613          	slli	a2,a3,0x11
    2678:	00064863          	bltz	a2,2688 <RCC_GetClocksFreq+0x9e>
    267c:	46c5                	li	a3,17
    267e:	4601                	li	a2,0
    2680:	02d79263          	bne	a5,a3,26a4 <RCC_GetClocksFreq+0xba>
    2684:	47c9                	li	a5,18
    2686:	a839                	j	26a4 <RCC_GetClocksFreq+0xba>
    2688:	4689                	li	a3,2
    268a:	02d78f63          	beq	a5,a3,26c8 <RCC_GetClocksFreq+0xde>
    268e:	46bd                	li	a3,15
    2690:	02d78e63          	beq	a5,a3,26cc <RCC_GetClocksFreq+0xe2>
    2694:	46c1                	li	a3,16
    2696:	02d78e63          	beq	a5,a3,26d2 <RCC_GetClocksFreq+0xe8>
    269a:	46c5                	li	a3,17
    269c:	4601                	li	a2,0
    269e:	00d79363          	bne	a5,a3,26a4 <RCC_GetClocksFreq+0xba>
    26a2:	47c1                	li	a5,16
    26a4:	ef1d                	bnez	a4,26e2 <RCC_GetClocksFreq+0xf8>
    26a6:	40024737          	lui	a4,0x40024
    26aa:	80072703          	lw	a4,-2048(a4) # 40023800 <_eusrstack+0x2001b800>
    26ae:	8b41                	andi	a4,a4,16
    26b0:	c705                	beqz	a4,26d8 <RCC_GetClocksFreq+0xee>
    26b2:	007a1737          	lui	a4,0x7a1
    26b6:	20070713          	addi	a4,a4,512 # 7a1200 <_data_lma+0x798b1c>
    26ba:	02f707b3          	mul	a5,a4,a5
    26be:	c11c                	sw	a5,0(a0)
    26c0:	d621                	beqz	a2,2608 <RCC_GetClocksFreq+0x1e>
    26c2:	411c                	lw	a5,0(a0)
    26c4:	8385                	srli	a5,a5,0x1
    26c6:	b781                	j	2606 <RCC_GetClocksFreq+0x1c>
    26c8:	4601                	li	a2,0
    26ca:	bf6d                	j	2684 <RCC_GetClocksFreq+0x9a>
    26cc:	4605                	li	a2,1
    26ce:	47b5                	li	a5,13
    26d0:	bfd1                	j	26a4 <RCC_GetClocksFreq+0xba>
    26d2:	4601                	li	a2,0
    26d4:	47bd                	li	a5,15
    26d6:	b7f9                	j	26a4 <RCC_GetClocksFreq+0xba>
    26d8:	003d1737          	lui	a4,0x3d1
    26dc:	90070713          	addi	a4,a4,-1792 # 3d0900 <_data_lma+0x3c821c>
    26e0:	bfe9                	j	26ba <RCC_GetClocksFreq+0xd0>
    26e2:	400215b7          	lui	a1,0x40021
    26e6:	55d8                	lw	a4,44(a1)
    26e8:	00f71693          	slli	a3,a4,0xf
    26ec:	55d8                	lw	a4,44(a1)
    26ee:	0406df63          	bgez	a3,274c <RCC_GetClocksFreq+0x162>
    26f2:	8311                	srli	a4,a4,0x4
    26f4:	8b3d                	andi	a4,a4,15
    26f6:	00170693          	addi	a3,a4,1
    26fa:	007a1737          	lui	a4,0x7a1
    26fe:	20070713          	addi	a4,a4,512 # 7a1200 <_data_lma+0x798b1c>
    2702:	02d75733          	divu	a4,a4,a3
    2706:	c118                	sw	a4,0(a0)
    2708:	55d4                	lw	a3,44(a1)
    270a:	82a1                	srli	a3,a3,0x8
    270c:	8abd                	andi	a3,a3,15
    270e:	e28d                	bnez	a3,2730 <RCC_GetClocksFreq+0x146>
    2710:	4695                	li	a3,5
    2712:	02d70733          	mul	a4,a4,a3
    2716:	8305                	srli	a4,a4,0x1
    2718:	c118                	sw	a4,0(a0)
    271a:	40021737          	lui	a4,0x40021
    271e:	5758                	lw	a4,44(a4)
    2720:	4114                	lw	a3,0(a0)
    2722:	8b3d                	andi	a4,a4,15
    2724:	0705                	addi	a4,a4,1
    2726:	02e6d733          	divu	a4,a3,a4
    272a:	c118                	sw	a4,0(a0)
    272c:	4118                	lw	a4,0(a0)
    272e:	b771                	j	26ba <RCC_GetClocksFreq+0xd0>
    2730:	4585                	li	a1,1
    2732:	00b69463          	bne	a3,a1,273a <RCC_GetClocksFreq+0x150>
    2736:	46e5                	li	a3,25
    2738:	bfe9                	j	2712 <RCC_GetClocksFreq+0x128>
    273a:	45bd                	li	a1,15
    273c:	00b69663          	bne	a3,a1,2748 <RCC_GetClocksFreq+0x15e>
    2740:	46d1                	li	a3,20
    2742:	02e68733          	mul	a4,a3,a4
    2746:	bfc9                	j	2718 <RCC_GetClocksFreq+0x12e>
    2748:	0689                	addi	a3,a3,2
    274a:	bfe5                	j	2742 <RCC_GetClocksFreq+0x158>
    274c:	8b3d                	andi	a4,a4,15
    274e:	00170693          	addi	a3,a4,1 # 40021001 <_eusrstack+0x20019001>
    2752:	007a1737          	lui	a4,0x7a1
    2756:	20070713          	addi	a4,a4,512 # 7a1200 <_data_lma+0x798b1c>
    275a:	02d75733          	divu	a4,a4,a3
    275e:	b7f1                	j	272a <RCC_GetClocksFreq+0x140>

00002760 <RCC_APB2PeriphClockCmd>:
    2760:	c599                	beqz	a1,276e <RCC_APB2PeriphClockCmd+0xe>
    2762:	40021737          	lui	a4,0x40021
    2766:	4f1c                	lw	a5,24(a4)
    2768:	8d5d                	or	a0,a0,a5
    276a:	cf08                	sw	a0,24(a4)
    276c:	8082                	ret
    276e:	400217b7          	lui	a5,0x40021
    2772:	4f98                	lw	a4,24(a5)
    2774:	fff54513          	not	a0,a0
    2778:	8d79                	and	a0,a0,a4
    277a:	cf88                	sw	a0,24(a5)
    277c:	8082                	ret

0000277e <RCC_APB1PeriphClockCmd>:
    277e:	c599                	beqz	a1,278c <RCC_APB1PeriphClockCmd+0xe>
    2780:	40021737          	lui	a4,0x40021
    2784:	4f5c                	lw	a5,28(a4)
    2786:	8d5d                	or	a0,a0,a5
    2788:	cf48                	sw	a0,28(a4)
    278a:	8082                	ret
    278c:	400217b7          	lui	a5,0x40021
    2790:	4fd8                	lw	a4,28(a5)
    2792:	fff54513          	not	a0,a0
    2796:	8d79                	and	a0,a0,a4
    2798:	cfc8                	sw	a0,28(a5)
    279a:	8082                	ret

0000279c <SPI_I2S_SendData>:
    279c:	a54e                	sh	a1,12(a0)
    279e:	8082                	ret

000027a0 <SPI_I2S_ReceiveData>:
    27a0:	254a                	lhu	a0,12(a0)
    27a2:	8082                	ret

000027a4 <SPI_I2S_GetFlagStatus>:
    27a4:	250a                	lhu	a0,8(a0)
    27a6:	8d6d                	and	a0,a0,a1
    27a8:	00a03533          	snez	a0,a0
    27ac:	8082                	ret

000027ae <TIM_Cmd>:
    27ae:	211e                	lhu	a5,0(a0)
    27b0:	c589                	beqz	a1,27ba <TIM_Cmd+0xc>
    27b2:	0017e793          	ori	a5,a5,1
    27b6:	a11e                	sh	a5,0(a0)
    27b8:	8082                	ret
    27ba:	07c2                	slli	a5,a5,0x10
    27bc:	83c1                	srli	a5,a5,0x10
    27be:	9bf9                	andi	a5,a5,-2
    27c0:	07c2                	slli	a5,a5,0x10
    27c2:	83c1                	srli	a5,a5,0x10
    27c4:	bfcd                	j	27b6 <TIM_Cmd+0x8>

000027c6 <TIM_SetCounter>:
    27c6:	b14e                	sh	a1,36(a0)
    27c8:	8082                	ret

000027ca <TIM_GetCounter>:
    27ca:	314a                	lhu	a0,36(a0)
    27cc:	8082                	ret

000027ce <TIM_GetITStatus>:
    27ce:	291e                	lhu	a5,16(a0)
    27d0:	254a                	lhu	a0,12(a0)
    27d2:	8fed                	and	a5,a5,a1
    27d4:	0542                	slli	a0,a0,0x10
    27d6:	8141                	srli	a0,a0,0x10
    27d8:	c789                	beqz	a5,27e2 <TIM_GetITStatus+0x14>
    27da:	8d6d                	and	a0,a0,a1
    27dc:	00a03533          	snez	a0,a0
    27e0:	8082                	ret
    27e2:	4501                	li	a0,0
    27e4:	8082                	ret

000027e6 <TIM_ClearITPendingBit>:
    27e6:	fff5c593          	not	a1,a1
    27ea:	05c2                	slli	a1,a1,0x10
    27ec:	81c1                	srli	a1,a1,0x10
    27ee:	a90e                	sh	a1,16(a0)
    27f0:	8082                	ret

000027f2 <USART_Init>:
    27f2:	a3ffd2ef          	jal	t0,230 <__riscv_save_0>
    27f6:	2916                	lhu	a3,16(a0)
    27f8:	77f5                	lui	a5,0xffffd
    27fa:	17fd                	addi	a5,a5,-1
    27fc:	8ff5                	and	a5,a5,a3
    27fe:	21f6                	lhu	a3,6(a1)
    2800:	25da                	lhu	a4,12(a1)
    2802:	7179                	addi	sp,sp,-48
    2804:	8fd5                	or	a5,a5,a3
    2806:	a91e                	sh	a5,16(a0)
    2808:	2556                	lhu	a3,12(a0)
    280a:	77fd                	lui	a5,0xfffff
    280c:	9f378793          	addi	a5,a5,-1549 # ffffe9f3 <_eusrstack+0xdfff69f3>
    2810:	8ff5                	and	a5,a5,a3
    2812:	21d6                	lhu	a3,4(a1)
    2814:	842a                	mv	s0,a0
    2816:	c62e                	sw	a1,12(sp)
    2818:	8fd5                	or	a5,a5,a3
    281a:	2596                	lhu	a3,8(a1)
    281c:	8fd5                	or	a5,a5,a3
    281e:	25b6                	lhu	a3,10(a1)
    2820:	8fd5                	or	a5,a5,a3
    2822:	a55e                	sh	a5,12(a0)
    2824:	295e                	lhu	a5,20(a0)
    2826:	07c2                	slli	a5,a5,0x10
    2828:	83c1                	srli	a5,a5,0x10
    282a:	cff7f793          	andi	a5,a5,-769
    282e:	8fd9                	or	a5,a5,a4
    2830:	a95e                	sh	a5,20(a0)
    2832:	0868                	addi	a0,sp,28
    2834:	db7ff0ef          	jal	ra,25ea <RCC_GetClocksFreq>
    2838:	400147b7          	lui	a5,0x40014
    283c:	80078793          	addi	a5,a5,-2048 # 40013800 <_eusrstack+0x2000b800>
    2840:	45b2                	lw	a1,12(sp)
    2842:	04f41a63          	bne	s0,a5,2896 <USART_Init+0xa4>
    2846:	57a2                	lw	a5,40(sp)
    2848:	2456                	lhu	a3,12(s0)
    284a:	4765                	li	a4,25
    284c:	02e787b3          	mul	a5,a5,a4
    2850:	06c2                	slli	a3,a3,0x10
    2852:	86c1                	srai	a3,a3,0x10
    2854:	4198                	lw	a4,0(a1)
    2856:	0406d263          	bgez	a3,289a <USART_Init+0xa8>
    285a:	0706                	slli	a4,a4,0x1
    285c:	2452                	lhu	a2,12(s0)
    285e:	0642                	slli	a2,a2,0x10
    2860:	02e7d7b3          	divu	a5,a5,a4
    2864:	06400713          	li	a4,100
    2868:	8641                	srai	a2,a2,0x10
    286a:	02e7d6b3          	divu	a3,a5,a4
    286e:	02e7f7b3          	remu	a5,a5,a4
    2872:	0692                	slli	a3,a3,0x4
    2874:	02065563          	bgez	a2,289e <USART_Init+0xac>
    2878:	078e                	slli	a5,a5,0x3
    287a:	03278793          	addi	a5,a5,50
    287e:	02e7d7b3          	divu	a5,a5,a4
    2882:	0077f713          	andi	a4,a5,7
    2886:	00d767b3          	or	a5,a4,a3
    288a:	07c2                	slli	a5,a5,0x10
    288c:	83c1                	srli	a5,a5,0x10
    288e:	a41e                	sh	a5,8(s0)
    2890:	6145                	addi	sp,sp,48
    2892:	9c3fd06f          	j	254 <__riscv_restore_0>
    2896:	5792                	lw	a5,36(sp)
    2898:	bf45                	j	2848 <USART_Init+0x56>
    289a:	070a                	slli	a4,a4,0x2
    289c:	b7c1                	j	285c <USART_Init+0x6a>
    289e:	0792                	slli	a5,a5,0x4
    28a0:	03278793          	addi	a5,a5,50
    28a4:	02e7d7b3          	divu	a5,a5,a4
    28a8:	8bbd                	andi	a5,a5,15
    28aa:	8fd5                	or	a5,a5,a3
    28ac:	bff9                	j	288a <USART_Init+0x98>

000028ae <USART_Cmd>:
    28ae:	c591                	beqz	a1,28ba <USART_Cmd+0xc>
    28b0:	255e                	lhu	a5,12(a0)
    28b2:	6709                	lui	a4,0x2
    28b4:	8fd9                	or	a5,a5,a4
    28b6:	a55e                	sh	a5,12(a0)
    28b8:	8082                	ret
    28ba:	255a                	lhu	a4,12(a0)
    28bc:	77f9                	lui	a5,0xffffe
    28be:	17fd                	addi	a5,a5,-1
    28c0:	8ff9                	and	a5,a5,a4
    28c2:	bfd5                	j	28b6 <USART_Cmd+0x8>

000028c4 <USART_ITConfig>:
    28c4:	0ff5f713          	andi	a4,a1,255
    28c8:	4785                	li	a5,1
    28ca:	8315                	srli	a4,a4,0x5
    28cc:	00b795b3          	sll	a1,a5,a1
    28d0:	00f71963          	bne	a4,a5,28e2 <USART_ITConfig+0x1e>
    28d4:	00c50793          	addi	a5,a0,12
    28d8:	4398                	lw	a4,0(a5)
    28da:	ce01                	beqz	a2,28f2 <USART_ITConfig+0x2e>
    28dc:	8dd9                	or	a1,a1,a4
    28de:	c38c                	sw	a1,0(a5)
    28e0:	8082                	ret
    28e2:	4689                	li	a3,2
    28e4:	01450793          	addi	a5,a0,20
    28e8:	fed718e3          	bne	a4,a3,28d8 <USART_ITConfig+0x14>
    28ec:	01050793          	addi	a5,a0,16
    28f0:	b7e5                	j	28d8 <USART_ITConfig+0x14>
    28f2:	fff5c593          	not	a1,a1
    28f6:	8df9                	and	a1,a1,a4
    28f8:	b7dd                	j	28de <USART_ITConfig+0x1a>

000028fa <USART_SendData>:
    28fa:	1ff5f593          	andi	a1,a1,511
    28fe:	a14e                	sh	a1,4(a0)
    2900:	8082                	ret

00002902 <USART_ReceiveData>:
    2902:	214a                	lhu	a0,4(a0)
    2904:	1ff57513          	andi	a0,a0,511
    2908:	8082                	ret

0000290a <USART_GetFlagStatus>:
    290a:	210a                	lhu	a0,0(a0)
    290c:	8d6d                	and	a0,a0,a1
    290e:	00a03533          	snez	a0,a0
    2912:	8082                	ret

00002914 <USART_GetITStatus>:
    2914:	0ff5f713          	andi	a4,a1,255
    2918:	4685                	li	a3,1
    291a:	8315                	srli	a4,a4,0x5
    291c:	00b697b3          	sll	a5,a3,a1
    2920:	02d71163          	bne	a4,a3,2942 <USART_GetITStatus+0x2e>
    2924:	255a                	lhu	a4,12(a0)
    2926:	8ff9                	and	a5,a5,a4
    2928:	211a                	lhu	a4,0(a0)
    292a:	4501                	li	a0,0
    292c:	0742                	slli	a4,a4,0x10
    292e:	8341                	srli	a4,a4,0x10
    2930:	cb81                	beqz	a5,2940 <USART_GetITStatus+0x2c>
    2932:	4505                	li	a0,1
    2934:	81a1                	srli	a1,a1,0x8
    2936:	00b515b3          	sll	a1,a0,a1
    293a:	8f6d                	and	a4,a4,a1
    293c:	00e03533          	snez	a0,a4
    2940:	8082                	ret
    2942:	4689                	li	a3,2
    2944:	00d71463          	bne	a4,a3,294c <USART_GetITStatus+0x38>
    2948:	291a                	lhu	a4,16(a0)
    294a:	bff1                	j	2926 <USART_GetITStatus+0x12>
    294c:	295a                	lhu	a4,20(a0)
    294e:	bfe1                	j	2926 <USART_GetITStatus+0x12>

00002950 <USART_ClearITPendingBit>:
    2950:	81a1                	srli	a1,a1,0x8
    2952:	4785                	li	a5,1
    2954:	00b797b3          	sll	a5,a5,a1
    2958:	fff7c793          	not	a5,a5
    295c:	07c2                	slli	a5,a5,0x10
    295e:	83c1                	srli	a5,a5,0x10
    2960:	a11e                	sh	a5,0(a0)
    2962:	8082                	ret

00002964 <Delay_Init>:
    2964:	8241a783          	lw	a5,-2012(gp) # 200000cc <SystemCoreClock>
    2968:	007a1737          	lui	a4,0x7a1
    296c:	20070713          	addi	a4,a4,512 # 7a1200 <_data_lma+0x798b1c>
    2970:	02e7d7b3          	divu	a5,a5,a4
    2974:	0ff7f793          	andi	a5,a5,255
    2978:	86f18b23          	sb	a5,-1930(gp) # 2000011e <p_us>
    297c:	3e800713          	li	a4,1000
    2980:	02e787b3          	mul	a5,a5,a4
    2984:	86f19a23          	sh	a5,-1932(gp) # 2000011c <p_ms>
    2988:	8082                	ret

0000298a <delay_us>:
    298a:	e000f7b7          	lui	a5,0xe000f
    298e:	43d8                	lw	a4,4(a5)
    2990:	4681                	li	a3,0
    2992:	9b79                	andi	a4,a4,-2
    2994:	c3d8                	sw	a4,4(a5)
    2996:	8761c703          	lbu	a4,-1930(gp) # 2000011e <p_us>
    299a:	02a70633          	mul	a2,a4,a0
    299e:	cb90                	sw	a2,16(a5)
    29a0:	cbd4                	sw	a3,20(a5)
    29a2:	4398                	lw	a4,0(a5)
    29a4:	03176713          	ori	a4,a4,49
    29a8:	c398                	sw	a4,0(a5)
    29aa:	43d8                	lw	a4,4(a5)
    29ac:	8b05                	andi	a4,a4,1
    29ae:	df75                	beqz	a4,29aa <delay_us+0x20>
    29b0:	4398                	lw	a4,0(a5)
    29b2:	9b79                	andi	a4,a4,-2
    29b4:	c398                	sw	a4,0(a5)
    29b6:	8082                	ret

000029b8 <Delay_Us>:
    29b8:	879fd2ef          	jal	t0,230 <__riscv_save_0>
    29bc:	fcfff0ef          	jal	ra,298a <delay_us>
    29c0:	895fd06f          	j	254 <__riscv_restore_0>

000029c4 <Delay_Ms>:
    29c4:	e000f7b7          	lui	a5,0xe000f
    29c8:	43d8                	lw	a4,4(a5)
    29ca:	4681                	li	a3,0
    29cc:	9b79                	andi	a4,a4,-2
    29ce:	c3d8                	sw	a4,4(a5)
    29d0:	8741d703          	lhu	a4,-1932(gp) # 2000011c <p_ms>
    29d4:	02a70633          	mul	a2,a4,a0
    29d8:	cb90                	sw	a2,16(a5)
    29da:	cbd4                	sw	a3,20(a5)
    29dc:	4398                	lw	a4,0(a5)
    29de:	03176713          	ori	a4,a4,49
    29e2:	c398                	sw	a4,0(a5)
    29e4:	43d8                	lw	a4,4(a5)
    29e6:	8b05                	andi	a4,a4,1
    29e8:	df75                	beqz	a4,29e4 <Delay_Ms+0x20>
    29ea:	4398                	lw	a4,0(a5)
    29ec:	9b79                	andi	a4,a4,-2
    29ee:	c398                	sw	a4,0(a5)
    29f0:	8082                	ret

000029f2 <delay_ms>:
    29f2:	83ffd2ef          	jal	t0,230 <__riscv_save_0>
    29f6:	fcfff0ef          	jal	ra,29c4 <Delay_Ms>
    29fa:	85bfd06f          	j	254 <__riscv_restore_0>

000029fe <__adddf3>:
    29fe:	00100837          	lui	a6,0x100
    2a02:	1101                	addi	sp,sp,-32
    2a04:	187d                	addi	a6,a6,-1
    2a06:	00b87733          	and	a4,a6,a1
    2a0a:	ca26                	sw	s1,20(sp)
    2a0c:	00d87833          	and	a6,a6,a3
    2a10:	0145d493          	srli	s1,a1,0x14
    2a14:	0146d313          	srli	t1,a3,0x14
    2a18:	00371e13          	slli	t3,a4,0x3
    2a1c:	c64e                	sw	s3,12(sp)
    2a1e:	01d55713          	srli	a4,a0,0x1d
    2a22:	080e                	slli	a6,a6,0x3
    2a24:	01d65793          	srli	a5,a2,0x1d
    2a28:	7ff4f493          	andi	s1,s1,2047
    2a2c:	7ff37313          	andi	t1,t1,2047
    2a30:	ce06                	sw	ra,28(sp)
    2a32:	cc22                	sw	s0,24(sp)
    2a34:	c84a                	sw	s2,16(sp)
    2a36:	01f5d993          	srli	s3,a1,0x1f
    2a3a:	01f6de93          	srli	t4,a3,0x1f
    2a3e:	01c76733          	or	a4,a4,t3
    2a42:	00351f13          	slli	t5,a0,0x3
    2a46:	0107e833          	or	a6,a5,a6
    2a4a:	00361f93          	slli	t6,a2,0x3
    2a4e:	40648e33          	sub	t3,s1,t1
    2a52:	19d98063          	beq	s3,t4,2bd2 <__adddf3+0x1d4>
    2a56:	13c05663          	blez	t3,2b82 <__adddf3+0x184>
    2a5a:	1c030463          	beqz	t1,2c22 <__adddf3+0x224>
    2a5e:	008006b7          	lui	a3,0x800
    2a62:	7ff00793          	li	a5,2047
    2a66:	00d86833          	or	a6,a6,a3
    2a6a:	36f48f63          	beq	s1,a5,2de8 <__adddf3+0x3ea>
    2a6e:	03800793          	li	a5,56
    2a72:	35c7c063          	blt	a5,t3,2db2 <__adddf3+0x3b4>
    2a76:	47fd                	li	a5,31
    2a78:	47c7cd63          	blt	a5,t3,2ef2 <__adddf3+0x4f4>
    2a7c:	02000513          	li	a0,32
    2a80:	41c50533          	sub	a0,a0,t3
    2a84:	01cfd7b3          	srl	a5,t6,t3
    2a88:	00a816b3          	sll	a3,a6,a0
    2a8c:	00af9933          	sll	s2,t6,a0
    2a90:	8edd                	or	a3,a3,a5
    2a92:	01203933          	snez	s2,s2
    2a96:	01c857b3          	srl	a5,a6,t3
    2a9a:	0126e933          	or	s2,a3,s2
    2a9e:	8f1d                	sub	a4,a4,a5
    2aa0:	412f0933          	sub	s2,t5,s2
    2aa4:	012f37b3          	sltu	a5,t5,s2
    2aa8:	40f70633          	sub	a2,a4,a5
    2aac:	00861793          	slli	a5,a2,0x8
    2ab0:	2407d463          	bgez	a5,2cf8 <__adddf3+0x2fa>
    2ab4:	00800737          	lui	a4,0x800
    2ab8:	177d                	addi	a4,a4,-1
    2aba:	00e67433          	and	s0,a2,a4
    2abe:	2c040c63          	beqz	s0,2d96 <__adddf3+0x398>
    2ac2:	8522                	mv	a0,s0
    2ac4:	1e4020ef          	jal	ra,4ca8 <__clzsi2>
    2ac8:	ff850713          	addi	a4,a0,-8
    2acc:	02000793          	li	a5,32
    2ad0:	8f99                	sub	a5,a5,a4
    2ad2:	00f957b3          	srl	a5,s2,a5
    2ad6:	00e41633          	sll	a2,s0,a4
    2ada:	8fd1                	or	a5,a5,a2
    2adc:	00e91933          	sll	s2,s2,a4
    2ae0:	2a974163          	blt	a4,s1,2d82 <__adddf3+0x384>
    2ae4:	40970533          	sub	a0,a4,s1
    2ae8:	00150613          	addi	a2,a0,1
    2aec:	477d                	li	a4,31
    2aee:	38c74d63          	blt	a4,a2,2e88 <__adddf3+0x48a>
    2af2:	02000713          	li	a4,32
    2af6:	8f11                	sub	a4,a4,a2
    2af8:	00c956b3          	srl	a3,s2,a2
    2afc:	00e91933          	sll	s2,s2,a4
    2b00:	00e79733          	sll	a4,a5,a4
    2b04:	8f55                	or	a4,a4,a3
    2b06:	01203933          	snez	s2,s2
    2b0a:	01276933          	or	s2,a4,s2
    2b0e:	00c7d633          	srl	a2,a5,a2
    2b12:	4481                	li	s1,0
    2b14:	00797793          	andi	a5,s2,7
    2b18:	cf81                	beqz	a5,2b30 <__adddf3+0x132>
    2b1a:	00f97713          	andi	a4,s2,15
    2b1e:	4791                	li	a5,4
    2b20:	00f70863          	beq	a4,a5,2b30 <__adddf3+0x132>
    2b24:	00490713          	addi	a4,s2,4
    2b28:	01273933          	sltu	s2,a4,s2
    2b2c:	964a                	add	a2,a2,s2
    2b2e:	893a                	mv	s2,a4
    2b30:	00861793          	slli	a5,a2,0x8
    2b34:	1c07d663          	bgez	a5,2d00 <__adddf3+0x302>
    2b38:	00148513          	addi	a0,s1,1
    2b3c:	7ff00793          	li	a5,2047
    2b40:	85ce                	mv	a1,s3
    2b42:	20f50463          	beq	a0,a5,2d4a <__adddf3+0x34c>
    2b46:	ff8007b7          	lui	a5,0xff800
    2b4a:	17fd                	addi	a5,a5,-1
    2b4c:	8ff1                	and	a5,a5,a2
    2b4e:	01d79893          	slli	a7,a5,0x1d
    2b52:	00395913          	srli	s2,s2,0x3
    2b56:	07a6                	slli	a5,a5,0x9
    2b58:	0128e8b3          	or	a7,a7,s2
    2b5c:	83b1                	srli	a5,a5,0xc
    2b5e:	7ff57513          	andi	a0,a0,2047
    2b62:	00c79693          	slli	a3,a5,0xc
    2b66:	0552                	slli	a0,a0,0x14
    2b68:	40f2                	lw	ra,28(sp)
    2b6a:	4462                	lw	s0,24(sp)
    2b6c:	82b1                	srli	a3,a3,0xc
    2b6e:	05fe                	slli	a1,a1,0x1f
    2b70:	8ec9                	or	a3,a3,a0
    2b72:	8ecd                	or	a3,a3,a1
    2b74:	44d2                	lw	s1,20(sp)
    2b76:	4942                	lw	s2,16(sp)
    2b78:	49b2                	lw	s3,12(sp)
    2b7a:	8546                	mv	a0,a7
    2b7c:	85b6                	mv	a1,a3
    2b7e:	6105                	addi	sp,sp,32
    2b80:	8082                	ret
    2b82:	0a0e1e63          	bnez	t3,2c3e <__adddf3+0x240>
    2b86:	00148313          	addi	t1,s1,1
    2b8a:	7fe37313          	andi	t1,t1,2046
    2b8e:	22031763          	bnez	t1,2dbc <__adddf3+0x3be>
    2b92:	01e767b3          	or	a5,a4,t5
    2b96:	01f868b3          	or	a7,a6,t6
    2b9a:	1a049d63          	bnez	s1,2d54 <__adddf3+0x356>
    2b9e:	40078763          	beqz	a5,2fac <__adddf3+0x5ae>
    2ba2:	44088663          	beqz	a7,2fee <__adddf3+0x5f0>
    2ba6:	41ff0933          	sub	s2,t5,t6
    2baa:	410707b3          	sub	a5,a4,a6
    2bae:	012f3633          	sltu	a2,t5,s2
    2bb2:	40c78633          	sub	a2,a5,a2
    2bb6:	00861793          	slli	a5,a2,0x8
    2bba:	4c07d663          	bgez	a5,3086 <__adddf3+0x688>
    2bbe:	41ef8933          	sub	s2,t6,t5
    2bc2:	40e807b3          	sub	a5,a6,a4
    2bc6:	012fb633          	sltu	a2,t6,s2
    2bca:	40c78633          	sub	a2,a5,a2
    2bce:	89f6                	mv	s3,t4
    2bd0:	b791                	j	2b14 <__adddf3+0x116>
    2bd2:	0fc05063          	blez	t3,2cb2 <__adddf3+0x2b4>
    2bd6:	0c030063          	beqz	t1,2c96 <__adddf3+0x298>
    2bda:	008006b7          	lui	a3,0x800
    2bde:	7ff00793          	li	a5,2047
    2be2:	00d86833          	or	a6,a6,a3
    2be6:	3af48a63          	beq	s1,a5,2f9a <__adddf3+0x59c>
    2bea:	03800793          	li	a5,56
    2bee:	13c7cb63          	blt	a5,t3,2d24 <__adddf3+0x326>
    2bf2:	47fd                	li	a5,31
    2bf4:	35c7df63          	bge	a5,t3,2f52 <__adddf3+0x554>
    2bf8:	fe0e0913          	addi	s2,t3,-32
    2bfc:	02000793          	li	a5,32
    2c00:	012856b3          	srl	a3,a6,s2
    2c04:	00fe0a63          	beq	t3,a5,2c18 <__adddf3+0x21a>
    2c08:	04000913          	li	s2,64
    2c0c:	41c90933          	sub	s2,s2,t3
    2c10:	01281933          	sll	s2,a6,s2
    2c14:	012fefb3          	or	t6,t6,s2
    2c18:	01f03933          	snez	s2,t6
    2c1c:	00d96933          	or	s2,s2,a3
    2c20:	a231                	j	2d2c <__adddf3+0x32e>
    2c22:	01f867b3          	or	a5,a6,t6
    2c26:	1c078a63          	beqz	a5,2dfa <__adddf3+0x3fc>
    2c2a:	fffe0793          	addi	a5,t3,-1
    2c2e:	38078c63          	beqz	a5,2fc6 <__adddf3+0x5c8>
    2c32:	7ff00693          	li	a3,2047
    2c36:	1ade0963          	beq	t3,a3,2de8 <__adddf3+0x3ea>
    2c3a:	8e3e                	mv	t3,a5
    2c3c:	bd0d                	j	2a6e <__adddf3+0x70>
    2c3e:	409305b3          	sub	a1,t1,s1
    2c42:	22049163          	bnez	s1,2e64 <__adddf3+0x466>
    2c46:	01e767b3          	or	a5,a4,t5
    2c4a:	32078763          	beqz	a5,2f78 <__adddf3+0x57a>
    2c4e:	fff58793          	addi	a5,a1,-1 # 40020fff <_eusrstack+0x20018fff>
    2c52:	44078163          	beqz	a5,3094 <__adddf3+0x696>
    2c56:	7ff00693          	li	a3,2047
    2c5a:	20d58c63          	beq	a1,a3,2e72 <__adddf3+0x474>
    2c5e:	85be                	mv	a1,a5
    2c60:	03800793          	li	a5,56
    2c64:	2ab7cc63          	blt	a5,a1,2f1c <__adddf3+0x51e>
    2c68:	47fd                	li	a5,31
    2c6a:	3cb7cf63          	blt	a5,a1,3048 <__adddf3+0x64a>
    2c6e:	02000793          	li	a5,32
    2c72:	8f8d                	sub	a5,a5,a1
    2c74:	00f71933          	sll	s2,a4,a5
    2c78:	00bf56b3          	srl	a3,t5,a1
    2c7c:	00ff17b3          	sll	a5,t5,a5
    2c80:	00d96933          	or	s2,s2,a3
    2c84:	00f037b3          	snez	a5,a5
    2c88:	00b75733          	srl	a4,a4,a1
    2c8c:	00f96933          	or	s2,s2,a5
    2c90:	40e80833          	sub	a6,a6,a4
    2c94:	ac41                	j	2f24 <__adddf3+0x526>
    2c96:	01f867b3          	or	a5,a6,t6
    2c9a:	34078063          	beqz	a5,2fda <__adddf3+0x5dc>
    2c9e:	fffe0793          	addi	a5,t3,-1
    2ca2:	20078a63          	beqz	a5,2eb6 <__adddf3+0x4b8>
    2ca6:	7ff00693          	li	a3,2047
    2caa:	2ede0863          	beq	t3,a3,2f9a <__adddf3+0x59c>
    2cae:	8e3e                	mv	t3,a5
    2cb0:	bf2d                	j	2bea <__adddf3+0x1ec>
    2cb2:	140e1e63          	bnez	t3,2e0e <__adddf3+0x410>
    2cb6:	00148693          	addi	a3,s1,1
    2cba:	7fe6f793          	andi	a5,a3,2046
    2cbe:	34079163          	bnez	a5,3000 <__adddf3+0x602>
    2cc2:	01e767b3          	or	a5,a4,t5
    2cc6:	2c049563          	bnez	s1,2f90 <__adddf3+0x592>
    2cca:	3e078063          	beqz	a5,30aa <__adddf3+0x6ac>
    2cce:	01f867b3          	or	a5,a6,t6
    2cd2:	30078e63          	beqz	a5,2fee <__adddf3+0x5f0>
    2cd6:	01ff0933          	add	s2,t5,t6
    2cda:	010707b3          	add	a5,a4,a6
    2cde:	01e93f33          	sltu	t5,s2,t5
    2ce2:	01e78633          	add	a2,a5,t5
    2ce6:	00861793          	slli	a5,a2,0x8
    2cea:	0007d763          	bgez	a5,2cf8 <__adddf3+0x2fa>
    2cee:	ff8007b7          	lui	a5,0xff800
    2cf2:	17fd                	addi	a5,a5,-1
    2cf4:	8e7d                	and	a2,a2,a5
    2cf6:	4485                	li	s1,1
    2cf8:	00797793          	andi	a5,s2,7
    2cfc:	e0079fe3          	bnez	a5,2b1a <__adddf3+0x11c>
    2d00:	01d61793          	slli	a5,a2,0x1d
    2d04:	00395893          	srli	a7,s2,0x3
    2d08:	00f8e8b3          	or	a7,a7,a5
    2d0c:	00365793          	srli	a5,a2,0x3
    2d10:	7ff00713          	li	a4,2047
    2d14:	04e48d63          	beq	s1,a4,2d6e <__adddf3+0x370>
    2d18:	07b2                	slli	a5,a5,0xc
    2d1a:	83b1                	srli	a5,a5,0xc
    2d1c:	7ff4f513          	andi	a0,s1,2047
    2d20:	85ce                	mv	a1,s3
    2d22:	b581                	j	2b62 <__adddf3+0x164>
    2d24:	01f86933          	or	s2,a6,t6
    2d28:	01203933          	snez	s2,s2
    2d2c:	997a                	add	s2,s2,t5
    2d2e:	01e937b3          	sltu	a5,s2,t5
    2d32:	00e78633          	add	a2,a5,a4
    2d36:	00861793          	slli	a5,a2,0x8
    2d3a:	fa07dfe3          	bgez	a5,2cf8 <__adddf3+0x2fa>
    2d3e:	0485                	addi	s1,s1,1
    2d40:	7ff00793          	li	a5,2047
    2d44:	18f49663          	bne	s1,a5,2ed0 <__adddf3+0x4d2>
    2d48:	85ce                	mv	a1,s3
    2d4a:	7ff00513          	li	a0,2047
    2d4e:	4781                	li	a5,0
    2d50:	4881                	li	a7,0
    2d52:	bd01                	j	2b62 <__adddf3+0x164>
    2d54:	ebc1                	bnez	a5,2de4 <__adddf3+0x3e6>
    2d56:	3a088463          	beqz	a7,30fe <__adddf3+0x700>
    2d5a:	00361693          	slli	a3,a2,0x3
    2d5e:	01d81793          	slli	a5,a6,0x1d
    2d62:	828d                	srli	a3,a3,0x3
    2d64:	00d7e8b3          	or	a7,a5,a3
    2d68:	89f6                	mv	s3,t4
    2d6a:	00385793          	srli	a5,a6,0x3
    2d6e:	00f8e7b3          	or	a5,a7,a5
    2d72:	dbf9                	beqz	a5,2d48 <__adddf3+0x34a>
    2d74:	4581                	li	a1,0
    2d76:	7ff00513          	li	a0,2047
    2d7a:	000807b7          	lui	a5,0x80
    2d7e:	4881                	li	a7,0
    2d80:	b3cd                	j	2b62 <__adddf3+0x164>
    2d82:	ff800637          	lui	a2,0xff800
    2d86:	167d                	addi	a2,a2,-1
    2d88:	8e7d                	and	a2,a2,a5
    2d8a:	00797793          	andi	a5,s2,7
    2d8e:	8c99                	sub	s1,s1,a4
    2d90:	d80795e3          	bnez	a5,2b1a <__adddf3+0x11c>
    2d94:	b7b5                	j	2d00 <__adddf3+0x302>
    2d96:	854a                	mv	a0,s2
    2d98:	711010ef          	jal	ra,4ca8 <__clzsi2>
    2d9c:	01850713          	addi	a4,a0,24
    2da0:	47fd                	li	a5,31
    2da2:	d2e7d5e3          	bge	a5,a4,2acc <__adddf3+0xce>
    2da6:	ff850613          	addi	a2,a0,-8
    2daa:	00c917b3          	sll	a5,s2,a2
    2dae:	4901                	li	s2,0
    2db0:	bb05                	j	2ae0 <__adddf3+0xe2>
    2db2:	01f86933          	or	s2,a6,t6
    2db6:	01203933          	snez	s2,s2
    2dba:	b1dd                	j	2aa0 <__adddf3+0xa2>
    2dbc:	41ff0933          	sub	s2,t5,t6
    2dc0:	41070633          	sub	a2,a4,a6
    2dc4:	012f3433          	sltu	s0,t5,s2
    2dc8:	40860433          	sub	s0,a2,s0
    2dcc:	00841793          	slli	a5,s0,0x8
    2dd0:	2407cd63          	bltz	a5,302a <__adddf3+0x62c>
    2dd4:	008968b3          	or	a7,s2,s0
    2dd8:	ce0893e3          	bnez	a7,2abe <__adddf3+0xc0>
    2ddc:	4781                	li	a5,0
    2dde:	4981                	li	s3,0
    2de0:	4481                	li	s1,0
    2de2:	bf1d                	j	2d18 <__adddf3+0x31a>
    2de4:	f80898e3          	bnez	a7,2d74 <__adddf3+0x376>
    2de8:	050e                	slli	a0,a0,0x3
    2dea:	01d71793          	slli	a5,a4,0x1d
    2dee:	810d                	srli	a0,a0,0x3
    2df0:	00a7e8b3          	or	a7,a5,a0
    2df4:	00375793          	srli	a5,a4,0x3
    2df8:	bf9d                	j	2d6e <__adddf3+0x370>
    2dfa:	050e                	slli	a0,a0,0x3
    2dfc:	01d71793          	slli	a5,a4,0x1d
    2e00:	810d                	srli	a0,a0,0x3
    2e02:	00a7e8b3          	or	a7,a5,a0
    2e06:	84f2                	mv	s1,t3
    2e08:	00375793          	srli	a5,a4,0x3
    2e0c:	b711                	j	2d10 <__adddf3+0x312>
    2e0e:	40930533          	sub	a0,t1,s1
    2e12:	12048263          	beqz	s1,2f36 <__adddf3+0x538>
    2e16:	008006b7          	lui	a3,0x800
    2e1a:	7ff00793          	li	a5,2047
    2e1e:	8f55                	or	a4,a4,a3
    2e20:	2ef30d63          	beq	t1,a5,311a <__adddf3+0x71c>
    2e24:	03800793          	li	a5,56
    2e28:	20a7cb63          	blt	a5,a0,303e <__adddf3+0x640>
    2e2c:	47fd                	li	a5,31
    2e2e:	2aa7c363          	blt	a5,a0,30d4 <__adddf3+0x6d6>
    2e32:	02000793          	li	a5,32
    2e36:	8f89                	sub	a5,a5,a0
    2e38:	00f71933          	sll	s2,a4,a5
    2e3c:	00af56b3          	srl	a3,t5,a0
    2e40:	00ff17b3          	sll	a5,t5,a5
    2e44:	00d96933          	or	s2,s2,a3
    2e48:	00f037b3          	snez	a5,a5
    2e4c:	00a75733          	srl	a4,a4,a0
    2e50:	00f96933          	or	s2,s2,a5
    2e54:	983a                	add	a6,a6,a4
    2e56:	997e                	add	s2,s2,t6
    2e58:	01f937b3          	sltu	a5,s2,t6
    2e5c:	01078633          	add	a2,a5,a6
    2e60:	849a                	mv	s1,t1
    2e62:	bdd1                	j	2d36 <__adddf3+0x338>
    2e64:	008006b7          	lui	a3,0x800
    2e68:	7ff00793          	li	a5,2047
    2e6c:	8f55                	or	a4,a4,a3
    2e6e:	def319e3          	bne	t1,a5,2c60 <__adddf3+0x262>
    2e72:	00361793          	slli	a5,a2,0x3
    2e76:	838d                	srli	a5,a5,0x3
    2e78:	01d81893          	slli	a7,a6,0x1d
    2e7c:	0117e8b3          	or	a7,a5,a7
    2e80:	89f6                	mv	s3,t4
    2e82:	00385793          	srli	a5,a6,0x3
    2e86:	b5e5                	j	2d6e <__adddf3+0x370>
    2e88:	fe150713          	addi	a4,a0,-31
    2e8c:	02000693          	li	a3,32
    2e90:	00e7d733          	srl	a4,a5,a4
    2e94:	00d60a63          	beq	a2,a3,2ea8 <__adddf3+0x4aa>
    2e98:	04000693          	li	a3,64
    2e9c:	40c68633          	sub	a2,a3,a2
    2ea0:	00c79633          	sll	a2,a5,a2
    2ea4:	00c96933          	or	s2,s2,a2
    2ea8:	01203933          	snez	s2,s2
    2eac:	00e96933          	or	s2,s2,a4
    2eb0:	4601                	li	a2,0
    2eb2:	4481                	li	s1,0
    2eb4:	b591                	j	2cf8 <__adddf3+0x2fa>
    2eb6:	01ff0933          	add	s2,t5,t6
    2eba:	010707b3          	add	a5,a4,a6
    2ebe:	01e93633          	sltu	a2,s2,t5
    2ec2:	963e                	add	a2,a2,a5
    2ec4:	00861793          	slli	a5,a2,0x8
    2ec8:	4485                	li	s1,1
    2eca:	e207d7e3          	bgez	a5,2cf8 <__adddf3+0x2fa>
    2ece:	4489                	li	s1,2
    2ed0:	ff8007b7          	lui	a5,0xff800
    2ed4:	17fd                	addi	a5,a5,-1
    2ed6:	8ff1                	and	a5,a5,a2
    2ed8:	00195713          	srli	a4,s2,0x1
    2edc:	00197913          	andi	s2,s2,1
    2ee0:	01276933          	or	s2,a4,s2
    2ee4:	01f79893          	slli	a7,a5,0x1f
    2ee8:	0128e933          	or	s2,a7,s2
    2eec:	0017d613          	srli	a2,a5,0x1
    2ef0:	b115                	j	2b14 <__adddf3+0x116>
    2ef2:	fe0e0913          	addi	s2,t3,-32
    2ef6:	02000793          	li	a5,32
    2efa:	012856b3          	srl	a3,a6,s2
    2efe:	00fe0a63          	beq	t3,a5,2f12 <__adddf3+0x514>
    2f02:	04000913          	li	s2,64
    2f06:	41c90933          	sub	s2,s2,t3
    2f0a:	01281933          	sll	s2,a6,s2
    2f0e:	012fefb3          	or	t6,t6,s2
    2f12:	01f03933          	snez	s2,t6
    2f16:	00d96933          	or	s2,s2,a3
    2f1a:	b659                	j	2aa0 <__adddf3+0xa2>
    2f1c:	01e76933          	or	s2,a4,t5
    2f20:	01203933          	snez	s2,s2
    2f24:	412f8933          	sub	s2,t6,s2
    2f28:	012fb7b3          	sltu	a5,t6,s2
    2f2c:	40f80633          	sub	a2,a6,a5
    2f30:	849a                	mv	s1,t1
    2f32:	89f6                	mv	s3,t4
    2f34:	bea5                	j	2aac <__adddf3+0xae>
    2f36:	01e767b3          	or	a5,a4,t5
    2f3a:	18078263          	beqz	a5,30be <__adddf3+0x6c0>
    2f3e:	fff50793          	addi	a5,a0,-1
    2f42:	1c078463          	beqz	a5,310a <__adddf3+0x70c>
    2f46:	7ff00693          	li	a3,2047
    2f4a:	12d50463          	beq	a0,a3,3072 <__adddf3+0x674>
    2f4e:	853e                	mv	a0,a5
    2f50:	bdd1                	j	2e24 <__adddf3+0x426>
    2f52:	02000793          	li	a5,32
    2f56:	41c787b3          	sub	a5,a5,t3
    2f5a:	00f816b3          	sll	a3,a6,a5
    2f5e:	00ff9933          	sll	s2,t6,a5
    2f62:	01cfd633          	srl	a2,t6,t3
    2f66:	8ed1                	or	a3,a3,a2
    2f68:	01203933          	snez	s2,s2
    2f6c:	01c857b3          	srl	a5,a6,t3
    2f70:	0126e933          	or	s2,a3,s2
    2f74:	973e                	add	a4,a4,a5
    2f76:	bb5d                	j	2d2c <__adddf3+0x32e>
    2f78:	00361793          	slli	a5,a2,0x3
    2f7c:	838d                	srli	a5,a5,0x3
    2f7e:	01d81893          	slli	a7,a6,0x1d
    2f82:	0117e8b3          	or	a7,a5,a7
    2f86:	84ae                	mv	s1,a1
    2f88:	00385793          	srli	a5,a6,0x3
    2f8c:	89f6                	mv	s3,t4
    2f8e:	b349                	j	2d10 <__adddf3+0x312>
    2f90:	c3ed                	beqz	a5,3072 <__adddf3+0x674>
    2f92:	01f86933          	or	s2,a6,t6
    2f96:	dc091fe3          	bnez	s2,2d74 <__adddf3+0x376>
    2f9a:	050e                	slli	a0,a0,0x3
    2f9c:	01d71793          	slli	a5,a4,0x1d
    2fa0:	810d                	srli	a0,a0,0x3
    2fa2:	00f568b3          	or	a7,a0,a5
    2fa6:	00375793          	srli	a5,a4,0x3
    2faa:	b3d1                	j	2d6e <__adddf3+0x370>
    2fac:	0e088163          	beqz	a7,308e <__adddf3+0x690>
    2fb0:	00361693          	slli	a3,a2,0x3
    2fb4:	01d81793          	slli	a5,a6,0x1d
    2fb8:	828d                	srli	a3,a3,0x3
    2fba:	00d7e8b3          	or	a7,a5,a3
    2fbe:	89f6                	mv	s3,t4
    2fc0:	00385793          	srli	a5,a6,0x3
    2fc4:	bb91                	j	2d18 <__adddf3+0x31a>
    2fc6:	41ff0933          	sub	s2,t5,t6
    2fca:	410707b3          	sub	a5,a4,a6
    2fce:	012f3f33          	sltu	t5,t5,s2
    2fd2:	41e78633          	sub	a2,a5,t5
    2fd6:	4485                	li	s1,1
    2fd8:	bcd1                	j	2aac <__adddf3+0xae>
    2fda:	050e                	slli	a0,a0,0x3
    2fdc:	01d71793          	slli	a5,a4,0x1d
    2fe0:	810d                	srli	a0,a0,0x3
    2fe2:	00f568b3          	or	a7,a0,a5
    2fe6:	84f2                	mv	s1,t3
    2fe8:	00375793          	srli	a5,a4,0x3
    2fec:	b315                	j	2d10 <__adddf3+0x312>
    2fee:	050e                	slli	a0,a0,0x3
    2ff0:	01d71793          	slli	a5,a4,0x1d
    2ff4:	810d                	srli	a0,a0,0x3
    2ff6:	00a7e8b3          	or	a7,a5,a0
    2ffa:	00375793          	srli	a5,a4,0x3
    2ffe:	bb29                	j	2d18 <__adddf3+0x31a>
    3000:	7ff00793          	li	a5,2047
    3004:	d4f682e3          	beq	a3,a5,2d48 <__adddf3+0x34a>
    3008:	01ff0933          	add	s2,t5,t6
    300c:	01e93633          	sltu	a2,s2,t5
    3010:	010707b3          	add	a5,a4,a6
    3014:	97b2                	add	a5,a5,a2
    3016:	01f79893          	slli	a7,a5,0x1f
    301a:	00195913          	srli	s2,s2,0x1
    301e:	0128e933          	or	s2,a7,s2
    3022:	0017d613          	srli	a2,a5,0x1
    3026:	84b6                	mv	s1,a3
    3028:	b9c1                	j	2cf8 <__adddf3+0x2fa>
    302a:	41ef8933          	sub	s2,t6,t5
    302e:	40e80733          	sub	a4,a6,a4
    3032:	012fb633          	sltu	a2,t6,s2
    3036:	40c70433          	sub	s0,a4,a2
    303a:	89f6                	mv	s3,t4
    303c:	b449                	j	2abe <__adddf3+0xc0>
    303e:	01e76933          	or	s2,a4,t5
    3042:	01203933          	snez	s2,s2
    3046:	bd01                	j	2e56 <__adddf3+0x458>
    3048:	fe058793          	addi	a5,a1,-32
    304c:	02000693          	li	a3,32
    3050:	00f757b3          	srl	a5,a4,a5
    3054:	00d58a63          	beq	a1,a3,3068 <__adddf3+0x66a>
    3058:	04000693          	li	a3,64
    305c:	40b685b3          	sub	a1,a3,a1
    3060:	00b71733          	sll	a4,a4,a1
    3064:	00ef6f33          	or	t5,t5,a4
    3068:	01e03933          	snez	s2,t5
    306c:	00f96933          	or	s2,s2,a5
    3070:	bd55                	j	2f24 <__adddf3+0x526>
    3072:	00361793          	slli	a5,a2,0x3
    3076:	838d                	srli	a5,a5,0x3
    3078:	01d81893          	slli	a7,a6,0x1d
    307c:	0117e8b3          	or	a7,a5,a7
    3080:	00385793          	srli	a5,a6,0x3
    3084:	b1ed                	j	2d6e <__adddf3+0x370>
    3086:	00c968b3          	or	a7,s2,a2
    308a:	c60897e3          	bnez	a7,2cf8 <__adddf3+0x2fa>
    308e:	4781                	li	a5,0
    3090:	4981                	li	s3,0
    3092:	b159                	j	2d18 <__adddf3+0x31a>
    3094:	41ef8933          	sub	s2,t6,t5
    3098:	40e807b3          	sub	a5,a6,a4
    309c:	012fb633          	sltu	a2,t6,s2
    30a0:	40c78633          	sub	a2,a5,a2
    30a4:	89f6                	mv	s3,t4
    30a6:	4485                	li	s1,1
    30a8:	b411                	j	2aac <__adddf3+0xae>
    30aa:	00361693          	slli	a3,a2,0x3
    30ae:	01d81793          	slli	a5,a6,0x1d
    30b2:	828d                	srli	a3,a3,0x3
    30b4:	00d7e8b3          	or	a7,a5,a3
    30b8:	00385793          	srli	a5,a6,0x3
    30bc:	b9b1                	j	2d18 <__adddf3+0x31a>
    30be:	00361693          	slli	a3,a2,0x3
    30c2:	01d81793          	slli	a5,a6,0x1d
    30c6:	828d                	srli	a3,a3,0x3
    30c8:	00d7e8b3          	or	a7,a5,a3
    30cc:	84aa                	mv	s1,a0
    30ce:	00385793          	srli	a5,a6,0x3
    30d2:	b93d                	j	2d10 <__adddf3+0x312>
    30d4:	fe050793          	addi	a5,a0,-32
    30d8:	02000693          	li	a3,32
    30dc:	00f757b3          	srl	a5,a4,a5
    30e0:	00d50a63          	beq	a0,a3,30f4 <__adddf3+0x6f6>
    30e4:	04000693          	li	a3,64
    30e8:	40a68533          	sub	a0,a3,a0
    30ec:	00a71733          	sll	a4,a4,a0
    30f0:	00ef6f33          	or	t5,t5,a4
    30f4:	01e03933          	snez	s2,t5
    30f8:	00f96933          	or	s2,s2,a5
    30fc:	bba9                	j	2e56 <__adddf3+0x458>
    30fe:	4581                	li	a1,0
    3100:	7ff00513          	li	a0,2047
    3104:	000807b7          	lui	a5,0x80
    3108:	bca9                	j	2b62 <__adddf3+0x164>
    310a:	01ff0933          	add	s2,t5,t6
    310e:	010707b3          	add	a5,a4,a6
    3112:	01f93633          	sltu	a2,s2,t6
    3116:	963e                	add	a2,a2,a5
    3118:	b375                	j	2ec4 <__adddf3+0x4c6>
    311a:	00361693          	slli	a3,a2,0x3
    311e:	01d81793          	slli	a5,a6,0x1d
    3122:	828d                	srli	a3,a3,0x3
    3124:	00d7e8b3          	or	a7,a5,a3
    3128:	00385793          	srli	a5,a6,0x3
    312c:	b189                	j	2d6e <__adddf3+0x370>

0000312e <__divdf3>:
    312e:	7139                	addi	sp,sp,-64
    3130:	0145d793          	srli	a5,a1,0x14
    3134:	dc22                	sw	s0,56(sp)
    3136:	d84a                	sw	s2,48(sp)
    3138:	d256                	sw	s5,36(sp)
    313a:	892a                	mv	s2,a0
    313c:	00c59413          	slli	s0,a1,0xc
    3140:	de06                	sw	ra,60(sp)
    3142:	da26                	sw	s1,52(sp)
    3144:	d64e                	sw	s3,44(sp)
    3146:	d452                	sw	s4,40(sp)
    3148:	d05a                	sw	s6,32(sp)
    314a:	ce5e                	sw	s7,28(sp)
    314c:	7ff7f513          	andi	a0,a5,2047
    3150:	8031                	srli	s0,s0,0xc
    3152:	01f5da93          	srli	s5,a1,0x1f
    3156:	10050b63          	beqz	a0,326c <__divdf3+0x13e>
    315a:	7ff00793          	li	a5,2047
    315e:	14f50b63          	beq	a0,a5,32b4 <__divdf3+0x186>
    3162:	01d95a13          	srli	s4,s2,0x1d
    3166:	040e                	slli	s0,s0,0x3
    3168:	008a6433          	or	s0,s4,s0
    316c:	00800a37          	lui	s4,0x800
    3170:	01446a33          	or	s4,s0,s4
    3174:	00391b13          	slli	s6,s2,0x3
    3178:	c0150493          	addi	s1,a0,-1023
    317c:	4401                	li	s0,0
    317e:	4b81                	li	s7,0
    3180:	0146d813          	srli	a6,a3,0x14
    3184:	00c69913          	slli	s2,a3,0xc
    3188:	7ff87813          	andi	a6,a6,2047
    318c:	88b2                	mv	a7,a2
    318e:	00c95913          	srli	s2,s2,0xc
    3192:	01f6d993          	srli	s3,a3,0x1f
    3196:	08080e63          	beqz	a6,3232 <__divdf3+0x104>
    319a:	7ff00793          	li	a5,2047
    319e:	04f80063          	beq	a6,a5,31de <__divdf3+0xb0>
    31a2:	01d65713          	srli	a4,a2,0x1d
    31a6:	090e                	slli	s2,s2,0x3
    31a8:	01276933          	or	s2,a4,s2
    31ac:	c0180813          	addi	a6,a6,-1023 # ffc01 <_data_lma+0xf751d>
    31b0:	008007b7          	lui	a5,0x800
    31b4:	00f96733          	or	a4,s2,a5
    31b8:	00361893          	slli	a7,a2,0x3
    31bc:	410484b3          	sub	s1,s1,a6
    31c0:	4581                	li	a1,0
    31c2:	47bd                	li	a5,15
    31c4:	013ac833          	xor	a6,s5,s3
    31c8:	1a87e463          	bltu	a5,s0,3370 <__divdf3+0x242>
    31cc:	00005797          	auipc	a5,0x5
    31d0:	23c78793          	addi	a5,a5,572 # 8408 <ascii_3216+0x184c>
    31d4:	040a                	slli	s0,s0,0x2
    31d6:	943e                	add	s0,s0,a5
    31d8:	4010                	lw	a2,0(s0)
    31da:	963e                	add	a2,a2,a5
    31dc:	8602                	jr	a2
    31de:	00c96733          	or	a4,s2,a2
    31e2:	80148493          	addi	s1,s1,-2047
    31e6:	10071263          	bnez	a4,32ea <__divdf3+0x1bc>
    31ea:	00246413          	ori	s0,s0,2
    31ee:	4881                	li	a7,0
    31f0:	4589                	li	a1,2
    31f2:	bfc1                	j	31c2 <__divdf3+0x94>
    31f4:	7ff00613          	li	a2,2047
    31f8:	4781                	li	a5,0
    31fa:	4701                	li	a4,0
    31fc:	07b2                	slli	a5,a5,0xc
    31fe:	50f2                	lw	ra,60(sp)
    3200:	5462                	lw	s0,56(sp)
    3202:	0652                	slli	a2,a2,0x14
    3204:	83b1                	srli	a5,a5,0xc
    3206:	087e                	slli	a6,a6,0x1f
    3208:	8fd1                	or	a5,a5,a2
    320a:	0107e7b3          	or	a5,a5,a6
    320e:	54d2                	lw	s1,52(sp)
    3210:	5942                	lw	s2,48(sp)
    3212:	59b2                	lw	s3,44(sp)
    3214:	5a22                	lw	s4,40(sp)
    3216:	5a92                	lw	s5,36(sp)
    3218:	5b02                	lw	s6,32(sp)
    321a:	4bf2                	lw	s7,28(sp)
    321c:	853a                	mv	a0,a4
    321e:	85be                	mv	a1,a5
    3220:	6121                	addi	sp,sp,64
    3222:	8082                	ret
    3224:	4801                	li	a6,0
    3226:	7ff00613          	li	a2,2047
    322a:	000807b7          	lui	a5,0x80
    322e:	4701                	li	a4,0
    3230:	b7f1                	j	31fc <__divdf3+0xce>
    3232:	00c96733          	or	a4,s2,a2
    3236:	c74d                	beqz	a4,32e0 <__divdf3+0x1b2>
    3238:	30090863          	beqz	s2,3548 <__divdf3+0x41a>
    323c:	854a                	mv	a0,s2
    323e:	c432                	sw	a2,8(sp)
    3240:	269010ef          	jal	ra,4ca8 <__clzsi2>
    3244:	4622                	lw	a2,8(sp)
    3246:	ff550713          	addi	a4,a0,-11
    324a:	47f5                	li	a5,29
    324c:	ff850693          	addi	a3,a0,-8
    3250:	8f99                	sub	a5,a5,a4
    3252:	00d91933          	sll	s2,s2,a3
    3256:	00f657b3          	srl	a5,a2,a5
    325a:	0127e733          	or	a4,a5,s2
    325e:	00d618b3          	sll	a7,a2,a3
    3262:	9526                	add	a0,a0,s1
    3264:	3f350493          	addi	s1,a0,1011
    3268:	4581                	li	a1,0
    326a:	bfa1                	j	31c2 <__divdf3+0x94>
    326c:	01246a33          	or	s4,s0,s2
    3270:	060a0363          	beqz	s4,32d6 <__divdf3+0x1a8>
    3274:	c636                	sw	a3,12(sp)
    3276:	c432                	sw	a2,8(sp)
    3278:	2a040663          	beqz	s0,3524 <__divdf3+0x3f6>
    327c:	8522                	mv	a0,s0
    327e:	22b010ef          	jal	ra,4ca8 <__clzsi2>
    3282:	4622                	lw	a2,8(sp)
    3284:	46b2                	lw	a3,12(sp)
    3286:	84aa                	mv	s1,a0
    3288:	ff550713          	addi	a4,a0,-11
    328c:	4a75                	li	s4,29
    328e:	ff848b13          	addi	s6,s1,-8
    3292:	40ea0a33          	sub	s4,s4,a4
    3296:	01641433          	sll	s0,s0,s6
    329a:	01495a33          	srl	s4,s2,s4
    329e:	008a6a33          	or	s4,s4,s0
    32a2:	01691b33          	sll	s6,s2,s6
    32a6:	c0d00513          	li	a0,-1011
    32aa:	409504b3          	sub	s1,a0,s1
    32ae:	4401                	li	s0,0
    32b0:	4b81                	li	s7,0
    32b2:	b5f9                	j	3180 <__divdf3+0x52>
    32b4:	01246a33          	or	s4,s0,s2
    32b8:	000a1863          	bnez	s4,32c8 <__divdf3+0x19a>
    32bc:	4421                	li	s0,8
    32be:	4b01                	li	s6,0
    32c0:	7ff00493          	li	s1,2047
    32c4:	4b89                	li	s7,2
    32c6:	bd6d                	j	3180 <__divdf3+0x52>
    32c8:	8a22                	mv	s4,s0
    32ca:	8b4a                	mv	s6,s2
    32cc:	4431                	li	s0,12
    32ce:	7ff00493          	li	s1,2047
    32d2:	4b8d                	li	s7,3
    32d4:	b575                	j	3180 <__divdf3+0x52>
    32d6:	4411                	li	s0,4
    32d8:	4b01                	li	s6,0
    32da:	4481                	li	s1,0
    32dc:	4b85                	li	s7,1
    32de:	b54d                	j	3180 <__divdf3+0x52>
    32e0:	00146413          	ori	s0,s0,1
    32e4:	4881                	li	a7,0
    32e6:	4585                	li	a1,1
    32e8:	bde9                	j	31c2 <__divdf3+0x94>
    32ea:	00346413          	ori	s0,s0,3
    32ee:	874a                	mv	a4,s2
    32f0:	458d                	li	a1,3
    32f2:	bdc1                	j	31c2 <__divdf3+0x94>
    32f4:	2e050a63          	beqz	a0,35e8 <__divdf3+0x4ba>
    32f8:	4785                	li	a5,1
    32fa:	8f89                	sub	a5,a5,a0
    32fc:	03800693          	li	a3,56
    3300:	32f6dd63          	bge	a3,a5,363a <__divdf3+0x50c>
    3304:	4601                	li	a2,0
    3306:	4781                	li	a5,0
    3308:	4701                	li	a4,0
    330a:	bdcd                	j	31fc <__divdf3+0xce>
    330c:	86ce                	mv	a3,s3
    330e:	4789                	li	a5,2
    3310:	3af58d63          	beq	a1,a5,36ca <__divdf3+0x59c>
    3314:	478d                	li	a5,3
    3316:	f0f587e3          	beq	a1,a5,3224 <__divdf3+0xf6>
    331a:	4785                	li	a5,1
    331c:	8836                	mv	a6,a3
    331e:	fef583e3          	beq	a1,a5,3304 <__divdf3+0x1d6>
    3322:	3ff48513          	addi	a0,s1,1023
    3326:	fca057e3          	blez	a0,32f4 <__divdf3+0x1c6>
    332a:	0078f793          	andi	a5,a7,7
    332e:	28079663          	bnez	a5,35ba <__divdf3+0x48c>
    3332:	0038d693          	srli	a3,a7,0x3
    3336:	00771793          	slli	a5,a4,0x7
    333a:	0007d863          	bgez	a5,334a <__divdf3+0x21c>
    333e:	ff0007b7          	lui	a5,0xff000
    3342:	17fd                	addi	a5,a5,-1
    3344:	8f7d                	and	a4,a4,a5
    3346:	40048513          	addi	a0,s1,1024
    334a:	7fe00793          	li	a5,2046
    334e:	eaa7c3e3          	blt	a5,a0,31f4 <__divdf3+0xc6>
    3352:	01d71613          	slli	a2,a4,0x1d
    3356:	00971793          	slli	a5,a4,0x9
    335a:	83b1                	srli	a5,a5,0xc
    335c:	00d66733          	or	a4,a2,a3
    3360:	7ff57613          	andi	a2,a0,2047
    3364:	bd61                	j	31fc <__divdf3+0xce>
    3366:	86d6                	mv	a3,s5
    3368:	8752                	mv	a4,s4
    336a:	88da                	mv	a7,s6
    336c:	85de                	mv	a1,s7
    336e:	b745                	j	330e <__divdf3+0x1e0>
    3370:	23476163          	bltu	a4,s4,3592 <__divdf3+0x464>
    3374:	20ea0d63          	beq	s4,a4,358e <__divdf3+0x460>
    3378:	86da                	mv	a3,s6
    337a:	14fd                	addi	s1,s1,-1
    337c:	8452                	mv	s0,s4
    337e:	4b01                	li	s6,0
    3380:	00871793          	slli	a5,a4,0x8
    3384:	0188d313          	srli	t1,a7,0x18
    3388:	00f36333          	or	t1,t1,a5
    338c:	01035e93          	srli	t4,t1,0x10
    3390:	03d457b3          	divu	a5,s0,t4
    3394:	01031f13          	slli	t5,t1,0x10
    3398:	010f5f13          	srli	t5,t5,0x10
    339c:	0106d593          	srli	a1,a3,0x10
    33a0:	00889e13          	slli	t3,a7,0x8
    33a4:	03d47433          	remu	s0,s0,t4
    33a8:	02ff0733          	mul	a4,t5,a5
    33ac:	0442                	slli	s0,s0,0x10
    33ae:	8dc1                	or	a1,a1,s0
    33b0:	00e5fb63          	bgeu	a1,a4,33c6 <__divdf3+0x298>
    33b4:	959a                	add	a1,a1,t1
    33b6:	fff78613          	addi	a2,a5,-1 # feffffff <_eusrstack+0xdeff7fff>
    33ba:	2665ee63          	bltu	a1,t1,3636 <__divdf3+0x508>
    33be:	26e5fc63          	bgeu	a1,a4,3636 <__divdf3+0x508>
    33c2:	17f9                	addi	a5,a5,-2
    33c4:	959a                	add	a1,a1,t1
    33c6:	8d99                	sub	a1,a1,a4
    33c8:	03d5d733          	divu	a4,a1,t4
    33cc:	06c2                	slli	a3,a3,0x10
    33ce:	82c1                	srli	a3,a3,0x10
    33d0:	03d5f5b3          	remu	a1,a1,t4
    33d4:	02ef0633          	mul	a2,t5,a4
    33d8:	05c2                	slli	a1,a1,0x10
    33da:	8dd5                	or	a1,a1,a3
    33dc:	00c5fb63          	bgeu	a1,a2,33f2 <__divdf3+0x2c4>
    33e0:	959a                	add	a1,a1,t1
    33e2:	fff70693          	addi	a3,a4,-1 # 7fffff <_data_lma+0x7f791b>
    33e6:	2465e663          	bltu	a1,t1,3632 <__divdf3+0x504>
    33ea:	24c5f463          	bgeu	a1,a2,3632 <__divdf3+0x504>
    33ee:	1779                	addi	a4,a4,-2
    33f0:	959a                	add	a1,a1,t1
    33f2:	07c2                	slli	a5,a5,0x10
    33f4:	6441                	lui	s0,0x10
    33f6:	8f5d                	or	a4,a4,a5
    33f8:	fff40793          	addi	a5,s0,-1 # ffff <_data_lma+0x791b>
    33fc:	00f77533          	and	a0,a4,a5
    3400:	01075893          	srli	a7,a4,0x10
    3404:	010e5f93          	srli	t6,t3,0x10
    3408:	00fe77b3          	and	a5,t3,a5
    340c:	02f502b3          	mul	t0,a0,a5
    3410:	40c586b3          	sub	a3,a1,a2
    3414:	02f883b3          	mul	t2,a7,a5
    3418:	0102d593          	srli	a1,t0,0x10
    341c:	02af8633          	mul	a2,t6,a0
    3420:	961e                	add	a2,a2,t2
    3422:	962e                	add	a2,a2,a1
    3424:	03f88533          	mul	a0,a7,t6
    3428:	00767363          	bgeu	a2,t2,342e <__divdf3+0x300>
    342c:	9522                	add	a0,a0,s0
    342e:	68c1                	lui	a7,0x10
    3430:	18fd                	addi	a7,a7,-1
    3432:	01065593          	srli	a1,a2,0x10
    3436:	01167633          	and	a2,a2,a7
    343a:	0642                	slli	a2,a2,0x10
    343c:	0112f8b3          	and	a7,t0,a7
    3440:	95aa                	add	a1,a1,a0
    3442:	9646                	add	a2,a2,a7
    3444:	12b6e663          	bltu	a3,a1,3570 <__divdf3+0x442>
    3448:	12b68263          	beq	a3,a1,356c <__divdf3+0x43e>
    344c:	40cb0633          	sub	a2,s6,a2
    3450:	8e8d                	sub	a3,a3,a1
    3452:	00cb3b33          	sltu	s6,s6,a2
    3456:	41668b33          	sub	s6,a3,s6
    345a:	3ff48513          	addi	a0,s1,1023
    345e:	17630c63          	beq	t1,s6,35d6 <__divdf3+0x4a8>
    3462:	03db58b3          	divu	a7,s6,t4
    3466:	01065593          	srli	a1,a2,0x10
    346a:	03db7b33          	remu	s6,s6,t4
    346e:	031f06b3          	mul	a3,t5,a7
    3472:	0b42                	slli	s6,s6,0x10
    3474:	0165eb33          	or	s6,a1,s6
    3478:	00db7b63          	bgeu	s6,a3,348e <__divdf3+0x360>
    347c:	9b1a                	add	s6,s6,t1
    347e:	fff88593          	addi	a1,a7,-1 # ffff <_data_lma+0x791b>
    3482:	206b6d63          	bltu	s6,t1,369c <__divdf3+0x56e>
    3486:	20db7b63          	bgeu	s6,a3,369c <__divdf3+0x56e>
    348a:	18f9                	addi	a7,a7,-2
    348c:	9b1a                	add	s6,s6,t1
    348e:	40db0b33          	sub	s6,s6,a3
    3492:	03db56b3          	divu	a3,s6,t4
    3496:	0642                	slli	a2,a2,0x10
    3498:	8241                	srli	a2,a2,0x10
    349a:	03db7b33          	remu	s6,s6,t4
    349e:	02df0f33          	mul	t5,t5,a3
    34a2:	0b42                	slli	s6,s6,0x10
    34a4:	01666633          	or	a2,a2,s6
    34a8:	01e67b63          	bgeu	a2,t5,34be <__divdf3+0x390>
    34ac:	961a                	add	a2,a2,t1
    34ae:	fff68593          	addi	a1,a3,-1 # 7fffff <_data_lma+0x7f791b>
    34b2:	1e666763          	bltu	a2,t1,36a0 <__divdf3+0x572>
    34b6:	1fe67563          	bgeu	a2,t5,36a0 <__divdf3+0x572>
    34ba:	16f9                	addi	a3,a3,-2
    34bc:	961a                	add	a2,a2,t1
    34be:	08c2                	slli	a7,a7,0x10
    34c0:	00d8e8b3          	or	a7,a7,a3
    34c4:	01089593          	slli	a1,a7,0x10
    34c8:	0108d293          	srli	t0,a7,0x10
    34cc:	81c1                	srli	a1,a1,0x10
    34ce:	02f58eb3          	mul	t4,a1,a5
    34d2:	41e60633          	sub	a2,a2,t5
    34d6:	02bf85b3          	mul	a1,t6,a1
    34da:	010ed693          	srli	a3,t4,0x10
    34de:	02f287b3          	mul	a5,t0,a5
    34e2:	95be                	add	a1,a1,a5
    34e4:	96ae                	add	a3,a3,a1
    34e6:	025f8fb3          	mul	t6,t6,t0
    34ea:	00f6f463          	bgeu	a3,a5,34f2 <__divdf3+0x3c4>
    34ee:	67c1                	lui	a5,0x10
    34f0:	9fbe                	add	t6,t6,a5
    34f2:	65c1                	lui	a1,0x10
    34f4:	15fd                	addi	a1,a1,-1
    34f6:	0106d793          	srli	a5,a3,0x10
    34fa:	8eed                	and	a3,a3,a1
    34fc:	06c2                	slli	a3,a3,0x10
    34fe:	00befeb3          	and	t4,t4,a1
    3502:	9fbe                	add	t6,t6,a5
    3504:	96f6                	add	a3,a3,t4
    3506:	09f67f63          	bgeu	a2,t6,35a4 <__divdf3+0x476>
    350a:	961a                	add	a2,a2,t1
    350c:	fff88793          	addi	a5,a7,-1
    3510:	1a666963          	bltu	a2,t1,36c2 <__divdf3+0x594>
    3514:	19f66863          	bltu	a2,t6,36a4 <__divdf3+0x576>
    3518:	1bf60f63          	beq	a2,t6,36d6 <__divdf3+0x5a8>
    351c:	88be                	mv	a7,a5
    351e:	0018e893          	ori	a7,a7,1
    3522:	b511                	j	3326 <__divdf3+0x1f8>
    3524:	854a                	mv	a0,s2
    3526:	782010ef          	jal	ra,4ca8 <__clzsi2>
    352a:	01550713          	addi	a4,a0,21
    352e:	45f1                	li	a1,28
    3530:	02050493          	addi	s1,a0,32
    3534:	4622                	lw	a2,8(sp)
    3536:	46b2                	lw	a3,12(sp)
    3538:	d4e5dae3          	bge	a1,a4,328c <__divdf3+0x15e>
    353c:	ff850413          	addi	s0,a0,-8
    3540:	00891a33          	sll	s4,s2,s0
    3544:	4b01                	li	s6,0
    3546:	b385                	j	32a6 <__divdf3+0x178>
    3548:	8532                	mv	a0,a2
    354a:	c432                	sw	a2,8(sp)
    354c:	75c010ef          	jal	ra,4ca8 <__clzsi2>
    3550:	01550713          	addi	a4,a0,21
    3554:	46f1                	li	a3,28
    3556:	87aa                	mv	a5,a0
    3558:	4622                	lw	a2,8(sp)
    355a:	02050513          	addi	a0,a0,32
    355e:	cee6d6e3          	bge	a3,a4,324a <__divdf3+0x11c>
    3562:	17e1                	addi	a5,a5,-8
    3564:	00f61733          	sll	a4,a2,a5
    3568:	4881                	li	a7,0
    356a:	b9e5                	j	3262 <__divdf3+0x134>
    356c:	eecb70e3          	bgeu	s6,a2,344c <__divdf3+0x31e>
    3570:	9b72                	add	s6,s6,t3
    3572:	01cb3533          	sltu	a0,s6,t3
    3576:	951a                	add	a0,a0,t1
    3578:	96aa                	add	a3,a3,a0
    357a:	fff70513          	addi	a0,a4,-1
    357e:	02d37863          	bgeu	t1,a3,35ae <__divdf3+0x480>
    3582:	10b6e663          	bltu	a3,a1,368e <__divdf3+0x560>
    3586:	10d58263          	beq	a1,a3,368a <__divdf3+0x55c>
    358a:	872a                	mv	a4,a0
    358c:	b5c1                	j	344c <__divdf3+0x31e>
    358e:	df1b65e3          	bltu	s6,a7,3378 <__divdf3+0x24a>
    3592:	001b5593          	srli	a1,s6,0x1
    3596:	01fa1693          	slli	a3,s4,0x1f
    359a:	001a5413          	srli	s0,s4,0x1
    359e:	8ecd                	or	a3,a3,a1
    35a0:	0b7e                	slli	s6,s6,0x1f
    35a2:	bbf9                	j	3380 <__divdf3+0x252>
    35a4:	f7f61de3          	bne	a2,t6,351e <__divdf3+0x3f0>
    35a8:	d6068fe3          	beqz	a3,3326 <__divdf3+0x1f8>
    35ac:	bfb9                	j	350a <__divdf3+0x3dc>
    35ae:	fcd31ee3          	bne	t1,a3,358a <__divdf3+0x45c>
    35b2:	fdcb78e3          	bgeu	s6,t3,3582 <__divdf3+0x454>
    35b6:	872a                	mv	a4,a0
    35b8:	bd51                	j	344c <__divdf3+0x31e>
    35ba:	00f8f793          	andi	a5,a7,15
    35be:	4691                	li	a3,4
    35c0:	d6d789e3          	beq	a5,a3,3332 <__divdf3+0x204>
    35c4:	ffc8b793          	sltiu	a5,a7,-4
    35c8:	00488693          	addi	a3,a7,4
    35cc:	0017c793          	xori	a5,a5,1
    35d0:	828d                	srli	a3,a3,0x3
    35d2:	973e                	add	a4,a4,a5
    35d4:	b38d                	j	3336 <__divdf3+0x208>
    35d6:	4681                	li	a3,0
    35d8:	4785                	li	a5,1
    35da:	fea04ce3          	bgtz	a0,35d2 <__divdf3+0x4a4>
    35de:	58fd                	li	a7,-1
    35e0:	d0051ce3          	bnez	a0,32f8 <__divdf3+0x1ca>
    35e4:	c0100493          	li	s1,-1023
    35e8:	4785                	li	a5,1
    35ea:	41e48513          	addi	a0,s1,1054
    35ee:	00a716b3          	sll	a3,a4,a0
    35f2:	00f8d633          	srl	a2,a7,a5
    35f6:	00a89533          	sll	a0,a7,a0
    35fa:	8ed1                	or	a3,a3,a2
    35fc:	00a03533          	snez	a0,a0
    3600:	8ec9                	or	a3,a3,a0
    3602:	0076f613          	andi	a2,a3,7
    3606:	00f75733          	srl	a4,a4,a5
    360a:	ce01                	beqz	a2,3622 <__divdf3+0x4f4>
    360c:	00f6f793          	andi	a5,a3,15
    3610:	4611                	li	a2,4
    3612:	00c78863          	beq	a5,a2,3622 <__divdf3+0x4f4>
    3616:	00468793          	addi	a5,a3,4
    361a:	00d7b6b3          	sltu	a3,a5,a3
    361e:	9736                	add	a4,a4,a3
    3620:	86be                	mv	a3,a5
    3622:	00871793          	slli	a5,a4,0x8
    3626:	0407d863          	bgez	a5,3676 <__divdf3+0x548>
    362a:	4605                	li	a2,1
    362c:	4781                	li	a5,0
    362e:	4701                	li	a4,0
    3630:	b6f1                	j	31fc <__divdf3+0xce>
    3632:	8736                	mv	a4,a3
    3634:	bb7d                	j	33f2 <__divdf3+0x2c4>
    3636:	87b2                	mv	a5,a2
    3638:	b379                	j	33c6 <__divdf3+0x298>
    363a:	46fd                	li	a3,31
    363c:	faf6d7e3          	bge	a3,a5,35ea <__divdf3+0x4bc>
    3640:	5605                	li	a2,-31
    3642:	8e09                	sub	a2,a2,a0
    3644:	02000693          	li	a3,32
    3648:	00c75633          	srl	a2,a4,a2
    364c:	00d78863          	beq	a5,a3,365c <__divdf3+0x52e>
    3650:	43e48793          	addi	a5,s1,1086
    3654:	00f717b3          	sll	a5,a4,a5
    3658:	00f8e8b3          	or	a7,a7,a5
    365c:	011036b3          	snez	a3,a7
    3660:	8ed1                	or	a3,a3,a2
    3662:	0076f613          	andi	a2,a3,7
    3666:	4781                	li	a5,0
    3668:	ce01                	beqz	a2,3680 <__divdf3+0x552>
    366a:	00f6f793          	andi	a5,a3,15
    366e:	4611                	li	a2,4
    3670:	4701                	li	a4,0
    3672:	fac792e3          	bne	a5,a2,3616 <__divdf3+0x4e8>
    3676:	00971793          	slli	a5,a4,0x9
    367a:	01d71613          	slli	a2,a4,0x1d
    367e:	83b1                	srli	a5,a5,0xc
    3680:	0036d713          	srli	a4,a3,0x3
    3684:	8f51                	or	a4,a4,a2
    3686:	4601                	li	a2,0
    3688:	be95                	j	31fc <__divdf3+0xce>
    368a:	f0cb70e3          	bgeu	s6,a2,358a <__divdf3+0x45c>
    368e:	9b72                	add	s6,s6,t3
    3690:	01cb3533          	sltu	a0,s6,t3
    3694:	951a                	add	a0,a0,t1
    3696:	1779                	addi	a4,a4,-2
    3698:	96aa                	add	a3,a3,a0
    369a:	bb4d                	j	344c <__divdf3+0x31e>
    369c:	88ae                	mv	a7,a1
    369e:	bbc5                	j	348e <__divdf3+0x360>
    36a0:	86ae                	mv	a3,a1
    36a2:	bd31                	j	34be <__divdf3+0x390>
    36a4:	001e1793          	slli	a5,t3,0x1
    36a8:	01c7be33          	sltu	t3,a5,t3
    36ac:	9372                	add	t1,t1,t3
    36ae:	961a                	add	a2,a2,t1
    36b0:	18f9                	addi	a7,a7,-2
    36b2:	8e3e                	mv	t3,a5
    36b4:	e7f615e3          	bne	a2,t6,351e <__divdf3+0x3f0>
    36b8:	c6de07e3          	beq	t3,a3,3326 <__divdf3+0x1f8>
    36bc:	0018e893          	ori	a7,a7,1
    36c0:	b19d                	j	3326 <__divdf3+0x1f8>
    36c2:	88be                	mv	a7,a5
    36c4:	fff60ae3          	beq	a2,t6,36b8 <__divdf3+0x58a>
    36c8:	bd99                	j	351e <__divdf3+0x3f0>
    36ca:	8836                	mv	a6,a3
    36cc:	7ff00613          	li	a2,2047
    36d0:	4781                	li	a5,0
    36d2:	4701                	li	a4,0
    36d4:	b625                	j	31fc <__divdf3+0xce>
    36d6:	fcde67e3          	bltu	t3,a3,36a4 <__divdf3+0x576>
    36da:	88be                	mv	a7,a5
    36dc:	fede10e3          	bne	t3,a3,36bc <__divdf3+0x58e>
    36e0:	b199                	j	3326 <__divdf3+0x1f8>

000036e2 <__muldf3>:
    36e2:	7139                	addi	sp,sp,-64
    36e4:	d84a                	sw	s2,48(sp)
    36e6:	0145d913          	srli	s2,a1,0x14
    36ea:	d64e                	sw	s3,44(sp)
    36ec:	d452                	sw	s4,40(sp)
    36ee:	d256                	sw	s5,36(sp)
    36f0:	00c59993          	slli	s3,a1,0xc
    36f4:	de06                	sw	ra,60(sp)
    36f6:	dc22                	sw	s0,56(sp)
    36f8:	da26                	sw	s1,52(sp)
    36fa:	d05a                	sw	s6,32(sp)
    36fc:	ce5e                	sw	s7,28(sp)
    36fe:	7ff97913          	andi	s2,s2,2047
    3702:	8a2a                	mv	s4,a0
    3704:	00c9d993          	srli	s3,s3,0xc
    3708:	01f5da93          	srli	s5,a1,0x1f
    370c:	0e090d63          	beqz	s2,3806 <__muldf3+0x124>
    3710:	7ff00793          	li	a5,2047
    3714:	18f90663          	beq	s2,a5,38a0 <__muldf3+0x1be>
    3718:	01d55413          	srli	s0,a0,0x1d
    371c:	098e                	slli	s3,s3,0x3
    371e:	013469b3          	or	s3,s0,s3
    3722:	00800437          	lui	s0,0x800
    3726:	0089e433          	or	s0,s3,s0
    372a:	00351493          	slli	s1,a0,0x3
    372e:	c0190913          	addi	s2,s2,-1023
    3732:	4981                	li	s3,0
    3734:	4b81                	li	s7,0
    3736:	0146d713          	srli	a4,a3,0x14
    373a:	00c69a13          	slli	s4,a3,0xc
    373e:	7ff77713          	andi	a4,a4,2047
    3742:	85b2                	mv	a1,a2
    3744:	00ca5a13          	srli	s4,s4,0xc
    3748:	01f6db13          	srli	s6,a3,0x1f
    374c:	10070b63          	beqz	a4,3862 <__muldf3+0x180>
    3750:	7ff00793          	li	a5,2047
    3754:	04f70363          	beq	a4,a5,379a <__muldf3+0xb8>
    3758:	01d65793          	srli	a5,a2,0x1d
    375c:	0a0e                	slli	s4,s4,0x3
    375e:	0147ea33          	or	s4,a5,s4
    3762:	c0170713          	addi	a4,a4,-1023
    3766:	008007b7          	lui	a5,0x800
    376a:	00fa67b3          	or	a5,s4,a5
    376e:	00361593          	slli	a1,a2,0x3
    3772:	993a                	add	s2,s2,a4
    3774:	4881                	li	a7,0
    3776:	016ac733          	xor	a4,s5,s6
    377a:	46bd                	li	a3,15
    377c:	853a                	mv	a0,a4
    377e:	00190813          	addi	a6,s2,1
    3782:	1736e863          	bltu	a3,s3,38f2 <__muldf3+0x210>
    3786:	00005617          	auipc	a2,0x5
    378a:	cc260613          	addi	a2,a2,-830 # 8448 <ascii_3216+0x188c>
    378e:	098a                	slli	s3,s3,0x2
    3790:	99b2                	add	s3,s3,a2
    3792:	0009a683          	lw	a3,0(s3)
    3796:	96b2                	add	a3,a3,a2
    3798:	8682                	jr	a3
    379a:	00ca67b3          	or	a5,s4,a2
    379e:	7ff90913          	addi	s2,s2,2047
    37a2:	12079963          	bnez	a5,38d4 <__muldf3+0x1f2>
    37a6:	0029e993          	ori	s3,s3,2
    37aa:	4581                	li	a1,0
    37ac:	4889                	li	a7,2
    37ae:	b7e1                	j	3776 <__muldf3+0x94>
    37b0:	4701                	li	a4,0
    37b2:	7ff00793          	li	a5,2047
    37b6:	00080437          	lui	s0,0x80
    37ba:	4481                	li	s1,0
    37bc:	0432                	slli	s0,s0,0xc
    37be:	07d2                	slli	a5,a5,0x14
    37c0:	8031                	srli	s0,s0,0xc
    37c2:	077e                	slli	a4,a4,0x1f
    37c4:	8c5d                	or	s0,s0,a5
    37c6:	8c59                	or	s0,s0,a4
    37c8:	85a2                	mv	a1,s0
    37ca:	50f2                	lw	ra,60(sp)
    37cc:	5462                	lw	s0,56(sp)
    37ce:	8526                	mv	a0,s1
    37d0:	5942                	lw	s2,48(sp)
    37d2:	54d2                	lw	s1,52(sp)
    37d4:	59b2                	lw	s3,44(sp)
    37d6:	5a22                	lw	s4,40(sp)
    37d8:	5a92                	lw	s5,36(sp)
    37da:	5b02                	lw	s6,32(sp)
    37dc:	4bf2                	lw	s7,28(sp)
    37de:	6121                	addi	sp,sp,64
    37e0:	8082                	ret
    37e2:	855a                	mv	a0,s6
    37e4:	843e                	mv	s0,a5
    37e6:	84ae                	mv	s1,a1
    37e8:	8bc6                	mv	s7,a7
    37ea:	4789                	li	a5,2
    37ec:	0efb8d63          	beq	s7,a5,38e6 <__muldf3+0x204>
    37f0:	478d                	li	a5,3
    37f2:	fafb8fe3          	beq	s7,a5,37b0 <__muldf3+0xce>
    37f6:	4785                	li	a5,1
    37f8:	872a                	mv	a4,a0
    37fa:	38fb9e63          	bne	s7,a5,3b96 <__muldf3+0x4b4>
    37fe:	4781                	li	a5,0
    3800:	4401                	li	s0,0
    3802:	4481                	li	s1,0
    3804:	bf65                	j	37bc <__muldf3+0xda>
    3806:	00a9e433          	or	s0,s3,a0
    380a:	c061                	beqz	s0,38ca <__muldf3+0x1e8>
    380c:	c636                	sw	a3,12(sp)
    380e:	c432                	sw	a2,8(sp)
    3810:	2a098c63          	beqz	s3,3ac8 <__muldf3+0x3e6>
    3814:	854e                	mv	a0,s3
    3816:	492010ef          	jal	ra,4ca8 <__clzsi2>
    381a:	4622                	lw	a2,8(sp)
    381c:	46b2                	lw	a3,12(sp)
    381e:	87aa                	mv	a5,a0
    3820:	ff550713          	addi	a4,a0,-11
    3824:	4475                	li	s0,29
    3826:	ff878493          	addi	s1,a5,-8 # 7ffff8 <_data_lma+0x7f7914>
    382a:	8c19                	sub	s0,s0,a4
    382c:	009999b3          	sll	s3,s3,s1
    3830:	008a5433          	srl	s0,s4,s0
    3834:	01346433          	or	s0,s0,s3
    3838:	009a14b3          	sll	s1,s4,s1
    383c:	0146d713          	srli	a4,a3,0x14
    3840:	c0d00913          	li	s2,-1011
    3844:	00c69a13          	slli	s4,a3,0xc
    3848:	7ff77713          	andi	a4,a4,2047
    384c:	40f90933          	sub	s2,s2,a5
    3850:	4981                	li	s3,0
    3852:	4b81                	li	s7,0
    3854:	85b2                	mv	a1,a2
    3856:	00ca5a13          	srli	s4,s4,0xc
    385a:	01f6db13          	srli	s6,a3,0x1f
    385e:	ee0719e3          	bnez	a4,3750 <__muldf3+0x6e>
    3862:	00ca67b3          	or	a5,s4,a2
    3866:	c7b1                	beqz	a5,38b2 <__muldf3+0x1d0>
    3868:	220a0f63          	beqz	s4,3aa6 <__muldf3+0x3c4>
    386c:	8552                	mv	a0,s4
    386e:	c432                	sw	a2,8(sp)
    3870:	438010ef          	jal	ra,4ca8 <__clzsi2>
    3874:	4622                	lw	a2,8(sp)
    3876:	872a                	mv	a4,a0
    3878:	ff550693          	addi	a3,a0,-11
    387c:	47f5                	li	a5,29
    387e:	ff870593          	addi	a1,a4,-8
    3882:	8f95                	sub	a5,a5,a3
    3884:	00ba1a33          	sll	s4,s4,a1
    3888:	00f657b3          	srl	a5,a2,a5
    388c:	0147e7b3          	or	a5,a5,s4
    3890:	00b615b3          	sll	a1,a2,a1
    3894:	40e90933          	sub	s2,s2,a4
    3898:	c0d90913          	addi	s2,s2,-1011
    389c:	4881                	li	a7,0
    389e:	bde1                	j	3776 <__muldf3+0x94>
    38a0:	00a9e433          	or	s0,s3,a0
    38a4:	ec01                	bnez	s0,38bc <__muldf3+0x1da>
    38a6:	49a1                	li	s3,8
    38a8:	4481                	li	s1,0
    38aa:	7ff00913          	li	s2,2047
    38ae:	4b89                	li	s7,2
    38b0:	b559                	j	3736 <__muldf3+0x54>
    38b2:	0019e993          	ori	s3,s3,1
    38b6:	4581                	li	a1,0
    38b8:	4885                	li	a7,1
    38ba:	bd75                	j	3776 <__muldf3+0x94>
    38bc:	844e                	mv	s0,s3
    38be:	84aa                	mv	s1,a0
    38c0:	49b1                	li	s3,12
    38c2:	7ff00913          	li	s2,2047
    38c6:	4b8d                	li	s7,3
    38c8:	b5bd                	j	3736 <__muldf3+0x54>
    38ca:	4991                	li	s3,4
    38cc:	4481                	li	s1,0
    38ce:	4901                	li	s2,0
    38d0:	4b85                	li	s7,1
    38d2:	b595                	j	3736 <__muldf3+0x54>
    38d4:	0039e993          	ori	s3,s3,3
    38d8:	87d2                	mv	a5,s4
    38da:	488d                	li	a7,3
    38dc:	bd69                	j	3776 <__muldf3+0x94>
    38de:	4789                	li	a5,2
    38e0:	8556                	mv	a0,s5
    38e2:	f0fb97e3          	bne	s7,a5,37f0 <__muldf3+0x10e>
    38e6:	872a                	mv	a4,a0
    38e8:	7ff00793          	li	a5,2047
    38ec:	4401                	li	s0,0
    38ee:	4481                	li	s1,0
    38f0:	b5f1                	j	37bc <__muldf3+0xda>
    38f2:	6ec1                	lui	t4,0x10
    38f4:	fffe8613          	addi	a2,t4,-1 # ffff <_data_lma+0x791b>
    38f8:	0104d693          	srli	a3,s1,0x10
    38fc:	0105de13          	srli	t3,a1,0x10
    3900:	8cf1                	and	s1,s1,a2
    3902:	8df1                	and	a1,a1,a2
    3904:	02958633          	mul	a2,a1,s1
    3908:	02b68333          	mul	t1,a3,a1
    390c:	01065893          	srli	a7,a2,0x10
    3910:	029e0533          	mul	a0,t3,s1
    3914:	951a                	add	a0,a0,t1
    3916:	98aa                	add	a7,a7,a0
    3918:	03c682b3          	mul	t0,a3,t3
    391c:	0068f363          	bgeu	a7,t1,3922 <__muldf3+0x240>
    3920:	92f6                	add	t0,t0,t4
    3922:	6fc1                	lui	t6,0x10
    3924:	ffff8313          	addi	t1,t6,-1 # ffff <_data_lma+0x791b>
    3928:	0067f533          	and	a0,a5,t1
    392c:	0107d393          	srli	t2,a5,0x10
    3930:	0068f7b3          	and	a5,a7,t1
    3934:	07c2                	slli	a5,a5,0x10
    3936:	00667333          	and	t1,a2,t1
    393a:	933e                	add	t1,t1,a5
    393c:	02950633          	mul	a2,a0,s1
    3940:	0108d893          	srli	a7,a7,0x10
    3944:	02a687b3          	mul	a5,a3,a0
    3948:	01065f13          	srli	t5,a2,0x10
    394c:	029384b3          	mul	s1,t2,s1
    3950:	94be                	add	s1,s1,a5
    3952:	94fa                	add	s1,s1,t5
    3954:	02768eb3          	mul	t4,a3,t2
    3958:	00f4f363          	bgeu	s1,a5,395e <__muldf3+0x27c>
    395c:	9efe                	add	t4,t4,t6
    395e:	6a41                	lui	s4,0x10
    3960:	fffa0793          	addi	a5,s4,-1 # ffff <_data_lma+0x791b>
    3964:	01045f93          	srli	t6,s0,0x10
    3968:	00f476b3          	and	a3,s0,a5
    396c:	00f4f9b3          	and	s3,s1,a5
    3970:	8e7d                	and	a2,a2,a5
    3972:	80c1                	srli	s1,s1,0x10
    3974:	02d58433          	mul	s0,a1,a3
    3978:	09c2                	slli	s3,s3,0x10
    397a:	01d48f33          	add	t5,s1,t4
    397e:	99b2                	add	s3,s3,a2
    3980:	98ce                	add	a7,a7,s3
    3982:	02de07b3          	mul	a5,t3,a3
    3986:	01045e93          	srli	t4,s0,0x10
    398a:	02bf85b3          	mul	a1,t6,a1
    398e:	97ae                	add	a5,a5,a1
    3990:	9ebe                	add	t4,t4,a5
    3992:	03fe0e33          	mul	t3,t3,t6
    3996:	00bef363          	bgeu	t4,a1,399c <__muldf3+0x2ba>
    399a:	9e52                	add	t3,t3,s4
    399c:	67c1                	lui	a5,0x10
    399e:	fff78593          	addi	a1,a5,-1 # ffff <_data_lma+0x791b>
    39a2:	00bef633          	and	a2,t4,a1
    39a6:	8c6d                	and	s0,s0,a1
    39a8:	0642                	slli	a2,a2,0x10
    39aa:	9622                	add	a2,a2,s0
    39ac:	010ede93          	srli	t4,t4,0x10
    39b0:	02d505b3          	mul	a1,a0,a3
    39b4:	9e76                	add	t3,t3,t4
    39b6:	02af8533          	mul	a0,t6,a0
    39ba:	0105d413          	srli	s0,a1,0x10
    39be:	02d386b3          	mul	a3,t2,a3
    39c2:	96aa                	add	a3,a3,a0
    39c4:	96a2                	add	a3,a3,s0
    39c6:	03f38fb3          	mul	t6,t2,t6
    39ca:	00a6f363          	bgeu	a3,a0,39d0 <__muldf3+0x2ee>
    39ce:	9fbe                	add	t6,t6,a5
    39d0:	6541                	lui	a0,0x10
    39d2:	157d                	addi	a0,a0,-1
    39d4:	00a6f7b3          	and	a5,a3,a0
    39d8:	07c2                	slli	a5,a5,0x10
    39da:	8d6d                	and	a0,a0,a1
    39dc:	97aa                	add	a5,a5,a0
    39de:	005885b3          	add	a1,a7,t0
    39e2:	0135b9b3          	sltu	s3,a1,s3
    39e6:	97fa                	add	a5,a5,t5
    39e8:	95b2                	add	a1,a1,a2
    39ea:	01378433          	add	s0,a5,s3
    39ee:	00c5b633          	sltu	a2,a1,a2
    39f2:	01c40eb3          	add	t4,s0,t3
    39f6:	00ce8533          	add	a0,t4,a2
    39fa:	01343433          	sltu	s0,s0,s3
    39fe:	01e7b7b3          	sltu	a5,a5,t5
    3a02:	8fc1                	or	a5,a5,s0
    3a04:	01cebe33          	sltu	t3,t4,t3
    3a08:	0106d413          	srli	s0,a3,0x10
    3a0c:	00c53633          	sltu	a2,a0,a2
    3a10:	943e                	add	s0,s0,a5
    3a12:	00ce6633          	or	a2,t3,a2
    3a16:	00959493          	slli	s1,a1,0x9
    3a1a:	9432                	add	s0,s0,a2
    3a1c:	947e                	add	s0,s0,t6
    3a1e:	0064e4b3          	or	s1,s1,t1
    3a22:	0426                	slli	s0,s0,0x9
    3a24:	01755693          	srli	a3,a0,0x17
    3a28:	009034b3          	snez	s1,s1
    3a2c:	81dd                	srli	a1,a1,0x17
    3a2e:	00951793          	slli	a5,a0,0x9
    3a32:	8ccd                	or	s1,s1,a1
    3a34:	8c55                	or	s0,s0,a3
    3a36:	8cdd                	or	s1,s1,a5
    3a38:	00741793          	slli	a5,s0,0x7
    3a3c:	0007db63          	bgez	a5,3a52 <__muldf3+0x370>
    3a40:	0014d793          	srli	a5,s1,0x1
    3a44:	8885                	andi	s1,s1,1
    3a46:	01f41693          	slli	a3,s0,0x1f
    3a4a:	8cdd                	or	s1,s1,a5
    3a4c:	8cd5                	or	s1,s1,a3
    3a4e:	8005                	srli	s0,s0,0x1
    3a50:	8942                	mv	s2,a6
    3a52:	3ff90793          	addi	a5,s2,1023
    3a56:	08f05963          	blez	a5,3ae8 <__muldf3+0x406>
    3a5a:	0074f693          	andi	a3,s1,7
    3a5e:	ce81                	beqz	a3,3a76 <__muldf3+0x394>
    3a60:	00f4f693          	andi	a3,s1,15
    3a64:	4611                	li	a2,4
    3a66:	00c68863          	beq	a3,a2,3a76 <__muldf3+0x394>
    3a6a:	00448693          	addi	a3,s1,4
    3a6e:	0096b4b3          	sltu	s1,a3,s1
    3a72:	9426                	add	s0,s0,s1
    3a74:	84b6                	mv	s1,a3
    3a76:	00741693          	slli	a3,s0,0x7
    3a7a:	0006d863          	bgez	a3,3a8a <__muldf3+0x3a8>
    3a7e:	ff0007b7          	lui	a5,0xff000
    3a82:	17fd                	addi	a5,a5,-1
    3a84:	8c7d                	and	s0,s0,a5
    3a86:	40090793          	addi	a5,s2,1024
    3a8a:	7fe00693          	li	a3,2046
    3a8e:	0ef6cf63          	blt	a3,a5,3b8c <__muldf3+0x4aa>
    3a92:	0034d693          	srli	a3,s1,0x3
    3a96:	01d41493          	slli	s1,s0,0x1d
    3a9a:	0426                	slli	s0,s0,0x9
    3a9c:	8cd5                	or	s1,s1,a3
    3a9e:	8031                	srli	s0,s0,0xc
    3aa0:	7ff7f793          	andi	a5,a5,2047
    3aa4:	bb21                	j	37bc <__muldf3+0xda>
    3aa6:	8532                	mv	a0,a2
    3aa8:	c432                	sw	a2,8(sp)
    3aaa:	1fe010ef          	jal	ra,4ca8 <__clzsi2>
    3aae:	01550693          	addi	a3,a0,21 # 10015 <_data_lma+0x7931>
    3ab2:	47f1                	li	a5,28
    3ab4:	02050713          	addi	a4,a0,32
    3ab8:	4622                	lw	a2,8(sp)
    3aba:	dcd7d1e3          	bge	a5,a3,387c <__muldf3+0x19a>
    3abe:	1561                	addi	a0,a0,-8
    3ac0:	00a617b3          	sll	a5,a2,a0
    3ac4:	4581                	li	a1,0
    3ac6:	b3f9                	j	3894 <__muldf3+0x1b2>
    3ac8:	1e0010ef          	jal	ra,4ca8 <__clzsi2>
    3acc:	01550713          	addi	a4,a0,21
    3ad0:	45f1                	li	a1,28
    3ad2:	02050793          	addi	a5,a0,32
    3ad6:	4622                	lw	a2,8(sp)
    3ad8:	46b2                	lw	a3,12(sp)
    3ada:	d4e5d5e3          	bge	a1,a4,3824 <__muldf3+0x142>
    3ade:	1561                	addi	a0,a0,-8
    3ae0:	00aa1433          	sll	s0,s4,a0
    3ae4:	4481                	li	s1,0
    3ae6:	bb99                	j	383c <__muldf3+0x15a>
    3ae8:	4685                	li	a3,1
    3aea:	8e9d                	sub	a3,a3,a5
    3aec:	e7b1                	bnez	a5,3b38 <__muldf3+0x456>
    3aee:	41e90913          	addi	s2,s2,1054
    3af2:	012497b3          	sll	a5,s1,s2
    3af6:	00d4d4b3          	srl	s1,s1,a3
    3afa:	01241933          	sll	s2,s0,s2
    3afe:	00f037b3          	snez	a5,a5
    3b02:	009964b3          	or	s1,s2,s1
    3b06:	8cdd                	or	s1,s1,a5
    3b08:	0074f793          	andi	a5,s1,7
    3b0c:	00d456b3          	srl	a3,s0,a3
    3b10:	cf81                	beqz	a5,3b28 <__muldf3+0x446>
    3b12:	00f4f793          	andi	a5,s1,15
    3b16:	4611                	li	a2,4
    3b18:	00c78863          	beq	a5,a2,3b28 <__muldf3+0x446>
    3b1c:	00448793          	addi	a5,s1,4
    3b20:	0097b4b3          	sltu	s1,a5,s1
    3b24:	96a6                	add	a3,a3,s1
    3b26:	84be                	mv	s1,a5
    3b28:	00869793          	slli	a5,a3,0x8
    3b2c:	0407d863          	bgez	a5,3b7c <__muldf3+0x49a>
    3b30:	4785                	li	a5,1
    3b32:	4401                	li	s0,0
    3b34:	4481                	li	s1,0
    3b36:	b159                	j	37bc <__muldf3+0xda>
    3b38:	03800613          	li	a2,56
    3b3c:	ccd641e3          	blt	a2,a3,37fe <__muldf3+0x11c>
    3b40:	467d                	li	a2,31
    3b42:	fad656e3          	bge	a2,a3,3aee <__muldf3+0x40c>
    3b46:	5605                	li	a2,-31
    3b48:	40f607b3          	sub	a5,a2,a5
    3b4c:	02000593          	li	a1,32
    3b50:	00f45633          	srl	a2,s0,a5
    3b54:	00b68763          	beq	a3,a1,3b62 <__muldf3+0x480>
    3b58:	43e90913          	addi	s2,s2,1086
    3b5c:	012417b3          	sll	a5,s0,s2
    3b60:	8cdd                	or	s1,s1,a5
    3b62:	009034b3          	snez	s1,s1
    3b66:	8cd1                	or	s1,s1,a2
    3b68:	0074f693          	andi	a3,s1,7
    3b6c:	4401                	li	s0,0
    3b6e:	ca99                	beqz	a3,3b84 <__muldf3+0x4a2>
    3b70:	00f4f793          	andi	a5,s1,15
    3b74:	4611                	li	a2,4
    3b76:	4681                	li	a3,0
    3b78:	fac792e3          	bne	a5,a2,3b1c <__muldf3+0x43a>
    3b7c:	00969413          	slli	s0,a3,0x9
    3b80:	8031                	srli	s0,s0,0xc
    3b82:	06f6                	slli	a3,a3,0x1d
    3b84:	808d                	srli	s1,s1,0x3
    3b86:	8cd5                	or	s1,s1,a3
    3b88:	4781                	li	a5,0
    3b8a:	b90d                	j	37bc <__muldf3+0xda>
    3b8c:	7ff00793          	li	a5,2047
    3b90:	4401                	li	s0,0
    3b92:	4481                	li	s1,0
    3b94:	b125                	j	37bc <__muldf3+0xda>
    3b96:	8942                	mv	s2,a6
    3b98:	bd6d                	j	3a52 <__muldf3+0x370>

00003b9a <__fixdfsi>:
    3b9a:	0145d793          	srli	a5,a1,0x14
    3b9e:	001006b7          	lui	a3,0x100
    3ba2:	fff68713          	addi	a4,a3,-1 # fffff <_data_lma+0xf791b>
    3ba6:	7ff7f793          	andi	a5,a5,2047
    3baa:	3fe00613          	li	a2,1022
    3bae:	8f6d                	and	a4,a4,a1
    3bb0:	81fd                	srli	a1,a1,0x1f
    3bb2:	00f65c63          	bge	a2,a5,3bca <__fixdfsi+0x30>
    3bb6:	41d00613          	li	a2,1053
    3bba:	00f65a63          	bge	a2,a5,3bce <__fixdfsi+0x34>
    3bbe:	80000537          	lui	a0,0x80000
    3bc2:	fff54513          	not	a0,a0
    3bc6:	952e                	add	a0,a0,a1
    3bc8:	8082                	ret
    3bca:	4501                	li	a0,0
    3bcc:	8082                	ret
    3bce:	43300613          	li	a2,1075
    3bd2:	8e1d                	sub	a2,a2,a5
    3bd4:	487d                	li	a6,31
    3bd6:	8f55                	or	a4,a4,a3
    3bd8:	00c85d63          	bge	a6,a2,3bf2 <__fixdfsi+0x58>
    3bdc:	41300693          	li	a3,1043
    3be0:	40f687b3          	sub	a5,a3,a5
    3be4:	00f757b3          	srl	a5,a4,a5
    3be8:	40f00533          	neg	a0,a5
    3bec:	f1e5                	bnez	a1,3bcc <__fixdfsi+0x32>
    3bee:	853e                	mv	a0,a5
    3bf0:	8082                	ret
    3bf2:	bed78793          	addi	a5,a5,-1043 # fefffbed <_eusrstack+0xdeff7bed>
    3bf6:	00f717b3          	sll	a5,a4,a5
    3bfa:	00c55533          	srl	a0,a0,a2
    3bfe:	8fc9                	or	a5,a5,a0
    3c00:	b7e5                	j	3be8 <__fixdfsi+0x4e>

00003c02 <__floatsidf>:
    3c02:	1141                	addi	sp,sp,-16
    3c04:	c606                	sw	ra,12(sp)
    3c06:	c422                	sw	s0,8(sp)
    3c08:	c226                	sw	s1,4(sp)
    3c0a:	cd0d                	beqz	a0,3c44 <__floatsidf+0x42>
    3c0c:	41f55793          	srai	a5,a0,0x1f
    3c10:	00a7c4b3          	xor	s1,a5,a0
    3c14:	8c9d                	sub	s1,s1,a5
    3c16:	842a                	mv	s0,a0
    3c18:	8526                	mv	a0,s1
    3c1a:	08e010ef          	jal	ra,4ca8 <__clzsi2>
    3c1e:	41e00693          	li	a3,1054
    3c22:	8e89                	sub	a3,a3,a0
    3c24:	47a9                	li	a5,10
    3c26:	807d                	srli	s0,s0,0x1f
    3c28:	7ff6f693          	andi	a3,a3,2047
    3c2c:	02a7cd63          	blt	a5,a0,3c66 <__floatsidf+0x64>
    3c30:	472d                	li	a4,11
    3c32:	8f09                	sub	a4,a4,a0
    3c34:	00e4d7b3          	srl	a5,s1,a4
    3c38:	0555                	addi	a0,a0,21
    3c3a:	07b2                	slli	a5,a5,0xc
    3c3c:	00a494b3          	sll	s1,s1,a0
    3c40:	83b1                	srli	a5,a5,0xc
    3c42:	a029                	j	3c4c <__floatsidf+0x4a>
    3c44:	4401                	li	s0,0
    3c46:	4681                	li	a3,0
    3c48:	4781                	li	a5,0
    3c4a:	4481                	li	s1,0
    3c4c:	07b2                	slli	a5,a5,0xc
    3c4e:	06d2                	slli	a3,a3,0x14
    3c50:	83b1                	srli	a5,a5,0xc
    3c52:	047e                	slli	s0,s0,0x1f
    3c54:	8fd5                	or	a5,a5,a3
    3c56:	8fc1                	or	a5,a5,s0
    3c58:	40b2                	lw	ra,12(sp)
    3c5a:	4422                	lw	s0,8(sp)
    3c5c:	8526                	mv	a0,s1
    3c5e:	85be                	mv	a1,a5
    3c60:	4492                	lw	s1,4(sp)
    3c62:	0141                	addi	sp,sp,16
    3c64:	8082                	ret
    3c66:	1555                	addi	a0,a0,-11
    3c68:	00a497b3          	sll	a5,s1,a0
    3c6c:	07b2                	slli	a5,a5,0xc
    3c6e:	83b1                	srli	a5,a5,0xc
    3c70:	4481                	li	s1,0
    3c72:	bfe9                	j	3c4c <__floatsidf+0x4a>

00003c74 <__floatunsidf>:
    3c74:	cd1d                	beqz	a0,3cb2 <__floatunsidf+0x3e>
    3c76:	1141                	addi	sp,sp,-16
    3c78:	c422                	sw	s0,8(sp)
    3c7a:	c606                	sw	ra,12(sp)
    3c7c:	842a                	mv	s0,a0
    3c7e:	02a010ef          	jal	ra,4ca8 <__clzsi2>
    3c82:	41e00693          	li	a3,1054
    3c86:	8e89                	sub	a3,a3,a0
    3c88:	47a9                	li	a5,10
    3c8a:	7ff6f693          	andi	a3,a3,2047
    3c8e:	02a7dc63          	bge	a5,a0,3cc6 <__floatunsidf+0x52>
    3c92:	1555                	addi	a0,a0,-11
    3c94:	00a417b3          	sll	a5,s0,a0
    3c98:	07b2                	slli	a5,a5,0xc
    3c9a:	83b1                	srli	a5,a5,0xc
    3c9c:	4701                	li	a4,0
    3c9e:	40b2                	lw	ra,12(sp)
    3ca0:	4422                	lw	s0,8(sp)
    3ca2:	07b2                	slli	a5,a5,0xc
    3ca4:	06d2                	slli	a3,a3,0x14
    3ca6:	83b1                	srli	a5,a5,0xc
    3ca8:	8fd5                	or	a5,a5,a3
    3caa:	853a                	mv	a0,a4
    3cac:	85be                	mv	a1,a5
    3cae:	0141                	addi	sp,sp,16
    3cb0:	8082                	ret
    3cb2:	4781                	li	a5,0
    3cb4:	4681                	li	a3,0
    3cb6:	07b2                	slli	a5,a5,0xc
    3cb8:	06d2                	slli	a3,a3,0x14
    3cba:	83b1                	srli	a5,a5,0xc
    3cbc:	4701                	li	a4,0
    3cbe:	8fd5                	or	a5,a5,a3
    3cc0:	853a                	mv	a0,a4
    3cc2:	85be                	mv	a1,a5
    3cc4:	8082                	ret
    3cc6:	472d                	li	a4,11
    3cc8:	8f09                	sub	a4,a4,a0
    3cca:	00e457b3          	srl	a5,s0,a4
    3cce:	07b2                	slli	a5,a5,0xc
    3cd0:	01550713          	addi	a4,a0,21 # 80000015 <_eusrstack+0x5fff8015>
    3cd4:	00e41733          	sll	a4,s0,a4
    3cd8:	83b1                	srli	a5,a5,0xc
    3cda:	b7d1                	j	3c9e <__floatunsidf+0x2a>

00003cdc <__addsf3>:
    3cdc:	1141                	addi	sp,sp,-16
    3cde:	00800737          	lui	a4,0x800
    3ce2:	177d                	addi	a4,a4,-1
    3ce4:	0175d813          	srli	a6,a1,0x17
    3ce8:	c226                	sw	s1,4(sp)
    3cea:	01755493          	srli	s1,a0,0x17
    3cee:	00a77333          	and	t1,a4,a0
    3cf2:	0ff4f493          	andi	s1,s1,255
    3cf6:	00b776b3          	and	a3,a4,a1
    3cfa:	c04a                	sw	s2,0(sp)
    3cfc:	0ff87813          	andi	a6,a6,255
    3d00:	01f55913          	srli	s2,a0,0x1f
    3d04:	c606                	sw	ra,12(sp)
    3d06:	c422                	sw	s0,8(sp)
    3d08:	81fd                	srli	a1,a1,0x1f
    3d0a:	879a                	mv	a5,t1
    3d0c:	8526                	mv	a0,s1
    3d0e:	864a                	mv	a2,s2
    3d10:	00331e13          	slli	t3,t1,0x3
    3d14:	00369e93          	slli	t4,a3,0x3
    3d18:	410488b3          	sub	a7,s1,a6
    3d1c:	0eb90a63          	beq	s2,a1,3e10 <__addsf3+0x134>
    3d20:	0d105063          	blez	a7,3de0 <__addsf3+0x104>
    3d24:	14080463          	beqz	a6,3e6c <__addsf3+0x190>
    3d28:	0ff00793          	li	a5,255
    3d2c:	14f48b63          	beq	s1,a5,3e82 <__addsf3+0x1a6>
    3d30:	040007b7          	lui	a5,0x4000
    3d34:	00feeeb3          	or	t4,t4,a5
    3d38:	47ed                	li	a5,27
    3d3a:	2917c163          	blt	a5,a7,3fbc <__addsf3+0x2e0>
    3d3e:	02000793          	li	a5,32
    3d42:	411787b3          	sub	a5,a5,a7
    3d46:	00fe97b3          	sll	a5,t4,a5
    3d4a:	011ed8b3          	srl	a7,t4,a7
    3d4e:	00f037b3          	snez	a5,a5
    3d52:	00f8e7b3          	or	a5,a7,a5
    3d56:	40fe07b3          	sub	a5,t3,a5
    3d5a:	00579713          	slli	a4,a5,0x5
    3d5e:	18075e63          	bgez	a4,3efa <__addsf3+0x21e>
    3d62:	04000437          	lui	s0,0x4000
    3d66:	147d                	addi	s0,s0,-1
    3d68:	8c7d                	and	s0,s0,a5
    3d6a:	8522                	mv	a0,s0
    3d6c:	73d000ef          	jal	ra,4ca8 <__clzsi2>
    3d70:	156d                	addi	a0,a0,-5
    3d72:	00a417b3          	sll	a5,s0,a0
    3d76:	1a954863          	blt	a0,s1,3f26 <__addsf3+0x24a>
    3d7a:	8d05                	sub	a0,a0,s1
    3d7c:	00150413          	addi	s0,a0,1
    3d80:	02000713          	li	a4,32
    3d84:	8f01                	sub	a4,a4,s0
    3d86:	00e79733          	sll	a4,a5,a4
    3d8a:	00e03733          	snez	a4,a4
    3d8e:	0087d7b3          	srl	a5,a5,s0
    3d92:	8fd9                	or	a5,a5,a4
    3d94:	4481                	li	s1,0
    3d96:	0077f713          	andi	a4,a5,7
    3d9a:	c719                	beqz	a4,3da8 <__addsf3+0xcc>
    3d9c:	00f7f713          	andi	a4,a5,15
    3da0:	4691                	li	a3,4
    3da2:	00d70363          	beq	a4,a3,3da8 <__addsf3+0xcc>
    3da6:	0791                	addi	a5,a5,4
    3da8:	00579713          	slli	a4,a5,0x5
    3dac:	14075b63          	bgez	a4,3f02 <__addsf3+0x226>
    3db0:	0485                	addi	s1,s1,1
    3db2:	0ff00713          	li	a4,255
    3db6:	864a                	mv	a2,s2
    3db8:	16e48363          	beq	s1,a4,3f1e <__addsf3+0x242>
    3dbc:	079a                	slli	a5,a5,0x6
    3dbe:	83a5                	srli	a5,a5,0x9
    3dc0:	0ff4f513          	andi	a0,s1,255
    3dc4:	40b2                	lw	ra,12(sp)
    3dc6:	4422                	lw	s0,8(sp)
    3dc8:	07a6                	slli	a5,a5,0x9
    3dca:	01751493          	slli	s1,a0,0x17
    3dce:	0097d513          	srli	a0,a5,0x9
    3dd2:	8d45                	or	a0,a0,s1
    3dd4:	067e                	slli	a2,a2,0x1f
    3dd6:	4492                	lw	s1,4(sp)
    3dd8:	4902                	lw	s2,0(sp)
    3dda:	8d51                	or	a0,a0,a2
    3ddc:	0141                	addi	sp,sp,16
    3dde:	8082                	ret
    3de0:	0a089963          	bnez	a7,3e92 <__addsf3+0x1b6>
    3de4:	00148713          	addi	a4,s1,1
    3de8:	0fe77713          	andi	a4,a4,254
    3dec:	14071763          	bnez	a4,3f3a <__addsf3+0x25e>
    3df0:	22049063          	bnez	s1,4010 <__addsf3+0x334>
    3df4:	1e0e0d63          	beqz	t3,3fee <__addsf3+0x312>
    3df8:	fc0e86e3          	beqz	t4,3dc4 <__addsf3+0xe8>
    3dfc:	41de07b3          	sub	a5,t3,t4
    3e00:	00579713          	slli	a4,a5,0x5
    3e04:	22075063          	bgez	a4,4024 <__addsf3+0x348>
    3e08:	41ce87b3          	sub	a5,t4,t3
    3e0c:	892e                	mv	s2,a1
    3e0e:	b761                	j	3d96 <__addsf3+0xba>
    3e10:	0b105c63          	blez	a7,3ec8 <__addsf3+0x1ec>
    3e14:	08080e63          	beqz	a6,3eb0 <__addsf3+0x1d4>
    3e18:	0ff00793          	li	a5,255
    3e1c:	06f48363          	beq	s1,a5,3e82 <__addsf3+0x1a6>
    3e20:	040007b7          	lui	a5,0x4000
    3e24:	00feeeb3          	or	t4,t4,a5
    3e28:	47ed                	li	a5,27
    3e2a:	1f17c963          	blt	a5,a7,401c <__addsf3+0x340>
    3e2e:	02000793          	li	a5,32
    3e32:	411787b3          	sub	a5,a5,a7
    3e36:	00fe97b3          	sll	a5,t4,a5
    3e3a:	011ed8b3          	srl	a7,t4,a7
    3e3e:	00f037b3          	snez	a5,a5
    3e42:	00f8e7b3          	or	a5,a7,a5
    3e46:	97f2                	add	a5,a5,t3
    3e48:	00579713          	slli	a4,a5,0x5
    3e4c:	0a075763          	bgez	a4,3efa <__addsf3+0x21e>
    3e50:	0485                	addi	s1,s1,1
    3e52:	0ff00713          	li	a4,255
    3e56:	0ce48463          	beq	s1,a4,3f1e <__addsf3+0x242>
    3e5a:	7e0006b7          	lui	a3,0x7e000
    3e5e:	0017d713          	srli	a4,a5,0x1
    3e62:	16fd                	addi	a3,a3,-1
    3e64:	8b85                	andi	a5,a5,1
    3e66:	8f75                	and	a4,a4,a3
    3e68:	8fd9                	or	a5,a5,a4
    3e6a:	b735                	j	3d96 <__addsf3+0xba>
    3e6c:	080e8d63          	beqz	t4,3f06 <__addsf3+0x22a>
    3e70:	18fd                	addi	a7,a7,-1
    3e72:	41de07b3          	sub	a5,t3,t4
    3e76:	ee0882e3          	beqz	a7,3d5a <__addsf3+0x7e>
    3e7a:	0ff00793          	li	a5,255
    3e7e:	eaf49de3          	bne	s1,a5,3d38 <__addsf3+0x5c>
    3e82:	08030d63          	beqz	t1,3f1c <__addsf3+0x240>
    3e86:	4601                	li	a2,0
    3e88:	0ff00513          	li	a0,255
    3e8c:	004007b7          	lui	a5,0x400
    3e90:	bf15                	j	3dc4 <__addsf3+0xe8>
    3e92:	40980733          	sub	a4,a6,s1
    3e96:	e8ed                	bnez	s1,3f88 <__addsf3+0x2ac>
    3e98:	140e0263          	beqz	t3,3fdc <__addsf3+0x300>
    3e9c:	177d                	addi	a4,a4,-1
    3e9e:	18070863          	beqz	a4,402e <__addsf3+0x352>
    3ea2:	0ff00793          	li	a5,255
    3ea6:	0ef81963          	bne	a6,a5,3f98 <__addsf3+0x2bc>
    3eaa:	892e                	mv	s2,a1
    3eac:	8336                	mv	t1,a3
    3eae:	bfd1                	j	3e82 <__addsf3+0x1a6>
    3eb0:	040e8b63          	beqz	t4,3f06 <__addsf3+0x22a>
    3eb4:	18fd                	addi	a7,a7,-1
    3eb6:	01de07b3          	add	a5,t3,t4
    3eba:	f80887e3          	beqz	a7,3e48 <__addsf3+0x16c>
    3ebe:	0ff00793          	li	a5,255
    3ec2:	f6f493e3          	bne	s1,a5,3e28 <__addsf3+0x14c>
    3ec6:	bf75                	j	3e82 <__addsf3+0x1a6>
    3ec8:	08089563          	bnez	a7,3f52 <__addsf3+0x276>
    3ecc:	0485                	addi	s1,s1,1
    3ece:	0fe4f713          	andi	a4,s1,254
    3ed2:	12071363          	bnez	a4,3ff8 <__addsf3+0x31c>
    3ed6:	10051763          	bnez	a0,3fe4 <__addsf3+0x308>
    3eda:	140e0f63          	beqz	t3,4038 <__addsf3+0x35c>
    3ede:	ee0e83e3          	beqz	t4,3dc4 <__addsf3+0xe8>
    3ee2:	01de07b3          	add	a5,t3,t4
    3ee6:	00579713          	slli	a4,a5,0x5
    3eea:	4481                	li	s1,0
    3eec:	00075763          	bgez	a4,3efa <__addsf3+0x21e>
    3ef0:	fc000737          	lui	a4,0xfc000
    3ef4:	177d                	addi	a4,a4,-1
    3ef6:	8ff9                	and	a5,a5,a4
    3ef8:	4485                	li	s1,1
    3efa:	0077f713          	andi	a4,a5,7
    3efe:	e8071fe3          	bnez	a4,3d9c <__addsf3+0xc0>
    3f02:	0037d313          	srli	t1,a5,0x3
    3f06:	0ff00793          	li	a5,255
    3f0a:	f6f48ce3          	beq	s1,a5,3e82 <__addsf3+0x1a6>
    3f0e:	00931793          	slli	a5,t1,0x9
    3f12:	83a5                	srli	a5,a5,0x9
    3f14:	0ff4f513          	andi	a0,s1,255
    3f18:	864a                	mv	a2,s2
    3f1a:	b56d                	j	3dc4 <__addsf3+0xe8>
    3f1c:	864a                	mv	a2,s2
    3f1e:	0ff00513          	li	a0,255
    3f22:	4781                	li	a5,0
    3f24:	b545                	j	3dc4 <__addsf3+0xe8>
    3f26:	fc000737          	lui	a4,0xfc000
    3f2a:	177d                	addi	a4,a4,-1
    3f2c:	8ff9                	and	a5,a5,a4
    3f2e:	0077f713          	andi	a4,a5,7
    3f32:	8c89                	sub	s1,s1,a0
    3f34:	e60714e3          	bnez	a4,3d9c <__addsf3+0xc0>
    3f38:	b7e9                	j	3f02 <__addsf3+0x226>
    3f3a:	41de0433          	sub	s0,t3,t4
    3f3e:	00541793          	slli	a5,s0,0x5
    3f42:	0c07c363          	bltz	a5,4008 <__addsf3+0x32c>
    3f46:	e20412e3          	bnez	s0,3d6a <__addsf3+0x8e>
    3f4a:	4601                	li	a2,0
    3f4c:	4501                	li	a0,0
    3f4e:	4781                	li	a5,0
    3f50:	bd95                	j	3dc4 <__addsf3+0xe8>
    3f52:	40980733          	sub	a4,a6,s1
    3f56:	c4ad                	beqz	s1,3fc0 <__addsf3+0x2e4>
    3f58:	0ff00793          	li	a5,255
    3f5c:	f4f808e3          	beq	a6,a5,3eac <__addsf3+0x1d0>
    3f60:	040007b7          	lui	a5,0x4000
    3f64:	00fe6e33          	or	t3,t3,a5
    3f68:	47ed                	li	a5,27
    3f6a:	0ce7cc63          	blt	a5,a4,4042 <__addsf3+0x366>
    3f6e:	02000793          	li	a5,32
    3f72:	8f99                	sub	a5,a5,a4
    3f74:	00fe17b3          	sll	a5,t3,a5
    3f78:	00ee5733          	srl	a4,t3,a4
    3f7c:	00f037b3          	snez	a5,a5
    3f80:	8fd9                	or	a5,a5,a4
    3f82:	97f6                	add	a5,a5,t4
    3f84:	84c2                	mv	s1,a6
    3f86:	b5c9                	j	3e48 <__addsf3+0x16c>
    3f88:	0ff00793          	li	a5,255
    3f8c:	f0f80fe3          	beq	a6,a5,3eaa <__addsf3+0x1ce>
    3f90:	040007b7          	lui	a5,0x4000
    3f94:	00fe6e33          	or	t3,t3,a5
    3f98:	47ed                	li	a5,27
    3f9a:	08e7c363          	blt	a5,a4,4020 <__addsf3+0x344>
    3f9e:	02000693          	li	a3,32
    3fa2:	8e99                	sub	a3,a3,a4
    3fa4:	00de16b3          	sll	a3,t3,a3
    3fa8:	00ee57b3          	srl	a5,t3,a4
    3fac:	00d03733          	snez	a4,a3
    3fb0:	8fd9                	or	a5,a5,a4
    3fb2:	40fe87b3          	sub	a5,t4,a5
    3fb6:	84c2                	mv	s1,a6
    3fb8:	892e                	mv	s2,a1
    3fba:	b345                	j	3d5a <__addsf3+0x7e>
    3fbc:	4785                	li	a5,1
    3fbe:	bb61                	j	3d56 <__addsf3+0x7a>
    3fc0:	060e0e63          	beqz	t3,403c <__addsf3+0x360>
    3fc4:	177d                	addi	a4,a4,-1
    3fc6:	01de07b3          	add	a5,t3,t4
    3fca:	84c2                	mv	s1,a6
    3fcc:	e6070ee3          	beqz	a4,3e48 <__addsf3+0x16c>
    3fd0:	0ff00793          	li	a5,255
    3fd4:	f8f81ae3          	bne	a6,a5,3f68 <__addsf3+0x28c>
    3fd8:	8336                	mv	t1,a3
    3fda:	b565                	j	3e82 <__addsf3+0x1a6>
    3fdc:	8336                	mv	t1,a3
    3fde:	84c2                	mv	s1,a6
    3fe0:	892e                	mv	s2,a1
    3fe2:	b715                	j	3f06 <__addsf3+0x22a>
    3fe4:	ec0e04e3          	beqz	t3,3eac <__addsf3+0x1d0>
    3fe8:	e80e8de3          	beqz	t4,3e82 <__addsf3+0x1a6>
    3fec:	bd69                	j	3e86 <__addsf3+0x1aa>
    3fee:	020e8d63          	beqz	t4,4028 <__addsf3+0x34c>
    3ff2:	862e                	mv	a2,a1
    3ff4:	87b6                	mv	a5,a3
    3ff6:	b3f9                	j	3dc4 <__addsf3+0xe8>
    3ff8:	0ff00793          	li	a5,255
    3ffc:	f2f481e3          	beq	s1,a5,3f1e <__addsf3+0x242>
    4000:	01de07b3          	add	a5,t3,t4
    4004:	8385                	srli	a5,a5,0x1
    4006:	bdd5                	j	3efa <__addsf3+0x21e>
    4008:	41ce8433          	sub	s0,t4,t3
    400c:	892e                	mv	s2,a1
    400e:	bbb1                	j	3d6a <__addsf3+0x8e>
    4010:	fc0e1ce3          	bnez	t3,3fe8 <__addsf3+0x30c>
    4014:	e60e89e3          	beqz	t4,3e86 <__addsf3+0x1aa>
    4018:	892e                	mv	s2,a1
    401a:	bd49                	j	3eac <__addsf3+0x1d0>
    401c:	4785                	li	a5,1
    401e:	b525                	j	3e46 <__addsf3+0x16a>
    4020:	4785                	li	a5,1
    4022:	bf41                	j	3fb2 <__addsf3+0x2d6>
    4024:	ec079be3          	bnez	a5,3efa <__addsf3+0x21e>
    4028:	4601                	li	a2,0
    402a:	4781                	li	a5,0
    402c:	bb61                	j	3dc4 <__addsf3+0xe8>
    402e:	41ce87b3          	sub	a5,t4,t3
    4032:	84c2                	mv	s1,a6
    4034:	892e                	mv	s2,a1
    4036:	b315                	j	3d5a <__addsf3+0x7e>
    4038:	87b6                	mv	a5,a3
    403a:	b369                	j	3dc4 <__addsf3+0xe8>
    403c:	8336                	mv	t1,a3
    403e:	84c2                	mv	s1,a6
    4040:	b5d9                	j	3f06 <__addsf3+0x22a>
    4042:	4785                	li	a5,1
    4044:	bf3d                	j	3f82 <__addsf3+0x2a6>

00004046 <__divsf3>:
    4046:	7139                	addi	sp,sp,-64
    4048:	01755793          	srli	a5,a0,0x17
    404c:	d84a                	sw	s2,48(sp)
    404e:	d256                	sw	s5,36(sp)
    4050:	ce5e                	sw	s7,28(sp)
    4052:	00951a93          	slli	s5,a0,0x9
    4056:	01f55913          	srli	s2,a0,0x1f
    405a:	de06                	sw	ra,60(sp)
    405c:	dc22                	sw	s0,56(sp)
    405e:	da26                	sw	s1,52(sp)
    4060:	d64e                	sw	s3,44(sp)
    4062:	d452                	sw	s4,40(sp)
    4064:	d05a                	sw	s6,32(sp)
    4066:	0ff7f793          	andi	a5,a5,255
    406a:	009ada93          	srli	s5,s5,0x9
    406e:	8bca                	mv	s7,s2
    4070:	12078263          	beqz	a5,4194 <__divsf3+0x14e>
    4074:	0ff00713          	li	a4,255
    4078:	12e78463          	beq	a5,a4,41a0 <__divsf3+0x15a>
    407c:	0a8e                	slli	s5,s5,0x3
    407e:	04000737          	lui	a4,0x4000
    4082:	00eaeab3          	or	s5,s5,a4
    4086:	f8178a13          	addi	s4,a5,-127 # 3ffff81 <_data_lma+0x3ff789d>
    408a:	4401                	li	s0,0
    408c:	4b01                	li	s6,0
    408e:	0175d793          	srli	a5,a1,0x17
    4092:	00959493          	slli	s1,a1,0x9
    4096:	0ff7f793          	andi	a5,a5,255
    409a:	80a5                	srli	s1,s1,0x9
    409c:	01f5d993          	srli	s3,a1,0x1f
    40a0:	c7fd                	beqz	a5,418e <__divsf3+0x148>
    40a2:	0ff00713          	li	a4,255
    40a6:	02e78763          	beq	a5,a4,40d4 <__divsf3+0x8e>
    40aa:	048e                	slli	s1,s1,0x3
    40ac:	f8178793          	addi	a5,a5,-127
    40b0:	04000737          	lui	a4,0x4000
    40b4:	8cd9                	or	s1,s1,a4
    40b6:	40fa0a33          	sub	s4,s4,a5
    40ba:	4681                	li	a3,0
    40bc:	8c55                	or	s0,s0,a3
    40be:	00004717          	auipc	a4,0x4
    40c2:	3ca70713          	addi	a4,a4,970 # 8488 <ascii_3216+0x18cc>
    40c6:	040a                	slli	s0,s0,0x2
    40c8:	943a                	add	s0,s0,a4
    40ca:	401c                	lw	a5,0(s0)
    40cc:	01394933          	xor	s2,s2,s3
    40d0:	97ba                	add	a5,a5,a4
    40d2:	8782                	jr	a5
    40d4:	f01a0a13          	addi	s4,s4,-255
    40d8:	e8f9                	bnez	s1,41ae <__divsf3+0x168>
    40da:	4689                	li	a3,2
    40dc:	8c55                	or	s0,s0,a3
    40de:	00004717          	auipc	a4,0x4
    40e2:	3ea70713          	addi	a4,a4,1002 # 84c8 <ascii_3216+0x190c>
    40e6:	040a                	slli	s0,s0,0x2
    40e8:	943a                	add	s0,s0,a4
    40ea:	401c                	lw	a5,0(s0)
    40ec:	01394933          	xor	s2,s2,s3
    40f0:	97ba                	add	a5,a5,a4
    40f2:	8782                	jr	a5
    40f4:	4901                	li	s2,0
    40f6:	0ff00713          	li	a4,255
    40fa:	004007b7          	lui	a5,0x400
    40fe:	00979513          	slli	a0,a5,0x9
    4102:	50f2                	lw	ra,60(sp)
    4104:	5462                	lw	s0,56(sp)
    4106:	01771793          	slli	a5,a4,0x17
    410a:	8125                	srli	a0,a0,0x9
    410c:	097e                	slli	s2,s2,0x1f
    410e:	8d5d                	or	a0,a0,a5
    4110:	01256533          	or	a0,a0,s2
    4114:	54d2                	lw	s1,52(sp)
    4116:	5942                	lw	s2,48(sp)
    4118:	59b2                	lw	s3,44(sp)
    411a:	5a22                	lw	s4,40(sp)
    411c:	5a92                	lw	s5,36(sp)
    411e:	5b02                	lw	s6,32(sp)
    4120:	4bf2                	lw	s7,28(sp)
    4122:	6121                	addi	sp,sp,64
    4124:	8082                	ret
    4126:	0ff00713          	li	a4,255
    412a:	4781                	li	a5,0
    412c:	bfc9                	j	40fe <__divsf3+0xb8>
    412e:	8aa6                	mv	s5,s1
    4130:	8bce                	mv	s7,s3
    4132:	8b36                	mv	s6,a3
    4134:	4789                	li	a5,2
    4136:	1afb0b63          	beq	s6,a5,42ec <__divsf3+0x2a6>
    413a:	478d                	li	a5,3
    413c:	fafb0ce3          	beq	s6,a5,40f4 <__divsf3+0xae>
    4140:	4785                	li	a5,1
    4142:	0afb0a63          	beq	s6,a5,41f6 <__divsf3+0x1b0>
    4146:	07fa0713          	addi	a4,s4,127
    414a:	001bf913          	andi	s2,s7,1
    414e:	12e05763          	blez	a4,427c <__divsf3+0x236>
    4152:	007af793          	andi	a5,s5,7
    4156:	c799                	beqz	a5,4164 <__divsf3+0x11e>
    4158:	00faf793          	andi	a5,s5,15
    415c:	4691                	li	a3,4
    415e:	00d78363          	beq	a5,a3,4164 <__divsf3+0x11e>
    4162:	0a91                	addi	s5,s5,4
    4164:	004a9793          	slli	a5,s5,0x4
    4168:	0007d963          	bgez	a5,417a <__divsf3+0x134>
    416c:	f80007b7          	lui	a5,0xf8000
    4170:	17fd                	addi	a5,a5,-1
    4172:	00fafab3          	and	s5,s5,a5
    4176:	080a0713          	addi	a4,s4,128
    417a:	0fe00793          	li	a5,254
    417e:	fae7c4e3          	blt	a5,a4,4126 <__divsf3+0xe0>
    4182:	006a9793          	slli	a5,s5,0x6
    4186:	83a5                	srli	a5,a5,0x9
    4188:	0ff77713          	andi	a4,a4,255
    418c:	bf8d                	j	40fe <__divsf3+0xb8>
    418e:	e4b9                	bnez	s1,41dc <__divsf3+0x196>
    4190:	4685                	li	a3,1
    4192:	b7a9                	j	40dc <__divsf3+0x96>
    4194:	020a9463          	bnez	s5,41bc <__divsf3+0x176>
    4198:	4411                	li	s0,4
    419a:	4a01                	li	s4,0
    419c:	4b05                	li	s6,1
    419e:	bdc5                	j	408e <__divsf3+0x48>
    41a0:	000a9963          	bnez	s5,41b2 <__divsf3+0x16c>
    41a4:	4421                	li	s0,8
    41a6:	0ff00a13          	li	s4,255
    41aa:	4b09                	li	s6,2
    41ac:	b5cd                	j	408e <__divsf3+0x48>
    41ae:	468d                	li	a3,3
    41b0:	b731                	j	40bc <__divsf3+0x76>
    41b2:	4431                	li	s0,12
    41b4:	0ff00a13          	li	s4,255
    41b8:	4b0d                	li	s6,3
    41ba:	bdd1                	j	408e <__divsf3+0x48>
    41bc:	8556                	mv	a0,s5
    41be:	c62e                	sw	a1,12(sp)
    41c0:	2e9000ef          	jal	ra,4ca8 <__clzsi2>
    41c4:	ffb50793          	addi	a5,a0,-5
    41c8:	00fa9ab3          	sll	s5,s5,a5
    41cc:	f8a00793          	li	a5,-118
    41d0:	40a78a33          	sub	s4,a5,a0
    41d4:	4401                	li	s0,0
    41d6:	4b01                	li	s6,0
    41d8:	45b2                	lw	a1,12(sp)
    41da:	bd55                	j	408e <__divsf3+0x48>
    41dc:	8526                	mv	a0,s1
    41de:	2cb000ef          	jal	ra,4ca8 <__clzsi2>
    41e2:	ffb50713          	addi	a4,a0,-5
    41e6:	00aa07b3          	add	a5,s4,a0
    41ea:	00e494b3          	sll	s1,s1,a4
    41ee:	07678a13          	addi	s4,a5,118 # f8000076 <_eusrstack+0xd7ff8076>
    41f2:	4681                	li	a3,0
    41f4:	b5e1                	j	40bc <__divsf3+0x76>
    41f6:	001bf913          	andi	s2,s7,1
    41fa:	4701                	li	a4,0
    41fc:	4781                	li	a5,0
    41fe:	b701                	j	40fe <__divsf3+0xb8>
    4200:	6641                	lui	a2,0x10
    4202:	00549513          	slli	a0,s1,0x5
    4206:	167d                	addi	a2,a2,-1
    4208:	01055793          	srli	a5,a0,0x10
    420c:	8e69                	and	a2,a2,a0
    420e:	0a9afa63          	bgeu	s5,s1,42c2 <__divsf3+0x27c>
    4212:	02fad5b3          	divu	a1,s5,a5
    4216:	1a7d                	addi	s4,s4,-1
    4218:	86d6                	mv	a3,s5
    421a:	4701                	li	a4,0
    421c:	02c58833          	mul	a6,a1,a2
    4220:	02f6f6b3          	remu	a3,a3,a5
    4224:	06c2                	slli	a3,a3,0x10
    4226:	8f55                	or	a4,a4,a3
    4228:	01077b63          	bgeu	a4,a6,423e <__divsf3+0x1f8>
    422c:	972a                	add	a4,a4,a0
    422e:	fff58693          	addi	a3,a1,-1 # ffff <_data_lma+0x791b>
    4232:	0aa76863          	bltu	a4,a0,42e2 <__divsf3+0x29c>
    4236:	0b077663          	bgeu	a4,a6,42e2 <__divsf3+0x29c>
    423a:	15f9                	addi	a1,a1,-2
    423c:	972a                	add	a4,a4,a0
    423e:	41070733          	sub	a4,a4,a6
    4242:	02f756b3          	divu	a3,a4,a5
    4246:	02f77733          	remu	a4,a4,a5
    424a:	02c68ab3          	mul	s5,a3,a2
    424e:	01071793          	slli	a5,a4,0x10
    4252:	0157fb63          	bgeu	a5,s5,4268 <__divsf3+0x222>
    4256:	97aa                	add	a5,a5,a0
    4258:	fff68713          	addi	a4,a3,-1 # 7dffffff <_eusrstack+0x5dff7fff>
    425c:	08a7e163          	bltu	a5,a0,42de <__divsf3+0x298>
    4260:	0757ff63          	bgeu	a5,s5,42de <__divsf3+0x298>
    4264:	16f9                	addi	a3,a3,-2
    4266:	97aa                	add	a5,a5,a0
    4268:	05c2                	slli	a1,a1,0x10
    426a:	41578ab3          	sub	s5,a5,s5
    426e:	8dd5                	or	a1,a1,a3
    4270:	01503ab3          	snez	s5,s5
    4274:	0155eab3          	or	s5,a1,s5
    4278:	8bca                	mv	s7,s2
    427a:	b5f1                	j	4146 <__divsf3+0x100>
    427c:	4685                	li	a3,1
    427e:	8e99                	sub	a3,a3,a4
    4280:	c711                	beqz	a4,428c <__divsf3+0x246>
    4282:	466d                	li	a2,27
    4284:	4701                	li	a4,0
    4286:	4781                	li	a5,0
    4288:	e6d64be3          	blt	a2,a3,40fe <__divsf3+0xb8>
    428c:	09ea0a13          	addi	s4,s4,158
    4290:	014a9a33          	sll	s4,s5,s4
    4294:	00dad7b3          	srl	a5,s5,a3
    4298:	01403ab3          	snez	s5,s4
    429c:	0157e7b3          	or	a5,a5,s5
    42a0:	0077f713          	andi	a4,a5,7
    42a4:	c719                	beqz	a4,42b2 <__divsf3+0x26c>
    42a6:	00f7f713          	andi	a4,a5,15
    42aa:	4691                	li	a3,4
    42ac:	00d70363          	beq	a4,a3,42b2 <__divsf3+0x26c>
    42b0:	0791                	addi	a5,a5,4
    42b2:	00579713          	slli	a4,a5,0x5
    42b6:	02074863          	bltz	a4,42e6 <__divsf3+0x2a0>
    42ba:	079a                	slli	a5,a5,0x6
    42bc:	83a5                	srli	a5,a5,0x9
    42be:	4701                	li	a4,0
    42c0:	bd3d                	j	40fe <__divsf3+0xb8>
    42c2:	001ad693          	srli	a3,s5,0x1
    42c6:	02f6d5b3          	divu	a1,a3,a5
    42ca:	01fa9713          	slli	a4,s5,0x1f
    42ce:	8341                	srli	a4,a4,0x10
    42d0:	02c58833          	mul	a6,a1,a2
    42d4:	b7b1                	j	4220 <__divsf3+0x1da>
    42d6:	8bce                	mv	s7,s3
    42d8:	8b36                	mv	s6,a3
    42da:	4a81                	li	s5,0
    42dc:	bda1                	j	4134 <__divsf3+0xee>
    42de:	86ba                	mv	a3,a4
    42e0:	b761                	j	4268 <__divsf3+0x222>
    42e2:	85b6                	mv	a1,a3
    42e4:	bfa9                	j	423e <__divsf3+0x1f8>
    42e6:	4705                	li	a4,1
    42e8:	4781                	li	a5,0
    42ea:	bd11                	j	40fe <__divsf3+0xb8>
    42ec:	001bf913          	andi	s2,s7,1
    42f0:	0ff00713          	li	a4,255
    42f4:	4781                	li	a5,0
    42f6:	b521                	j	40fe <__divsf3+0xb8>

000042f8 <__mulsf3>:
    42f8:	7179                	addi	sp,sp,-48
    42fa:	d422                	sw	s0,40(sp)
    42fc:	01755413          	srli	s0,a0,0x17
    4300:	ce4e                	sw	s3,28(sp)
    4302:	cc52                	sw	s4,24(sp)
    4304:	00951993          	slli	s3,a0,0x9
    4308:	d606                	sw	ra,44(sp)
    430a:	d226                	sw	s1,36(sp)
    430c:	d04a                	sw	s2,32(sp)
    430e:	ca56                	sw	s5,20(sp)
    4310:	c85a                	sw	s6,16(sp)
    4312:	0ff47413          	andi	s0,s0,255
    4316:	0099d993          	srli	s3,s3,0x9
    431a:	01f55a13          	srli	s4,a0,0x1f
    431e:	c469                	beqz	s0,43e8 <__mulsf3+0xf0>
    4320:	0ff00793          	li	a5,255
    4324:	0ef40863          	beq	s0,a5,4414 <__mulsf3+0x11c>
    4328:	00399793          	slli	a5,s3,0x3
    432c:	04000737          	lui	a4,0x4000
    4330:	00e7e9b3          	or	s3,a5,a4
    4334:	f8140413          	addi	s0,s0,-127 # 3ffff81 <_data_lma+0x3ff789d>
    4338:	4481                	li	s1,0
    433a:	4b01                	li	s6,0
    433c:	0175d713          	srli	a4,a1,0x17
    4340:	00959a93          	slli	s5,a1,0x9
    4344:	0ff77713          	andi	a4,a4,255
    4348:	009ada93          	srli	s5,s5,0x9
    434c:	01f5d913          	srli	s2,a1,0x1f
    4350:	cf45                	beqz	a4,4408 <__mulsf3+0x110>
    4352:	0ff00793          	li	a5,255
    4356:	02f70c63          	beq	a4,a5,438e <__mulsf3+0x96>
    435a:	0a8e                	slli	s5,s5,0x3
    435c:	f8170713          	addi	a4,a4,-127 # 3ffff81 <_data_lma+0x3ff789d>
    4360:	040007b7          	lui	a5,0x4000
    4364:	00faeab3          	or	s5,s5,a5
    4368:	943a                	add	s0,s0,a4
    436a:	4601                	li	a2,0
    436c:	012a4533          	xor	a0,s4,s2
    4370:	47bd                	li	a5,15
    4372:	86aa                	mv	a3,a0
    4374:	00140593          	addi	a1,s0,1
    4378:	1097e263          	bltu	a5,s1,447c <__mulsf3+0x184>
    437c:	00004717          	auipc	a4,0x4
    4380:	18c70713          	addi	a4,a4,396 # 8508 <ascii_3216+0x194c>
    4384:	048a                	slli	s1,s1,0x2
    4386:	94ba                	add	s1,s1,a4
    4388:	409c                	lw	a5,0(s1)
    438a:	97ba                	add	a5,a5,a4
    438c:	8782                	jr	a5
    438e:	0ff40413          	addi	s0,s0,255
    4392:	0c0a9863          	bnez	s5,4462 <__mulsf3+0x16a>
    4396:	0024e493          	ori	s1,s1,2
    439a:	4609                	li	a2,2
    439c:	bfc1                	j	436c <__mulsf3+0x74>
    439e:	4501                	li	a0,0
    43a0:	0ff00713          	li	a4,255
    43a4:	004007b7          	lui	a5,0x400
    43a8:	50b2                	lw	ra,44(sp)
    43aa:	5422                	lw	s0,40(sp)
    43ac:	07a6                	slli	a5,a5,0x9
    43ae:	075e                	slli	a4,a4,0x17
    43b0:	83a5                	srli	a5,a5,0x9
    43b2:	057e                	slli	a0,a0,0x1f
    43b4:	8fd9                	or	a5,a5,a4
    43b6:	5492                	lw	s1,36(sp)
    43b8:	5902                	lw	s2,32(sp)
    43ba:	49f2                	lw	s3,28(sp)
    43bc:	4a62                	lw	s4,24(sp)
    43be:	4ad2                	lw	s5,20(sp)
    43c0:	4b42                	lw	s6,16(sp)
    43c2:	8d5d                	or	a0,a0,a5
    43c4:	6145                	addi	sp,sp,48
    43c6:	8082                	ret
    43c8:	86ca                	mv	a3,s2
    43ca:	89d6                	mv	s3,s5
    43cc:	8b32                	mv	s6,a2
    43ce:	4789                	li	a5,2
    43d0:	0afb0163          	beq	s6,a5,4472 <__mulsf3+0x17a>
    43d4:	478d                	li	a5,3
    43d6:	fcfb04e3          	beq	s6,a5,439e <__mulsf3+0xa6>
    43da:	4785                	li	a5,1
    43dc:	8536                	mv	a0,a3
    43de:	1afb1263          	bne	s6,a5,4582 <__mulsf3+0x28a>
    43e2:	4701                	li	a4,0
    43e4:	4781                	li	a5,0
    43e6:	b7c9                	j	43a8 <__mulsf3+0xb0>
    43e8:	04099e63          	bnez	s3,4444 <__mulsf3+0x14c>
    43ec:	0175d713          	srli	a4,a1,0x17
    43f0:	00959a93          	slli	s5,a1,0x9
    43f4:	0ff77713          	andi	a4,a4,255
    43f8:	4491                	li	s1,4
    43fa:	4401                	li	s0,0
    43fc:	4b05                	li	s6,1
    43fe:	009ada93          	srli	s5,s5,0x9
    4402:	01f5d913          	srli	s2,a1,0x1f
    4406:	f731                	bnez	a4,4352 <__mulsf3+0x5a>
    4408:	000a9d63          	bnez	s5,4422 <__mulsf3+0x12a>
    440c:	0014e493          	ori	s1,s1,1
    4410:	4605                	li	a2,1
    4412:	bfa9                	j	436c <__mulsf3+0x74>
    4414:	02099363          	bnez	s3,443a <__mulsf3+0x142>
    4418:	44a1                	li	s1,8
    441a:	0ff00413          	li	s0,255
    441e:	4b09                	li	s6,2
    4420:	bf31                	j	433c <__mulsf3+0x44>
    4422:	8556                	mv	a0,s5
    4424:	085000ef          	jal	ra,4ca8 <__clzsi2>
    4428:	ffb50793          	addi	a5,a0,-5
    442c:	8c09                	sub	s0,s0,a0
    442e:	00fa9ab3          	sll	s5,s5,a5
    4432:	f8a40413          	addi	s0,s0,-118
    4436:	4601                	li	a2,0
    4438:	bf15                	j	436c <__mulsf3+0x74>
    443a:	44b1                	li	s1,12
    443c:	0ff00413          	li	s0,255
    4440:	4b0d                	li	s6,3
    4442:	bded                	j	433c <__mulsf3+0x44>
    4444:	854e                	mv	a0,s3
    4446:	c62e                	sw	a1,12(sp)
    4448:	061000ef          	jal	ra,4ca8 <__clzsi2>
    444c:	ffb50793          	addi	a5,a0,-5
    4450:	f8a00413          	li	s0,-118
    4454:	00f999b3          	sll	s3,s3,a5
    4458:	8c09                	sub	s0,s0,a0
    445a:	4481                	li	s1,0
    445c:	4b01                	li	s6,0
    445e:	45b2                	lw	a1,12(sp)
    4460:	bdf1                	j	433c <__mulsf3+0x44>
    4462:	0034e493          	ori	s1,s1,3
    4466:	460d                	li	a2,3
    4468:	b711                	j	436c <__mulsf3+0x74>
    446a:	4789                	li	a5,2
    446c:	86d2                	mv	a3,s4
    446e:	f6fb13e3          	bne	s6,a5,43d4 <__mulsf3+0xdc>
    4472:	8536                	mv	a0,a3
    4474:	0ff00713          	li	a4,255
    4478:	4781                	li	a5,0
    447a:	b73d                	j	43a8 <__mulsf3+0xb0>
    447c:	6341                	lui	t1,0x10
    447e:	fff30693          	addi	a3,t1,-1 # ffff <_data_lma+0x791b>
    4482:	0109d613          	srli	a2,s3,0x10
    4486:	010ad893          	srli	a7,s5,0x10
    448a:	00d9f7b3          	and	a5,s3,a3
    448e:	00dafab3          	and	s5,s5,a3
    4492:	03578833          	mul	a6,a5,s5
    4496:	02f889b3          	mul	s3,a7,a5
    449a:	01085713          	srli	a4,a6,0x10
    449e:	03560ab3          	mul	s5,a2,s5
    44a2:	99d6                	add	s3,s3,s5
    44a4:	974e                	add	a4,a4,s3
    44a6:	03160633          	mul	a2,a2,a7
    44aa:	01577363          	bgeu	a4,s5,44b0 <__mulsf3+0x1b8>
    44ae:	961a                	add	a2,a2,t1
    44b0:	67c1                	lui	a5,0x10
    44b2:	17fd                	addi	a5,a5,-1
    44b4:	00f776b3          	and	a3,a4,a5
    44b8:	00f87833          	and	a6,a6,a5
    44bc:	06c2                	slli	a3,a3,0x10
    44be:	96c2                	add	a3,a3,a6
    44c0:	00669993          	slli	s3,a3,0x6
    44c4:	01075793          	srli	a5,a4,0x10
    44c8:	013039b3          	snez	s3,s3
    44cc:	82e9                	srli	a3,a3,0x1a
    44ce:	97b2                	add	a5,a5,a2
    44d0:	079a                	slli	a5,a5,0x6
    44d2:	00d9e6b3          	or	a3,s3,a3
    44d6:	00d7e9b3          	or	s3,a5,a3
    44da:	00499793          	slli	a5,s3,0x4
    44de:	0007d963          	bgez	a5,44f0 <__mulsf3+0x1f8>
    44e2:	0019d713          	srli	a4,s3,0x1
    44e6:	0019f793          	andi	a5,s3,1
    44ea:	00f769b3          	or	s3,a4,a5
    44ee:	842e                	mv	s0,a1
    44f0:	07f40713          	addi	a4,s0,127
    44f4:	04e05063          	blez	a4,4534 <__mulsf3+0x23c>
    44f8:	0079f793          	andi	a5,s3,7
    44fc:	c799                	beqz	a5,450a <__mulsf3+0x212>
    44fe:	00f9f793          	andi	a5,s3,15
    4502:	4691                	li	a3,4
    4504:	00d78363          	beq	a5,a3,450a <__mulsf3+0x212>
    4508:	0991                	addi	s3,s3,4
    450a:	00499793          	slli	a5,s3,0x4
    450e:	0007d963          	bgez	a5,4520 <__mulsf3+0x228>
    4512:	f80007b7          	lui	a5,0xf8000
    4516:	17fd                	addi	a5,a5,-1
    4518:	00f9f9b3          	and	s3,s3,a5
    451c:	08040713          	addi	a4,s0,128
    4520:	0fe00793          	li	a5,254
    4524:	04e7cb63          	blt	a5,a4,457a <__mulsf3+0x282>
    4528:	00699793          	slli	a5,s3,0x6
    452c:	83a5                	srli	a5,a5,0x9
    452e:	0ff77713          	andi	a4,a4,255
    4532:	bd9d                	j	43a8 <__mulsf3+0xb0>
    4534:	4785                	li	a5,1
    4536:	40e786b3          	sub	a3,a5,a4
    453a:	c711                	beqz	a4,4546 <__mulsf3+0x24e>
    453c:	466d                	li	a2,27
    453e:	4701                	li	a4,0
    4540:	4781                	li	a5,0
    4542:	e6d643e3          	blt	a2,a3,43a8 <__mulsf3+0xb0>
    4546:	09e40713          	addi	a4,s0,158
    454a:	00e99733          	sll	a4,s3,a4
    454e:	00e03733          	snez	a4,a4
    4552:	00d9d7b3          	srl	a5,s3,a3
    4556:	8fd9                	or	a5,a5,a4
    4558:	0077f713          	andi	a4,a5,7
    455c:	c719                	beqz	a4,456a <__mulsf3+0x272>
    455e:	00f7f713          	andi	a4,a5,15
    4562:	4691                	li	a3,4
    4564:	00d70363          	beq	a4,a3,456a <__mulsf3+0x272>
    4568:	0791                	addi	a5,a5,4
    456a:	00579713          	slli	a4,a5,0x5
    456e:	00074c63          	bltz	a4,4586 <__mulsf3+0x28e>
    4572:	079a                	slli	a5,a5,0x6
    4574:	83a5                	srli	a5,a5,0x9
    4576:	4701                	li	a4,0
    4578:	bd05                	j	43a8 <__mulsf3+0xb0>
    457a:	0ff00713          	li	a4,255
    457e:	4781                	li	a5,0
    4580:	b525                	j	43a8 <__mulsf3+0xb0>
    4582:	842e                	mv	s0,a1
    4584:	b7b5                	j	44f0 <__mulsf3+0x1f8>
    4586:	4705                	li	a4,1
    4588:	4781                	li	a5,0
    458a:	bd39                	j	43a8 <__mulsf3+0xb0>

0000458c <__subsf3>:
    458c:	00800737          	lui	a4,0x800
    4590:	1141                	addi	sp,sp,-16
    4592:	177d                	addi	a4,a4,-1
    4594:	01755693          	srli	a3,a0,0x17
    4598:	0175d813          	srli	a6,a1,0x17
    459c:	00a777b3          	and	a5,a4,a0
    45a0:	0ff6f693          	andi	a3,a3,255
    45a4:	01f55e93          	srli	t4,a0,0x1f
    45a8:	00b77633          	and	a2,a4,a1
    45ac:	c226                	sw	s1,4(sp)
    45ae:	c04a                	sw	s2,0(sp)
    45b0:	0ff87813          	andi	a6,a6,255
    45b4:	c606                	sw	ra,12(sp)
    45b6:	c422                	sw	s0,8(sp)
    45b8:	0ff00313          	li	t1,255
    45bc:	8e3e                	mv	t3,a5
    45be:	8936                	mv	s2,a3
    45c0:	84f6                	mv	s1,t4
    45c2:	00379f13          	slli	t5,a5,0x3
    45c6:	81fd                	srli	a1,a1,0x1f
    45c8:	00361513          	slli	a0,a2,0x3
    45cc:	410688b3          	sub	a7,a3,a6
    45d0:	10680263          	beq	a6,t1,46d4 <__subsf3+0x148>
    45d4:	0015c593          	xori	a1,a1,1
    45d8:	10be8c63          	beq	t4,a1,46f0 <__subsf3+0x164>
    45dc:	0d105463          	blez	a7,46a4 <__subsf3+0x118>
    45e0:	10081063          	bnez	a6,46e0 <__subsf3+0x154>
    45e4:	1e050463          	beqz	a0,47cc <__subsf3+0x240>
    45e8:	18fd                	addi	a7,a7,-1
    45ea:	40af07b3          	sub	a5,t5,a0
    45ee:	02088663          	beqz	a7,461a <__subsf3+0x8e>
    45f2:	0ff00793          	li	a5,255
    45f6:	16f68863          	beq	a3,a5,4766 <__subsf3+0x1da>
    45fa:	47ed                	li	a5,27
    45fc:	2917c763          	blt	a5,a7,488a <__subsf3+0x2fe>
    4600:	02000713          	li	a4,32
    4604:	41170733          	sub	a4,a4,a7
    4608:	00e51733          	sll	a4,a0,a4
    460c:	011557b3          	srl	a5,a0,a7
    4610:	00e03733          	snez	a4,a4
    4614:	8fd9                	or	a5,a5,a4
    4616:	40ff07b3          	sub	a5,t5,a5
    461a:	00579713          	slli	a4,a5,0x5
    461e:	1a075163          	bgez	a4,47c0 <__subsf3+0x234>
    4622:	04000437          	lui	s0,0x4000
    4626:	147d                	addi	s0,s0,-1
    4628:	8c7d                	and	s0,s0,a5
    462a:	8522                	mv	a0,s0
    462c:	2db5                	jal	4ca8 <__clzsi2>
    462e:	156d                	addi	a0,a0,-5
    4630:	00a417b3          	sll	a5,s0,a0
    4634:	1b254e63          	blt	a0,s2,47f0 <__subsf3+0x264>
    4638:	41250533          	sub	a0,a0,s2
    463c:	00150413          	addi	s0,a0,1
    4640:	02000713          	li	a4,32
    4644:	8f01                	sub	a4,a4,s0
    4646:	00e79733          	sll	a4,a5,a4
    464a:	00e03733          	snez	a4,a4
    464e:	0087d7b3          	srl	a5,a5,s0
    4652:	8fd9                	or	a5,a5,a4
    4654:	4901                	li	s2,0
    4656:	0077f713          	andi	a4,a5,7
    465a:	c719                	beqz	a4,4668 <__subsf3+0xdc>
    465c:	00f7f713          	andi	a4,a5,15
    4660:	4691                	li	a3,4
    4662:	00d70363          	beq	a4,a3,4668 <__subsf3+0xdc>
    4666:	0791                	addi	a5,a5,4
    4668:	00579713          	slli	a4,a5,0x5
    466c:	14075e63          	bgez	a4,47c8 <__subsf3+0x23c>
    4670:	00190693          	addi	a3,s2,1
    4674:	0ff00713          	li	a4,255
    4678:	0014fe93          	andi	t4,s1,1
    467c:	16e68663          	beq	a3,a4,47e8 <__subsf3+0x25c>
    4680:	079a                	slli	a5,a5,0x6
    4682:	83a5                	srli	a5,a5,0x9
    4684:	0ff6f693          	andi	a3,a3,255
    4688:	07a6                	slli	a5,a5,0x9
    468a:	40b2                	lw	ra,12(sp)
    468c:	4422                	lw	s0,8(sp)
    468e:	0097d513          	srli	a0,a5,0x9
    4692:	06de                	slli	a3,a3,0x17
    4694:	01fe9793          	slli	a5,t4,0x1f
    4698:	8d55                	or	a0,a0,a3
    469a:	4492                	lw	s1,4(sp)
    469c:	4902                	lw	s2,0(sp)
    469e:	8d5d                	or	a0,a0,a5
    46a0:	0141                	addi	sp,sp,16
    46a2:	8082                	ret
    46a4:	0a089263          	bnez	a7,4748 <__subsf3+0x1bc>
    46a8:	00168713          	addi	a4,a3,1
    46ac:	0fe77713          	andi	a4,a4,254
    46b0:	14071b63          	bnez	a4,4806 <__subsf3+0x27a>
    46b4:	22069463          	bnez	a3,48dc <__subsf3+0x350>
    46b8:	200f0263          	beqz	t5,48bc <__subsf3+0x330>
    46bc:	d571                	beqz	a0,4688 <__subsf3+0xfc>
    46be:	40af07b3          	sub	a5,t5,a0
    46c2:	00579713          	slli	a4,a5,0x5
    46c6:	22075563          	bgez	a4,48f0 <__subsf3+0x364>
    46ca:	41e507b3          	sub	a5,a0,t5
    46ce:	4901                	li	s2,0
    46d0:	84ae                	mv	s1,a1
    46d2:	b751                	j	4656 <__subsf3+0xca>
    46d4:	f00500e3          	beqz	a0,45d4 <__subsf3+0x48>
    46d8:	0abe8a63          	beq	t4,a1,478c <__subsf3+0x200>
    46dc:	fd1054e3          	blez	a7,46a4 <__subsf3+0x118>
    46e0:	0ff00793          	li	a5,255
    46e4:	08f68163          	beq	a3,a5,4766 <__subsf3+0x1da>
    46e8:	040007b7          	lui	a5,0x4000
    46ec:	8d5d                	or	a0,a0,a5
    46ee:	b731                	j	45fa <__subsf3+0x6e>
    46f0:	09105e63          	blez	a7,478c <__subsf3+0x200>
    46f4:	08080163          	beqz	a6,4776 <__subsf3+0x1ea>
    46f8:	0ff00793          	li	a5,255
    46fc:	06f68563          	beq	a3,a5,4766 <__subsf3+0x1da>
    4700:	040007b7          	lui	a5,0x4000
    4704:	8d5d                	or	a0,a0,a5
    4706:	47ed                	li	a5,27
    4708:	1f17c063          	blt	a5,a7,48e8 <__subsf3+0x35c>
    470c:	02000713          	li	a4,32
    4710:	41170733          	sub	a4,a4,a7
    4714:	00e51733          	sll	a4,a0,a4
    4718:	011557b3          	srl	a5,a0,a7
    471c:	00e03733          	snez	a4,a4
    4720:	8fd9                	or	a5,a5,a4
    4722:	97fa                	add	a5,a5,t5
    4724:	00579713          	slli	a4,a5,0x5
    4728:	08075c63          	bgez	a4,47c0 <__subsf3+0x234>
    472c:	0905                	addi	s2,s2,1
    472e:	0ff00713          	li	a4,255
    4732:	0ae90b63          	beq	s2,a4,47e8 <__subsf3+0x25c>
    4736:	7e0006b7          	lui	a3,0x7e000
    473a:	0017d713          	srli	a4,a5,0x1
    473e:	16fd                	addi	a3,a3,-1
    4740:	8b85                	andi	a5,a5,1
    4742:	8f75                	and	a4,a4,a3
    4744:	8fd9                	or	a5,a5,a4
    4746:	bf01                	j	4656 <__subsf3+0xca>
    4748:	40d80733          	sub	a4,a6,a3
    474c:	10069563          	bnez	a3,4856 <__subsf3+0x2ca>
    4750:	140f0d63          	beqz	t5,48aa <__subsf3+0x31e>
    4754:	177d                	addi	a4,a4,-1
    4756:	1a070363          	beqz	a4,48fc <__subsf3+0x370>
    475a:	0ff00793          	li	a5,255
    475e:	10f81463          	bne	a6,a5,4866 <__subsf3+0x2da>
    4762:	84ae                	mv	s1,a1
    4764:	8e32                	mv	t3,a2
    4766:	060e0f63          	beqz	t3,47e4 <__subsf3+0x258>
    476a:	4e81                	li	t4,0
    476c:	0ff00693          	li	a3,255
    4770:	004007b7          	lui	a5,0x400
    4774:	bf11                	j	4688 <__subsf3+0xfc>
    4776:	c939                	beqz	a0,47cc <__subsf3+0x240>
    4778:	18fd                	addi	a7,a7,-1
    477a:	00af07b3          	add	a5,t5,a0
    477e:	fa0883e3          	beqz	a7,4724 <__subsf3+0x198>
    4782:	0ff00793          	li	a5,255
    4786:	f8f690e3          	bne	a3,a5,4706 <__subsf3+0x17a>
    478a:	bff1                	j	4766 <__subsf3+0x1da>
    478c:	08089963          	bnez	a7,481e <__subsf3+0x292>
    4790:	00168913          	addi	s2,a3,1 # 7e000001 <_eusrstack+0x5dff8001>
    4794:	0fe97713          	andi	a4,s2,254
    4798:	12071663          	bnez	a4,48c4 <__subsf3+0x338>
    479c:	10069b63          	bnez	a3,48b2 <__subsf3+0x326>
    47a0:	160f0363          	beqz	t5,4906 <__subsf3+0x37a>
    47a4:	ee0502e3          	beqz	a0,4688 <__subsf3+0xfc>
    47a8:	00af07b3          	add	a5,t5,a0
    47ac:	00579713          	slli	a4,a5,0x5
    47b0:	4901                	li	s2,0
    47b2:	00075763          	bgez	a4,47c0 <__subsf3+0x234>
    47b6:	fc000737          	lui	a4,0xfc000
    47ba:	177d                	addi	a4,a4,-1
    47bc:	8ff9                	and	a5,a5,a4
    47be:	4905                	li	s2,1
    47c0:	0077f713          	andi	a4,a5,7
    47c4:	e8071ce3          	bnez	a4,465c <__subsf3+0xd0>
    47c8:	0037de13          	srli	t3,a5,0x3
    47cc:	0ff00793          	li	a5,255
    47d0:	f8f90be3          	beq	s2,a5,4766 <__subsf3+0x1da>
    47d4:	009e1793          	slli	a5,t3,0x9
    47d8:	83a5                	srli	a5,a5,0x9
    47da:	0ff97693          	andi	a3,s2,255
    47de:	0014fe93          	andi	t4,s1,1
    47e2:	b55d                	j	4688 <__subsf3+0xfc>
    47e4:	0014fe93          	andi	t4,s1,1
    47e8:	0ff00693          	li	a3,255
    47ec:	4781                	li	a5,0
    47ee:	bd69                	j	4688 <__subsf3+0xfc>
    47f0:	fc000737          	lui	a4,0xfc000
    47f4:	177d                	addi	a4,a4,-1
    47f6:	8ff9                	and	a5,a5,a4
    47f8:	0077f713          	andi	a4,a5,7
    47fc:	40a90933          	sub	s2,s2,a0
    4800:	e4071ee3          	bnez	a4,465c <__subsf3+0xd0>
    4804:	b7d1                	j	47c8 <__subsf3+0x23c>
    4806:	40af0433          	sub	s0,t5,a0
    480a:	00541793          	slli	a5,s0,0x5
    480e:	0c07c363          	bltz	a5,48d4 <__subsf3+0x348>
    4812:	e0041ce3          	bnez	s0,462a <__subsf3+0x9e>
    4816:	4e81                	li	t4,0
    4818:	4681                	li	a3,0
    481a:	4781                	li	a5,0
    481c:	b5b5                	j	4688 <__subsf3+0xfc>
    481e:	40d80733          	sub	a4,a6,a3
    4822:	c6b5                	beqz	a3,488e <__subsf3+0x302>
    4824:	0ff00793          	li	a5,255
    4828:	f2f80ee3          	beq	a6,a5,4764 <__subsf3+0x1d8>
    482c:	040007b7          	lui	a5,0x4000
    4830:	00ff6f33          	or	t5,t5,a5
    4834:	47ed                	li	a5,27
    4836:	0ce7cd63          	blt	a5,a4,4910 <__subsf3+0x384>
    483a:	02000793          	li	a5,32
    483e:	8f99                	sub	a5,a5,a4
    4840:	00ff17b3          	sll	a5,t5,a5
    4844:	00ef5733          	srl	a4,t5,a4
    4848:	00f037b3          	snez	a5,a5
    484c:	8f5d                	or	a4,a4,a5
    484e:	00a707b3          	add	a5,a4,a0
    4852:	8942                	mv	s2,a6
    4854:	bdc1                	j	4724 <__subsf3+0x198>
    4856:	0ff00793          	li	a5,255
    485a:	f0f804e3          	beq	a6,a5,4762 <__subsf3+0x1d6>
    485e:	040007b7          	lui	a5,0x4000
    4862:	00ff6f33          	or	t5,t5,a5
    4866:	47ed                	li	a5,27
    4868:	08e7c263          	blt	a5,a4,48ec <__subsf3+0x360>
    486c:	02000793          	li	a5,32
    4870:	8f99                	sub	a5,a5,a4
    4872:	00ff17b3          	sll	a5,t5,a5
    4876:	00ef5733          	srl	a4,t5,a4
    487a:	00f037b3          	snez	a5,a5
    487e:	8fd9                	or	a5,a5,a4
    4880:	40f507b3          	sub	a5,a0,a5
    4884:	8942                	mv	s2,a6
    4886:	84ae                	mv	s1,a1
    4888:	bb49                	j	461a <__subsf3+0x8e>
    488a:	4785                	li	a5,1
    488c:	b369                	j	4616 <__subsf3+0x8a>
    488e:	060f0e63          	beqz	t5,490a <__subsf3+0x37e>
    4892:	177d                	addi	a4,a4,-1
    4894:	00af07b3          	add	a5,t5,a0
    4898:	8942                	mv	s2,a6
    489a:	e80705e3          	beqz	a4,4724 <__subsf3+0x198>
    489e:	0ff00793          	li	a5,255
    48a2:	f8f819e3          	bne	a6,a5,4834 <__subsf3+0x2a8>
    48a6:	8e32                	mv	t3,a2
    48a8:	bd7d                	j	4766 <__subsf3+0x1da>
    48aa:	8e32                	mv	t3,a2
    48ac:	8942                	mv	s2,a6
    48ae:	84ae                	mv	s1,a1
    48b0:	bf31                	j	47cc <__subsf3+0x240>
    48b2:	ea0f09e3          	beqz	t5,4764 <__subsf3+0x1d8>
    48b6:	ea0508e3          	beqz	a0,4766 <__subsf3+0x1da>
    48ba:	bd45                	j	476a <__subsf3+0x1de>
    48bc:	cd0d                	beqz	a0,48f6 <__subsf3+0x36a>
    48be:	8eae                	mv	t4,a1
    48c0:	87b2                	mv	a5,a2
    48c2:	b3d9                	j	4688 <__subsf3+0xfc>
    48c4:	0ff00793          	li	a5,255
    48c8:	f2f900e3          	beq	s2,a5,47e8 <__subsf3+0x25c>
    48cc:	00af07b3          	add	a5,t5,a0
    48d0:	8385                	srli	a5,a5,0x1
    48d2:	b5fd                	j	47c0 <__subsf3+0x234>
    48d4:	41e50433          	sub	s0,a0,t5
    48d8:	84ae                	mv	s1,a1
    48da:	bb81                	j	462a <__subsf3+0x9e>
    48dc:	fc0f1de3          	bnez	t5,48b6 <__subsf3+0x32a>
    48e0:	e80505e3          	beqz	a0,476a <__subsf3+0x1de>
    48e4:	84ae                	mv	s1,a1
    48e6:	bdbd                	j	4764 <__subsf3+0x1d8>
    48e8:	4785                	li	a5,1
    48ea:	bd25                	j	4722 <__subsf3+0x196>
    48ec:	4785                	li	a5,1
    48ee:	bf49                	j	4880 <__subsf3+0x2f4>
    48f0:	4901                	li	s2,0
    48f2:	ec0797e3          	bnez	a5,47c0 <__subsf3+0x234>
    48f6:	4e81                	li	t4,0
    48f8:	4781                	li	a5,0
    48fa:	b379                	j	4688 <__subsf3+0xfc>
    48fc:	41e507b3          	sub	a5,a0,t5
    4900:	8942                	mv	s2,a6
    4902:	84ae                	mv	s1,a1
    4904:	bb19                	j	461a <__subsf3+0x8e>
    4906:	87b2                	mv	a5,a2
    4908:	b341                	j	4688 <__subsf3+0xfc>
    490a:	8e32                	mv	t3,a2
    490c:	8942                	mv	s2,a6
    490e:	bd7d                	j	47cc <__subsf3+0x240>
    4910:	4705                	li	a4,1
    4912:	bf35                	j	484e <__subsf3+0x2c2>

00004914 <__fixsfsi>:
    4914:	00800637          	lui	a2,0x800
    4918:	01755713          	srli	a4,a0,0x17
    491c:	fff60793          	addi	a5,a2,-1 # 7fffff <_data_lma+0x7f791b>
    4920:	0ff77713          	andi	a4,a4,255
    4924:	07e00593          	li	a1,126
    4928:	00a7f6b3          	and	a3,a5,a0
    492c:	01f55793          	srli	a5,a0,0x1f
    4930:	00e5fc63          	bgeu	a1,a4,4948 <__fixsfsi+0x34>
    4934:	09d00593          	li	a1,157
    4938:	00e5fa63          	bgeu	a1,a4,494c <__fixsfsi+0x38>
    493c:	80000537          	lui	a0,0x80000
    4940:	fff54513          	not	a0,a0
    4944:	953e                	add	a0,a0,a5
    4946:	8082                	ret
    4948:	4501                	li	a0,0
    494a:	8082                	ret
    494c:	09500593          	li	a1,149
    4950:	8ed1                	or	a3,a3,a2
    4952:	00e5cd63          	blt	a1,a4,496c <__fixsfsi+0x58>
    4956:	09600613          	li	a2,150
    495a:	40e60733          	sub	a4,a2,a4
    495e:	00e6d733          	srl	a4,a3,a4
    4962:	40e00533          	neg	a0,a4
    4966:	f3f5                	bnez	a5,494a <__fixsfsi+0x36>
    4968:	853a                	mv	a0,a4
    496a:	8082                	ret
    496c:	f6a70713          	addi	a4,a4,-150 # fbffff6a <_eusrstack+0xdbff7f6a>
    4970:	00e69733          	sll	a4,a3,a4
    4974:	b7fd                	j	4962 <__fixsfsi+0x4e>

00004976 <__fixunssfsi>:
    4976:	01755713          	srli	a4,a0,0x17
    497a:	00800637          	lui	a2,0x800
    497e:	fff60793          	addi	a5,a2,-1 # 7fffff <_data_lma+0x7f791b>
    4982:	0ff77713          	andi	a4,a4,255
    4986:	07e00593          	li	a1,126
    498a:	00a7f6b3          	and	a3,a5,a0
    498e:	01f55793          	srli	a5,a0,0x1f
    4992:	4501                	li	a0,0
    4994:	00e5f463          	bgeu	a1,a4,499c <__fixunssfsi+0x26>
    4998:	c399                	beqz	a5,499e <__fixunssfsi+0x28>
    499a:	8082                	ret
    499c:	8082                	ret
    499e:	09e00793          	li	a5,158
    49a2:	557d                	li	a0,-1
    49a4:	fee7ebe3          	bltu	a5,a4,499a <__fixunssfsi+0x24>
    49a8:	09500593          	li	a1,149
    49ac:	00c6e7b3          	or	a5,a3,a2
    49b0:	00e5d763          	bge	a1,a4,49be <__fixunssfsi+0x48>
    49b4:	f6a70713          	addi	a4,a4,-150
    49b8:	00e79533          	sll	a0,a5,a4
    49bc:	8082                	ret
    49be:	09600513          	li	a0,150
    49c2:	40e50733          	sub	a4,a0,a4
    49c6:	00e7d533          	srl	a0,a5,a4
    49ca:	8082                	ret

000049cc <__floatsisf>:
    49cc:	1141                	addi	sp,sp,-16
    49ce:	c606                	sw	ra,12(sp)
    49d0:	c422                	sw	s0,8(sp)
    49d2:	c226                	sw	s1,4(sp)
    49d4:	cd0d                	beqz	a0,4a0e <__floatsisf+0x42>
    49d6:	41f55793          	srai	a5,a0,0x1f
    49da:	00a7c433          	xor	s0,a5,a0
    49de:	8c1d                	sub	s0,s0,a5
    49e0:	84aa                	mv	s1,a0
    49e2:	8522                	mv	a0,s0
    49e4:	24d1                	jal	4ca8 <__clzsi2>
    49e6:	09e00793          	li	a5,158
    49ea:	40a78733          	sub	a4,a5,a0
    49ee:	09600793          	li	a5,150
    49f2:	80fd                	srli	s1,s1,0x1f
    49f4:	02e7cc63          	blt	a5,a4,4a2c <__floatsisf+0x60>
    49f8:	46a1                	li	a3,8
    49fa:	0ff77793          	andi	a5,a4,255
    49fe:	00a6d563          	bge	a3,a0,4a08 <__floatsisf+0x3c>
    4a02:	1561                	addi	a0,a0,-8
    4a04:	00a41433          	sll	s0,s0,a0
    4a08:	0426                	slli	s0,s0,0x9
    4a0a:	8025                	srli	s0,s0,0x9
    4a0c:	a021                	j	4a14 <__floatsisf+0x48>
    4a0e:	4481                	li	s1,0
    4a10:	4781                	li	a5,0
    4a12:	4401                	li	s0,0
    4a14:	0426                	slli	s0,s0,0x9
    4a16:	00945513          	srli	a0,s0,0x9
    4a1a:	40b2                	lw	ra,12(sp)
    4a1c:	4422                	lw	s0,8(sp)
    4a1e:	07de                	slli	a5,a5,0x17
    4a20:	04fe                	slli	s1,s1,0x1f
    4a22:	8d5d                	or	a0,a0,a5
    4a24:	8d45                	or	a0,a0,s1
    4a26:	4492                	lw	s1,4(sp)
    4a28:	0141                	addi	sp,sp,16
    4a2a:	8082                	ret
    4a2c:	09900793          	li	a5,153
    4a30:	00e7dd63          	bge	a5,a4,4a4a <__floatsisf+0x7e>
    4a34:	01b50793          	addi	a5,a0,27 # 8000001b <_eusrstack+0x5fff801b>
    4a38:	4695                	li	a3,5
    4a3a:	00f417b3          	sll	a5,s0,a5
    4a3e:	8e89                	sub	a3,a3,a0
    4a40:	00d45433          	srl	s0,s0,a3
    4a44:	00f037b3          	snez	a5,a5
    4a48:	8c5d                	or	s0,s0,a5
    4a4a:	4795                	li	a5,5
    4a4c:	00a7d663          	bge	a5,a0,4a58 <__floatsisf+0x8c>
    4a50:	ffb50793          	addi	a5,a0,-5
    4a54:	00f41433          	sll	s0,s0,a5
    4a58:	fc0006b7          	lui	a3,0xfc000
    4a5c:	16fd                	addi	a3,a3,-1
    4a5e:	00747793          	andi	a5,s0,7
    4a62:	00d47633          	and	a2,s0,a3
    4a66:	c385                	beqz	a5,4a86 <__floatsisf+0xba>
    4a68:	00f47793          	andi	a5,s0,15
    4a6c:	4591                	li	a1,4
    4a6e:	00b78c63          	beq	a5,a1,4a86 <__floatsisf+0xba>
    4a72:	0611                	addi	a2,a2,4
    4a74:	00561793          	slli	a5,a2,0x5
    4a78:	0007d763          	bgez	a5,4a86 <__floatsisf+0xba>
    4a7c:	09f00793          	li	a5,159
    4a80:	8e75                	and	a2,a2,a3
    4a82:	40a78733          	sub	a4,a5,a0
    4a86:	00661413          	slli	s0,a2,0x6
    4a8a:	8025                	srli	s0,s0,0x9
    4a8c:	0ff77793          	andi	a5,a4,255
    4a90:	b751                	j	4a14 <__floatsisf+0x48>

00004a92 <__extendsfdf2>:
    4a92:	01755713          	srli	a4,a0,0x17
    4a96:	0ff77713          	andi	a4,a4,255
    4a9a:	1141                	addi	sp,sp,-16
    4a9c:	00170793          	addi	a5,a4,1
    4aa0:	c422                	sw	s0,8(sp)
    4aa2:	c226                	sw	s1,4(sp)
    4aa4:	00951413          	slli	s0,a0,0x9
    4aa8:	c606                	sw	ra,12(sp)
    4aaa:	0fe7f793          	andi	a5,a5,254
    4aae:	8025                	srli	s0,s0,0x9
    4ab0:	01f55493          	srli	s1,a0,0x1f
    4ab4:	c785                	beqz	a5,4adc <__extendsfdf2+0x4a>
    4ab6:	00345793          	srli	a5,s0,0x3
    4aba:	38070713          	addi	a4,a4,896
    4abe:	0476                	slli	s0,s0,0x1d
    4ac0:	07b2                	slli	a5,a5,0xc
    4ac2:	0752                	slli	a4,a4,0x14
    4ac4:	83b1                	srli	a5,a5,0xc
    4ac6:	01f49513          	slli	a0,s1,0x1f
    4aca:	8fd9                	or	a5,a5,a4
    4acc:	8fc9                	or	a5,a5,a0
    4ace:	40b2                	lw	ra,12(sp)
    4ad0:	8522                	mv	a0,s0
    4ad2:	4422                	lw	s0,8(sp)
    4ad4:	4492                	lw	s1,4(sp)
    4ad6:	85be                	mv	a1,a5
    4ad8:	0141                	addi	sp,sp,16
    4ada:	8082                	ret
    4adc:	eb05                	bnez	a4,4b0c <__extendsfdf2+0x7a>
    4ade:	c439                	beqz	s0,4b2c <__extendsfdf2+0x9a>
    4ae0:	8522                	mv	a0,s0
    4ae2:	22d9                	jal	4ca8 <__clzsi2>
    4ae4:	47a9                	li	a5,10
    4ae6:	04a7c663          	blt	a5,a0,4b32 <__extendsfdf2+0xa0>
    4aea:	472d                	li	a4,11
    4aec:	8f09                	sub	a4,a4,a0
    4aee:	01550793          	addi	a5,a0,21
    4af2:	00e45733          	srl	a4,s0,a4
    4af6:	00f41433          	sll	s0,s0,a5
    4afa:	00c71793          	slli	a5,a4,0xc
    4afe:	38900713          	li	a4,905
    4b02:	8f09                	sub	a4,a4,a0
    4b04:	83b1                	srli	a5,a5,0xc
    4b06:	7ff77713          	andi	a4,a4,2047
    4b0a:	bf5d                	j	4ac0 <__extendsfdf2+0x2e>
    4b0c:	cc01                	beqz	s0,4b24 <__extendsfdf2+0x92>
    4b0e:	00345713          	srli	a4,s0,0x3
    4b12:	000807b7          	lui	a5,0x80
    4b16:	8fd9                	or	a5,a5,a4
    4b18:	07b2                	slli	a5,a5,0xc
    4b1a:	0476                	slli	s0,s0,0x1d
    4b1c:	83b1                	srli	a5,a5,0xc
    4b1e:	7ff00713          	li	a4,2047
    4b22:	bf79                	j	4ac0 <__extendsfdf2+0x2e>
    4b24:	7ff00713          	li	a4,2047
    4b28:	4781                	li	a5,0
    4b2a:	bf59                	j	4ac0 <__extendsfdf2+0x2e>
    4b2c:	4701                	li	a4,0
    4b2e:	4781                	li	a5,0
    4b30:	bf41                	j	4ac0 <__extendsfdf2+0x2e>
    4b32:	ff550713          	addi	a4,a0,-11
    4b36:	00e41733          	sll	a4,s0,a4
    4b3a:	4401                	li	s0,0
    4b3c:	bf7d                	j	4afa <__extendsfdf2+0x68>

00004b3e <__truncdfsf2>:
    4b3e:	0145d693          	srli	a3,a1,0x14
    4b42:	00c59793          	slli	a5,a1,0xc
    4b46:	7ff6f693          	andi	a3,a3,2047
    4b4a:	83b1                	srli	a5,a5,0xc
    4b4c:	00168613          	addi	a2,a3,1 # fc000001 <_eusrstack+0xdbff8001>
    4b50:	078e                	slli	a5,a5,0x3
    4b52:	01d55713          	srli	a4,a0,0x1d
    4b56:	7fe67613          	andi	a2,a2,2046
    4b5a:	81fd                	srli	a1,a1,0x1f
    4b5c:	8f5d                	or	a4,a4,a5
    4b5e:	00351893          	slli	a7,a0,0x3
    4b62:	ce35                	beqz	a2,4bde <__truncdfsf2+0xa0>
    4b64:	c8068813          	addi	a6,a3,-896
    4b68:	0fe00793          	li	a5,254
    4b6c:	0107dd63          	bge	a5,a6,4b86 <__truncdfsf2+0x48>
    4b70:	4781                	li	a5,0
    4b72:	00979513          	slli	a0,a5,0x9
    4b76:	0ff00693          	li	a3,255
    4b7a:	06de                	slli	a3,a3,0x17
    4b7c:	8125                	srli	a0,a0,0x9
    4b7e:	05fe                	slli	a1,a1,0x1f
    4b80:	8d55                	or	a0,a0,a3
    4b82:	8d4d                	or	a0,a0,a1
    4b84:	8082                	ret
    4b86:	0b005563          	blez	a6,4c30 <__truncdfsf2+0xf2>
    4b8a:	00651793          	slli	a5,a0,0x6
    4b8e:	070e                	slli	a4,a4,0x3
    4b90:	00f037b3          	snez	a5,a5
    4b94:	8fd9                	or	a5,a5,a4
    4b96:	01d8d893          	srli	a7,a7,0x1d
    4b9a:	0117e7b3          	or	a5,a5,a7
    4b9e:	0077f713          	andi	a4,a5,7
    4ba2:	10070163          	beqz	a4,4ca4 <__truncdfsf2+0x166>
    4ba6:	00f7f713          	andi	a4,a5,15
    4baa:	4691                	li	a3,4
    4bac:	00d70363          	beq	a4,a3,4bb2 <__truncdfsf2+0x74>
    4bb0:	0791                	addi	a5,a5,4
    4bb2:	04000737          	lui	a4,0x4000
    4bb6:	8f7d                	and	a4,a4,a5
    4bb8:	c775                	beqz	a4,4ca4 <__truncdfsf2+0x166>
    4bba:	00180713          	addi	a4,a6,1
    4bbe:	0ff00613          	li	a2,255
    4bc2:	0ff77693          	andi	a3,a4,255
    4bc6:	fac705e3          	beq	a4,a2,4b70 <__truncdfsf2+0x32>
    4bca:	079a                	slli	a5,a5,0x6
    4bcc:	83a5                	srli	a5,a5,0x9
    4bce:	00979513          	slli	a0,a5,0x9
    4bd2:	06de                	slli	a3,a3,0x17
    4bd4:	8125                	srli	a0,a0,0x9
    4bd6:	05fe                	slli	a1,a1,0x1f
    4bd8:	8d55                	or	a0,a0,a3
    4bda:	8d4d                	or	a0,a0,a1
    4bdc:	8082                	ret
    4bde:	011767b3          	or	a5,a4,a7
    4be2:	ee99                	bnez	a3,4c00 <__truncdfsf2+0xc2>
    4be4:	cf85                	beqz	a5,4c1c <__truncdfsf2+0xde>
    4be6:	4795                	li	a5,5
    4be8:	079a                	slli	a5,a5,0x6
    4bea:	83a5                	srli	a5,a5,0x9
    4bec:	00979513          	slli	a0,a5,0x9
    4bf0:	0ff6f693          	andi	a3,a3,255
    4bf4:	06de                	slli	a3,a3,0x17
    4bf6:	8125                	srli	a0,a0,0x9
    4bf8:	05fe                	slli	a1,a1,0x1f
    4bfa:	8d55                	or	a0,a0,a3
    4bfc:	8d4d                	or	a0,a0,a1
    4bfe:	8082                	ret
    4c00:	dba5                	beqz	a5,4b70 <__truncdfsf2+0x32>
    4c02:	004007b7          	lui	a5,0x400
    4c06:	00979513          	slli	a0,a5,0x9
    4c0a:	0ff00693          	li	a3,255
    4c0e:	06de                	slli	a3,a3,0x17
    4c10:	4581                	li	a1,0
    4c12:	8125                	srli	a0,a0,0x9
    4c14:	05fe                	slli	a1,a1,0x1f
    4c16:	8d55                	or	a0,a0,a3
    4c18:	8d4d                	or	a0,a0,a1
    4c1a:	8082                	ret
    4c1c:	4781                	li	a5,0
    4c1e:	00979513          	slli	a0,a5,0x9
    4c22:	4681                	li	a3,0
    4c24:	06de                	slli	a3,a3,0x17
    4c26:	8125                	srli	a0,a0,0x9
    4c28:	05fe                	slli	a1,a1,0x1f
    4c2a:	8d55                	or	a0,a0,a3
    4c2c:	8d4d                	or	a0,a0,a1
    4c2e:	8082                	ret
    4c30:	57a5                	li	a5,-23
    4c32:	04f84863          	blt	a6,a5,4c82 <__truncdfsf2+0x144>
    4c36:	47f9                	li	a5,30
    4c38:	00800637          	lui	a2,0x800
    4c3c:	410787b3          	sub	a5,a5,a6
    4c40:	457d                	li	a0,31
    4c42:	8e59                	or	a2,a2,a4
    4c44:	04f55163          	bge	a0,a5,4c86 <__truncdfsf2+0x148>
    4c48:	5779                	li	a4,-2
    4c4a:	41070733          	sub	a4,a4,a6
    4c4e:	02000513          	li	a0,32
    4c52:	00e65733          	srl	a4,a2,a4
    4c56:	00a78863          	beq	a5,a0,4c66 <__truncdfsf2+0x128>
    4c5a:	ca268693          	addi	a3,a3,-862
    4c5e:	00d616b3          	sll	a3,a2,a3
    4c62:	00d8e8b3          	or	a7,a7,a3
    4c66:	011037b3          	snez	a5,a7
    4c6a:	8fd9                	or	a5,a5,a4
    4c6c:	0077f713          	andi	a4,a5,7
    4c70:	4801                	li	a6,0
    4c72:	fb15                	bnez	a4,4ba6 <__truncdfsf2+0x68>
    4c74:	00579713          	slli	a4,a5,0x5
    4c78:	4685                	li	a3,1
    4c7a:	f40748e3          	bltz	a4,4bca <__truncdfsf2+0x8c>
    4c7e:	4681                	li	a3,0
    4c80:	b7a5                	j	4be8 <__truncdfsf2+0xaa>
    4c82:	4681                	li	a3,0
    4c84:	b78d                	j	4be6 <__truncdfsf2+0xa8>
    4c86:	c8268693          	addi	a3,a3,-894
    4c8a:	00d89733          	sll	a4,a7,a3
    4c8e:	00e03733          	snez	a4,a4
    4c92:	00d616b3          	sll	a3,a2,a3
    4c96:	00f8d8b3          	srl	a7,a7,a5
    4c9a:	00d767b3          	or	a5,a4,a3
    4c9e:	00f8e7b3          	or	a5,a7,a5
    4ca2:	b7e9                	j	4c6c <__truncdfsf2+0x12e>
    4ca4:	86c2                	mv	a3,a6
    4ca6:	b789                	j	4be8 <__truncdfsf2+0xaa>

00004ca8 <__clzsi2>:
    4ca8:	67c1                	lui	a5,0x10
    4caa:	02f57c63          	bgeu	a0,a5,4ce2 <__clzsi2+0x3a>
    4cae:	0ff00793          	li	a5,255
    4cb2:	02000713          	li	a4,32
    4cb6:	00a7eb63          	bltu	a5,a0,4ccc <__clzsi2+0x24>
    4cba:	00004797          	auipc	a5,0x4
    4cbe:	88e78793          	addi	a5,a5,-1906 # 8548 <__clz_tab>
    4cc2:	97aa                	add	a5,a5,a0
    4cc4:	2388                	lbu	a0,0(a5)
    4cc6:	40a70533          	sub	a0,a4,a0
    4cca:	8082                	ret
    4ccc:	8121                	srli	a0,a0,0x8
    4cce:	00004797          	auipc	a5,0x4
    4cd2:	87a78793          	addi	a5,a5,-1926 # 8548 <__clz_tab>
    4cd6:	97aa                	add	a5,a5,a0
    4cd8:	2388                	lbu	a0,0(a5)
    4cda:	4761                	li	a4,24
    4cdc:	40a70533          	sub	a0,a4,a0
    4ce0:	8082                	ret
    4ce2:	010007b7          	lui	a5,0x1000
    4ce6:	00f56d63          	bltu	a0,a5,4d00 <__clzsi2+0x58>
    4cea:	8161                	srli	a0,a0,0x18
    4cec:	00004797          	auipc	a5,0x4
    4cf0:	85c78793          	addi	a5,a5,-1956 # 8548 <__clz_tab>
    4cf4:	97aa                	add	a5,a5,a0
    4cf6:	2388                	lbu	a0,0(a5)
    4cf8:	4721                	li	a4,8
    4cfa:	40a70533          	sub	a0,a4,a0
    4cfe:	8082                	ret
    4d00:	8141                	srli	a0,a0,0x10
    4d02:	00004797          	auipc	a5,0x4
    4d06:	84678793          	addi	a5,a5,-1978 # 8548 <__clz_tab>
    4d0a:	97aa                	add	a5,a5,a0
    4d0c:	2388                	lbu	a0,0(a5)
    4d0e:	4741                	li	a4,16
    4d10:	40a70533          	sub	a0,a4,a0
    4d14:	8082                	ret

00004d16 <memcpy>:
    4d16:	00a5c7b3          	xor	a5,a1,a0
    4d1a:	8b8d                	andi	a5,a5,3
    4d1c:	00c50733          	add	a4,a0,a2
    4d20:	e781                	bnez	a5,4d28 <memcpy+0x12>
    4d22:	478d                	li	a5,3
    4d24:	00c7ed63          	bltu	a5,a2,4d3e <memcpy+0x28>
    4d28:	87aa                	mv	a5,a0
    4d2a:	08e57e63          	bgeu	a0,a4,4dc6 <memcpy+0xb0>
    4d2e:	2194                	lbu	a3,0(a1)
    4d30:	0785                	addi	a5,a5,1
    4d32:	0585                	addi	a1,a1,1
    4d34:	fed78fa3          	sb	a3,-1(a5)
    4d38:	fee7ebe3          	bltu	a5,a4,4d2e <memcpy+0x18>
    4d3c:	8082                	ret
    4d3e:	00357693          	andi	a3,a0,3
    4d42:	87aa                	mv	a5,a0
    4d44:	ca89                	beqz	a3,4d56 <memcpy+0x40>
    4d46:	2194                	lbu	a3,0(a1)
    4d48:	0785                	addi	a5,a5,1
    4d4a:	0585                	addi	a1,a1,1
    4d4c:	fed78fa3          	sb	a3,-1(a5)
    4d50:	0037f693          	andi	a3,a5,3
    4d54:	bfc5                	j	4d44 <memcpy+0x2e>
    4d56:	ffc77693          	andi	a3,a4,-4
    4d5a:	fe068613          	addi	a2,a3,-32
    4d5e:	06c7f063          	bgeu	a5,a2,4dbe <memcpy+0xa8>
    4d62:	0005a383          	lw	t2,0(a1)
    4d66:	0045a283          	lw	t0,4(a1)
    4d6a:	0085af83          	lw	t6,8(a1)
    4d6e:	00c5af03          	lw	t5,12(a1)
    4d72:	0105ae83          	lw	t4,16(a1)
    4d76:	0145ae03          	lw	t3,20(a1)
    4d7a:	0185a303          	lw	t1,24(a1)
    4d7e:	01c5a883          	lw	a7,28(a1)
    4d82:	02458593          	addi	a1,a1,36
    4d86:	0077a023          	sw	t2,0(a5)
    4d8a:	ffc5a803          	lw	a6,-4(a1)
    4d8e:	0057a223          	sw	t0,4(a5)
    4d92:	01f7a423          	sw	t6,8(a5)
    4d96:	01e7a623          	sw	t5,12(a5)
    4d9a:	01d7a823          	sw	t4,16(a5)
    4d9e:	01c7aa23          	sw	t3,20(a5)
    4da2:	0067ac23          	sw	t1,24(a5)
    4da6:	0117ae23          	sw	a7,28(a5)
    4daa:	02478793          	addi	a5,a5,36
    4dae:	ff07ae23          	sw	a6,-4(a5)
    4db2:	b775                	j	4d5e <memcpy+0x48>
    4db4:	4190                	lw	a2,0(a1)
    4db6:	0791                	addi	a5,a5,4
    4db8:	0591                	addi	a1,a1,4
    4dba:	fec7ae23          	sw	a2,-4(a5)
    4dbe:	fed7ebe3          	bltu	a5,a3,4db4 <memcpy+0x9e>
    4dc2:	f6e7e6e3          	bltu	a5,a4,4d2e <memcpy+0x18>
    4dc6:	8082                	ret

00004dc8 <iprintf>:
    4dc8:	7139                	addi	sp,sp,-64
    4dca:	da3e                	sw	a5,52(sp)
    4dcc:	d22e                	sw	a1,36(sp)
    4dce:	d432                	sw	a2,40(sp)
    4dd0:	d636                	sw	a3,44(sp)
    4dd2:	d83a                	sw	a4,48(sp)
    4dd4:	dc42                	sw	a6,56(sp)
    4dd6:	de46                	sw	a7,60(sp)
    4dd8:	83018793          	addi	a5,gp,-2000 # 200000d8 <_impure_ptr>
    4ddc:	cc22                	sw	s0,24(sp)
    4dde:	4380                	lw	s0,0(a5)
    4de0:	ca26                	sw	s1,20(sp)
    4de2:	ce06                	sw	ra,28(sp)
    4de4:	84aa                	mv	s1,a0
    4de6:	c409                	beqz	s0,4df0 <iprintf+0x28>
    4de8:	4c1c                	lw	a5,24(s0)
    4dea:	e399                	bnez	a5,4df0 <iprintf+0x28>
    4dec:	8522                	mv	a0,s0
    4dee:	2369                	jal	5378 <__sinit>
    4df0:	440c                	lw	a1,8(s0)
    4df2:	1054                	addi	a3,sp,36
    4df4:	8626                	mv	a2,s1
    4df6:	8522                	mv	a0,s0
    4df8:	c636                	sw	a3,12(sp)
    4dfa:	519000ef          	jal	ra,5b12 <_vfiprintf_r>
    4dfe:	40f2                	lw	ra,28(sp)
    4e00:	4462                	lw	s0,24(sp)
    4e02:	44d2                	lw	s1,20(sp)
    4e04:	6121                	addi	sp,sp,64
    4e06:	8082                	ret

00004e08 <_puts_r>:
    4e08:	1101                	addi	sp,sp,-32
    4e0a:	ca26                	sw	s1,20(sp)
    4e0c:	c84a                	sw	s2,16(sp)
    4e0e:	ce06                	sw	ra,28(sp)
    4e10:	cc22                	sw	s0,24(sp)
    4e12:	c64e                	sw	s3,12(sp)
    4e14:	c452                	sw	s4,8(sp)
    4e16:	84aa                	mv	s1,a0
    4e18:	892e                	mv	s2,a1
    4e1a:	c501                	beqz	a0,4e22 <_puts_r+0x1a>
    4e1c:	4d1c                	lw	a5,24(a0)
    4e1e:	e391                	bnez	a5,4e22 <_puts_r+0x1a>
    4e20:	2ba1                	jal	5378 <__sinit>
    4e22:	4c9c                	lw	a5,24(s1)
    4e24:	4480                	lw	s0,8(s1)
    4e26:	e399                	bnez	a5,4e2c <_puts_r+0x24>
    4e28:	8526                	mv	a0,s1
    4e2a:	23b9                	jal	5378 <__sinit>
    4e2c:	00004797          	auipc	a5,0x4
    4e30:	83c78793          	addi	a5,a5,-1988 # 8668 <__sf_fake_stdin>
    4e34:	02f41b63          	bne	s0,a5,4e6a <_puts_r+0x62>
    4e38:	40c0                	lw	s0,4(s1)
    4e3a:	245e                	lhu	a5,12(s0)
    4e3c:	8ba1                	andi	a5,a5,8
    4e3e:	c7b1                	beqz	a5,4e8a <_puts_r+0x82>
    4e40:	481c                	lw	a5,16(s0)
    4e42:	c7a1                	beqz	a5,4e8a <_puts_r+0x82>
    4e44:	59fd                	li	s3,-1
    4e46:	4a29                	li	s4,10
    4e48:	441c                	lw	a5,8(s0)
    4e4a:	00094583          	lbu	a1,0(s2)
    4e4e:	17fd                	addi	a5,a5,-1
    4e50:	e9b1                	bnez	a1,4ea4 <_puts_r+0x9c>
    4e52:	c41c                	sw	a5,8(s0)
    4e54:	0607dd63          	bgez	a5,4ece <_puts_r+0xc6>
    4e58:	8622                	mv	a2,s0
    4e5a:	45a9                	li	a1,10
    4e5c:	8526                	mv	a0,s1
    4e5e:	2a19                	jal	4f74 <__swbuf_r>
    4e60:	57fd                	li	a5,-1
    4e62:	02f50863          	beq	a0,a5,4e92 <_puts_r+0x8a>
    4e66:	4529                	li	a0,10
    4e68:	a035                	j	4e94 <_puts_r+0x8c>
    4e6a:	00004797          	auipc	a5,0x4
    4e6e:	81e78793          	addi	a5,a5,-2018 # 8688 <__sf_fake_stdout>
    4e72:	00f41463          	bne	s0,a5,4e7a <_puts_r+0x72>
    4e76:	4480                	lw	s0,8(s1)
    4e78:	b7c9                	j	4e3a <_puts_r+0x32>
    4e7a:	00003797          	auipc	a5,0x3
    4e7e:	7ce78793          	addi	a5,a5,1998 # 8648 <__sf_fake_stderr>
    4e82:	faf41ce3          	bne	s0,a5,4e3a <_puts_r+0x32>
    4e86:	44c0                	lw	s0,12(s1)
    4e88:	bf4d                	j	4e3a <_puts_r+0x32>
    4e8a:	85a2                	mv	a1,s0
    4e8c:	8526                	mv	a0,s1
    4e8e:	224d                	jal	5030 <__swsetup_r>
    4e90:	d955                	beqz	a0,4e44 <_puts_r+0x3c>
    4e92:	557d                	li	a0,-1
    4e94:	40f2                	lw	ra,28(sp)
    4e96:	4462                	lw	s0,24(sp)
    4e98:	44d2                	lw	s1,20(sp)
    4e9a:	4942                	lw	s2,16(sp)
    4e9c:	49b2                	lw	s3,12(sp)
    4e9e:	4a22                	lw	s4,8(sp)
    4ea0:	6105                	addi	sp,sp,32
    4ea2:	8082                	ret
    4ea4:	c41c                	sw	a5,8(s0)
    4ea6:	0905                	addi	s2,s2,1
    4ea8:	0007d763          	bgez	a5,4eb6 <_puts_r+0xae>
    4eac:	4c18                	lw	a4,24(s0)
    4eae:	00e7ca63          	blt	a5,a4,4ec2 <_puts_r+0xba>
    4eb2:	01458863          	beq	a1,s4,4ec2 <_puts_r+0xba>
    4eb6:	401c                	lw	a5,0(s0)
    4eb8:	00178713          	addi	a4,a5,1
    4ebc:	c018                	sw	a4,0(s0)
    4ebe:	a38c                	sb	a1,0(a5)
    4ec0:	b761                	j	4e48 <_puts_r+0x40>
    4ec2:	8622                	mv	a2,s0
    4ec4:	8526                	mv	a0,s1
    4ec6:	207d                	jal	4f74 <__swbuf_r>
    4ec8:	f93510e3          	bne	a0,s3,4e48 <_puts_r+0x40>
    4ecc:	b7d9                	j	4e92 <_puts_r+0x8a>
    4ece:	401c                	lw	a5,0(s0)
    4ed0:	00178713          	addi	a4,a5,1
    4ed4:	c018                	sw	a4,0(s0)
    4ed6:	4729                	li	a4,10
    4ed8:	a398                	sb	a4,0(a5)
    4eda:	b771                	j	4e66 <_puts_r+0x5e>

00004edc <puts>:
    4edc:	83018793          	addi	a5,gp,-2000 # 200000d8 <_impure_ptr>
    4ee0:	85aa                	mv	a1,a0
    4ee2:	4388                	lw	a0,0(a5)
    4ee4:	f25ff06f          	j	4e08 <_puts_r>

00004ee8 <siprintf>:
    4ee8:	7135                	addi	sp,sp,-160
    4eea:	cb3e                	sw	a5,148(sp)
    4eec:	800007b7          	lui	a5,0x80000
    4ef0:	fff7c793          	not	a5,a5
    4ef4:	ce3e                	sw	a5,28(sp)
    4ef6:	c83e                	sw	a5,16(sp)
    4ef8:	77c1                	lui	a5,0xffff0
    4efa:	20878793          	addi	a5,a5,520 # ffff0208 <_eusrstack+0xdffe8208>
    4efe:	c532                	sw	a2,136(sp)
    4f00:	c736                	sw	a3,140(sp)
    4f02:	c93a                	sw	a4,144(sp)
    4f04:	cd42                	sw	a6,152(sp)
    4f06:	cf46                	sw	a7,156(sp)
    4f08:	ca3e                	sw	a5,20(sp)
    4f0a:	83018793          	addi	a5,gp,-2000 # 200000d8 <_impure_ptr>
    4f0e:	c42a                	sw	a0,8(sp)
    4f10:	cc2a                	sw	a0,24(sp)
    4f12:	4388                	lw	a0,0(a5)
    4f14:	0134                	addi	a3,sp,136
    4f16:	862e                	mv	a2,a1
    4f18:	002c                	addi	a1,sp,8
    4f1a:	de86                	sw	ra,124(sp)
    4f1c:	c236                	sw	a3,4(sp)
    4f1e:	121000ef          	jal	ra,583e <_svfiprintf_r>
    4f22:	47a2                	lw	a5,8(sp)
    4f24:	00078023          	sb	zero,0(a5)
    4f28:	50f6                	lw	ra,124(sp)
    4f2a:	610d                	addi	sp,sp,160
    4f2c:	8082                	ret

00004f2e <strlen>:
    4f2e:	87aa                	mv	a5,a0
    4f30:	0785                	addi	a5,a5,1
    4f32:	fff7c703          	lbu	a4,-1(a5)
    4f36:	ff6d                	bnez	a4,4f30 <strlen+0x2>
    4f38:	40a78533          	sub	a0,a5,a0
    4f3c:	157d                	addi	a0,a0,-1
    4f3e:	8082                	ret

00004f40 <strstr>:
    4f40:	2118                	lbu	a4,0(a0)
    4f42:	219c                	lbu	a5,0(a1)
    4f44:	e701                	bnez	a4,4f4c <strstr+0xc>
    4f46:	c391                	beqz	a5,4f4a <strstr+0xa>
    4f48:	4501                	li	a0,0
    4f4a:	8082                	ret
    4f4c:	4781                	li	a5,0
    4f4e:	a039                	j	4f5c <strstr+0x1c>
    4f50:	311c                	lbu	a5,1(a0)
    4f52:	00150713          	addi	a4,a0,1
    4f56:	dbed                	beqz	a5,4f48 <strstr+0x8>
    4f58:	4781                	li	a5,0
    4f5a:	853a                	mv	a0,a4
    4f5c:	00f58733          	add	a4,a1,a5
    4f60:	2318                	lbu	a4,0(a4)
    4f62:	d765                	beqz	a4,4f4a <strstr+0xa>
    4f64:	00f506b3          	add	a3,a0,a5
    4f68:	2294                	lbu	a3,0(a3)
    4f6a:	fee693e3          	bne	a3,a4,4f50 <strstr+0x10>
    4f6e:	0785                	addi	a5,a5,1
    4f70:	872a                	mv	a4,a0
    4f72:	b7e5                	j	4f5a <strstr+0x1a>

00004f74 <__swbuf_r>:
    4f74:	1101                	addi	sp,sp,-32
    4f76:	cc22                	sw	s0,24(sp)
    4f78:	ca26                	sw	s1,20(sp)
    4f7a:	c84a                	sw	s2,16(sp)
    4f7c:	ce06                	sw	ra,28(sp)
    4f7e:	c64e                	sw	s3,12(sp)
    4f80:	84aa                	mv	s1,a0
    4f82:	892e                	mv	s2,a1
    4f84:	8432                	mv	s0,a2
    4f86:	c501                	beqz	a0,4f8e <__swbuf_r+0x1a>
    4f88:	4d1c                	lw	a5,24(a0)
    4f8a:	e391                	bnez	a5,4f8e <__swbuf_r+0x1a>
    4f8c:	26f5                	jal	5378 <__sinit>
    4f8e:	00003797          	auipc	a5,0x3
    4f92:	6da78793          	addi	a5,a5,1754 # 8668 <__sf_fake_stdin>
    4f96:	06f41763          	bne	s0,a5,5004 <__swbuf_r+0x90>
    4f9a:	40c0                	lw	s0,4(s1)
    4f9c:	4c1c                	lw	a5,24(s0)
    4f9e:	c41c                	sw	a5,8(s0)
    4fa0:	245e                	lhu	a5,12(s0)
    4fa2:	8ba1                	andi	a5,a5,8
    4fa4:	c3c1                	beqz	a5,5024 <__swbuf_r+0xb0>
    4fa6:	481c                	lw	a5,16(s0)
    4fa8:	cfb5                	beqz	a5,5024 <__swbuf_r+0xb0>
    4faa:	481c                	lw	a5,16(s0)
    4fac:	4008                	lw	a0,0(s0)
    4fae:	0ff97993          	andi	s3,s2,255
    4fb2:	0ff97913          	andi	s2,s2,255
    4fb6:	8d1d                	sub	a0,a0,a5
    4fb8:	485c                	lw	a5,20(s0)
    4fba:	00f54663          	blt	a0,a5,4fc6 <__swbuf_r+0x52>
    4fbe:	85a2                	mv	a1,s0
    4fc0:	8526                	mv	a0,s1
    4fc2:	2c69                	jal	525c <_fflush_r>
    4fc4:	e525                	bnez	a0,502c <__swbuf_r+0xb8>
    4fc6:	441c                	lw	a5,8(s0)
    4fc8:	0505                	addi	a0,a0,1
    4fca:	17fd                	addi	a5,a5,-1
    4fcc:	c41c                	sw	a5,8(s0)
    4fce:	401c                	lw	a5,0(s0)
    4fd0:	00178713          	addi	a4,a5,1
    4fd4:	c018                	sw	a4,0(s0)
    4fd6:	01378023          	sb	s3,0(a5)
    4fda:	485c                	lw	a5,20(s0)
    4fdc:	00a78863          	beq	a5,a0,4fec <__swbuf_r+0x78>
    4fe0:	245e                	lhu	a5,12(s0)
    4fe2:	8b85                	andi	a5,a5,1
    4fe4:	cb81                	beqz	a5,4ff4 <__swbuf_r+0x80>
    4fe6:	47a9                	li	a5,10
    4fe8:	00f91663          	bne	s2,a5,4ff4 <__swbuf_r+0x80>
    4fec:	85a2                	mv	a1,s0
    4fee:	8526                	mv	a0,s1
    4ff0:	24b5                	jal	525c <_fflush_r>
    4ff2:	ed0d                	bnez	a0,502c <__swbuf_r+0xb8>
    4ff4:	40f2                	lw	ra,28(sp)
    4ff6:	4462                	lw	s0,24(sp)
    4ff8:	854a                	mv	a0,s2
    4ffa:	44d2                	lw	s1,20(sp)
    4ffc:	4942                	lw	s2,16(sp)
    4ffe:	49b2                	lw	s3,12(sp)
    5000:	6105                	addi	sp,sp,32
    5002:	8082                	ret
    5004:	00003797          	auipc	a5,0x3
    5008:	68478793          	addi	a5,a5,1668 # 8688 <__sf_fake_stdout>
    500c:	00f41463          	bne	s0,a5,5014 <__swbuf_r+0xa0>
    5010:	4480                	lw	s0,8(s1)
    5012:	b769                	j	4f9c <__swbuf_r+0x28>
    5014:	00003797          	auipc	a5,0x3
    5018:	63478793          	addi	a5,a5,1588 # 8648 <__sf_fake_stderr>
    501c:	f8f410e3          	bne	s0,a5,4f9c <__swbuf_r+0x28>
    5020:	44c0                	lw	s0,12(s1)
    5022:	bfad                	j	4f9c <__swbuf_r+0x28>
    5024:	85a2                	mv	a1,s0
    5026:	8526                	mv	a0,s1
    5028:	2021                	jal	5030 <__swsetup_r>
    502a:	d141                	beqz	a0,4faa <__swbuf_r+0x36>
    502c:	597d                	li	s2,-1
    502e:	b7d9                	j	4ff4 <__swbuf_r+0x80>

00005030 <__swsetup_r>:
    5030:	1141                	addi	sp,sp,-16
    5032:	83018793          	addi	a5,gp,-2000 # 200000d8 <_impure_ptr>
    5036:	c226                	sw	s1,4(sp)
    5038:	4384                	lw	s1,0(a5)
    503a:	c422                	sw	s0,8(sp)
    503c:	c04a                	sw	s2,0(sp)
    503e:	c606                	sw	ra,12(sp)
    5040:	892a                	mv	s2,a0
    5042:	842e                	mv	s0,a1
    5044:	c489                	beqz	s1,504e <__swsetup_r+0x1e>
    5046:	4c9c                	lw	a5,24(s1)
    5048:	e399                	bnez	a5,504e <__swsetup_r+0x1e>
    504a:	8526                	mv	a0,s1
    504c:	2635                	jal	5378 <__sinit>
    504e:	00003797          	auipc	a5,0x3
    5052:	61a78793          	addi	a5,a5,1562 # 8668 <__sf_fake_stdin>
    5056:	02f41b63          	bne	s0,a5,508c <__swsetup_r+0x5c>
    505a:	40c0                	lw	s0,4(s1)
    505c:	00c41703          	lh	a4,12(s0) # 400000c <_data_lma+0x3ff7928>
    5060:	01071793          	slli	a5,a4,0x10
    5064:	83c1                	srli	a5,a5,0x10
    5066:	0087f693          	andi	a3,a5,8
    506a:	eaad                	bnez	a3,50dc <__swsetup_r+0xac>
    506c:	0107f693          	andi	a3,a5,16
    5070:	ee95                	bnez	a3,50ac <__swsetup_r+0x7c>
    5072:	47a5                	li	a5,9
    5074:	00f92023          	sw	a5,0(s2)
    5078:	04076713          	ori	a4,a4,64
    507c:	a45a                	sh	a4,12(s0)
    507e:	557d                	li	a0,-1
    5080:	40b2                	lw	ra,12(sp)
    5082:	4422                	lw	s0,8(sp)
    5084:	4492                	lw	s1,4(sp)
    5086:	4902                	lw	s2,0(sp)
    5088:	0141                	addi	sp,sp,16
    508a:	8082                	ret
    508c:	00003797          	auipc	a5,0x3
    5090:	5fc78793          	addi	a5,a5,1532 # 8688 <__sf_fake_stdout>
    5094:	00f41463          	bne	s0,a5,509c <__swsetup_r+0x6c>
    5098:	4480                	lw	s0,8(s1)
    509a:	b7c9                	j	505c <__swsetup_r+0x2c>
    509c:	00003797          	auipc	a5,0x3
    50a0:	5ac78793          	addi	a5,a5,1452 # 8648 <__sf_fake_stderr>
    50a4:	faf41ce3          	bne	s0,a5,505c <__swsetup_r+0x2c>
    50a8:	44c0                	lw	s0,12(s1)
    50aa:	bf4d                	j	505c <__swsetup_r+0x2c>
    50ac:	8b91                	andi	a5,a5,4
    50ae:	c39d                	beqz	a5,50d4 <__swsetup_r+0xa4>
    50b0:	584c                	lw	a1,52(s0)
    50b2:	c989                	beqz	a1,50c4 <__swsetup_r+0x94>
    50b4:	04440793          	addi	a5,s0,68
    50b8:	00f58463          	beq	a1,a5,50c0 <__swsetup_r+0x90>
    50bc:	854a                	mv	a0,s2
    50be:	2b29                	jal	55d8 <_free_r>
    50c0:	02042a23          	sw	zero,52(s0)
    50c4:	245e                	lhu	a5,12(s0)
    50c6:	00042223          	sw	zero,4(s0)
    50ca:	fdb7f793          	andi	a5,a5,-37
    50ce:	a45e                	sh	a5,12(s0)
    50d0:	481c                	lw	a5,16(s0)
    50d2:	c01c                	sw	a5,0(s0)
    50d4:	245e                	lhu	a5,12(s0)
    50d6:	0087e793          	ori	a5,a5,8
    50da:	a45e                	sh	a5,12(s0)
    50dc:	481c                	lw	a5,16(s0)
    50de:	eb99                	bnez	a5,50f4 <__swsetup_r+0xc4>
    50e0:	245e                	lhu	a5,12(s0)
    50e2:	20000713          	li	a4,512
    50e6:	2807f793          	andi	a5,a5,640
    50ea:	00e78563          	beq	a5,a4,50f4 <__swsetup_r+0xc4>
    50ee:	85a2                	mv	a1,s0
    50f0:	854a                	mv	a0,s2
    50f2:	2991                	jal	5546 <__smakebuf_r>
    50f4:	245e                	lhu	a5,12(s0)
    50f6:	0017f713          	andi	a4,a5,1
    50fa:	c31d                	beqz	a4,5120 <__swsetup_r+0xf0>
    50fc:	485c                	lw	a5,20(s0)
    50fe:	00042423          	sw	zero,8(s0)
    5102:	40f007b3          	neg	a5,a5
    5106:	cc1c                	sw	a5,24(s0)
    5108:	481c                	lw	a5,16(s0)
    510a:	4501                	li	a0,0
    510c:	fbb5                	bnez	a5,5080 <__swsetup_r+0x50>
    510e:	00c41783          	lh	a5,12(s0)
    5112:	0807f713          	andi	a4,a5,128
    5116:	d72d                	beqz	a4,5080 <__swsetup_r+0x50>
    5118:	0407e793          	ori	a5,a5,64
    511c:	a45e                	sh	a5,12(s0)
    511e:	b785                	j	507e <__swsetup_r+0x4e>
    5120:	8b89                	andi	a5,a5,2
    5122:	4701                	li	a4,0
    5124:	e391                	bnez	a5,5128 <__swsetup_r+0xf8>
    5126:	4858                	lw	a4,20(s0)
    5128:	c418                	sw	a4,8(s0)
    512a:	bff9                	j	5108 <__swsetup_r+0xd8>

0000512c <__sflush_r>:
    512c:	25de                	lhu	a5,12(a1)
    512e:	1101                	addi	sp,sp,-32
    5130:	cc22                	sw	s0,24(sp)
    5132:	ca26                	sw	s1,20(sp)
    5134:	ce06                	sw	ra,28(sp)
    5136:	c84a                	sw	s2,16(sp)
    5138:	c64e                	sw	s3,12(sp)
    513a:	0087f713          	andi	a4,a5,8
    513e:	84aa                	mv	s1,a0
    5140:	842e                	mv	s0,a1
    5142:	eb79                	bnez	a4,5218 <__sflush_r+0xec>
    5144:	41d8                	lw	a4,4(a1)
    5146:	00e04d63          	bgtz	a4,5160 <__sflush_r+0x34>
    514a:	41b8                	lw	a4,64(a1)
    514c:	00e04a63          	bgtz	a4,5160 <__sflush_r+0x34>
    5150:	4501                	li	a0,0
    5152:	40f2                	lw	ra,28(sp)
    5154:	4462                	lw	s0,24(sp)
    5156:	44d2                	lw	s1,20(sp)
    5158:	4942                	lw	s2,16(sp)
    515a:	49b2                	lw	s3,12(sp)
    515c:	6105                	addi	sp,sp,32
    515e:	8082                	ret
    5160:	5458                	lw	a4,44(s0)
    5162:	d77d                	beqz	a4,5150 <__sflush_r+0x24>
    5164:	0004a903          	lw	s2,0(s1)
    5168:	01379693          	slli	a3,a5,0x13
    516c:	0004a023          	sw	zero,0(s1)
    5170:	0606db63          	bgez	a3,51e6 <__sflush_r+0xba>
    5174:	4870                	lw	a2,84(s0)
    5176:	245e                	lhu	a5,12(s0)
    5178:	8b91                	andi	a5,a5,4
    517a:	c799                	beqz	a5,5188 <__sflush_r+0x5c>
    517c:	405c                	lw	a5,4(s0)
    517e:	8e1d                	sub	a2,a2,a5
    5180:	585c                	lw	a5,52(s0)
    5182:	c399                	beqz	a5,5188 <__sflush_r+0x5c>
    5184:	403c                	lw	a5,64(s0)
    5186:	8e1d                	sub	a2,a2,a5
    5188:	545c                	lw	a5,44(s0)
    518a:	500c                	lw	a1,32(s0)
    518c:	4681                	li	a3,0
    518e:	8526                	mv	a0,s1
    5190:	9782                	jalr	a5
    5192:	57fd                	li	a5,-1
    5194:	245a                	lhu	a4,12(s0)
    5196:	00f51d63          	bne	a0,a5,51b0 <__sflush_r+0x84>
    519a:	4094                	lw	a3,0(s1)
    519c:	47f5                	li	a5,29
    519e:	06d7e863          	bltu	a5,a3,520e <__sflush_r+0xe2>
    51a2:	204007b7          	lui	a5,0x20400
    51a6:	0785                	addi	a5,a5,1
    51a8:	00d7d7b3          	srl	a5,a5,a3
    51ac:	8b85                	andi	a5,a5,1
    51ae:	c3a5                	beqz	a5,520e <__sflush_r+0xe2>
    51b0:	481c                	lw	a5,16(s0)
    51b2:	00042223          	sw	zero,4(s0)
    51b6:	c01c                	sw	a5,0(s0)
    51b8:	01371793          	slli	a5,a4,0x13
    51bc:	0007d863          	bgez	a5,51cc <__sflush_r+0xa0>
    51c0:	57fd                	li	a5,-1
    51c2:	00f51463          	bne	a0,a5,51ca <__sflush_r+0x9e>
    51c6:	409c                	lw	a5,0(s1)
    51c8:	e391                	bnez	a5,51cc <__sflush_r+0xa0>
    51ca:	c868                	sw	a0,84(s0)
    51cc:	584c                	lw	a1,52(s0)
    51ce:	0124a023          	sw	s2,0(s1)
    51d2:	ddbd                	beqz	a1,5150 <__sflush_r+0x24>
    51d4:	04440793          	addi	a5,s0,68
    51d8:	00f58463          	beq	a1,a5,51e0 <__sflush_r+0xb4>
    51dc:	8526                	mv	a0,s1
    51de:	2eed                	jal	55d8 <_free_r>
    51e0:	02042a23          	sw	zero,52(s0)
    51e4:	b7b5                	j	5150 <__sflush_r+0x24>
    51e6:	500c                	lw	a1,32(s0)
    51e8:	4601                	li	a2,0
    51ea:	4685                	li	a3,1
    51ec:	8526                	mv	a0,s1
    51ee:	9702                	jalr	a4
    51f0:	57fd                	li	a5,-1
    51f2:	862a                	mv	a2,a0
    51f4:	f8f511e3          	bne	a0,a5,5176 <__sflush_r+0x4a>
    51f8:	409c                	lw	a5,0(s1)
    51fa:	dfb5                	beqz	a5,5176 <__sflush_r+0x4a>
    51fc:	4775                	li	a4,29
    51fe:	00e78563          	beq	a5,a4,5208 <__sflush_r+0xdc>
    5202:	4759                	li	a4,22
    5204:	04e79363          	bne	a5,a4,524a <__sflush_r+0x11e>
    5208:	0124a023          	sw	s2,0(s1)
    520c:	b791                	j	5150 <__sflush_r+0x24>
    520e:	04076713          	ori	a4,a4,64
    5212:	a45a                	sh	a4,12(s0)
    5214:	557d                	li	a0,-1
    5216:	bf35                	j	5152 <__sflush_r+0x26>
    5218:	0105a983          	lw	s3,16(a1)
    521c:	f2098ae3          	beqz	s3,5150 <__sflush_r+0x24>
    5220:	0005a903          	lw	s2,0(a1)
    5224:	8b8d                	andi	a5,a5,3
    5226:	0135a023          	sw	s3,0(a1)
    522a:	41390933          	sub	s2,s2,s3
    522e:	4701                	li	a4,0
    5230:	e391                	bnez	a5,5234 <__sflush_r+0x108>
    5232:	49d8                	lw	a4,20(a1)
    5234:	c418                	sw	a4,8(s0)
    5236:	f1205de3          	blez	s2,5150 <__sflush_r+0x24>
    523a:	541c                	lw	a5,40(s0)
    523c:	500c                	lw	a1,32(s0)
    523e:	86ca                	mv	a3,s2
    5240:	864e                	mv	a2,s3
    5242:	8526                	mv	a0,s1
    5244:	9782                	jalr	a5
    5246:	00a04763          	bgtz	a0,5254 <__sflush_r+0x128>
    524a:	245e                	lhu	a5,12(s0)
    524c:	0407e793          	ori	a5,a5,64
    5250:	a45e                	sh	a5,12(s0)
    5252:	b7c9                	j	5214 <__sflush_r+0xe8>
    5254:	99aa                	add	s3,s3,a0
    5256:	40a90933          	sub	s2,s2,a0
    525a:	bff1                	j	5236 <__sflush_r+0x10a>

0000525c <_fflush_r>:
    525c:	499c                	lw	a5,16(a1)
    525e:	c3a5                	beqz	a5,52be <_fflush_r+0x62>
    5260:	1101                	addi	sp,sp,-32
    5262:	cc22                	sw	s0,24(sp)
    5264:	ce06                	sw	ra,28(sp)
    5266:	842a                	mv	s0,a0
    5268:	c511                	beqz	a0,5274 <_fflush_r+0x18>
    526a:	4d1c                	lw	a5,24(a0)
    526c:	e781                	bnez	a5,5274 <_fflush_r+0x18>
    526e:	c62e                	sw	a1,12(sp)
    5270:	2221                	jal	5378 <__sinit>
    5272:	45b2                	lw	a1,12(sp)
    5274:	00003797          	auipc	a5,0x3
    5278:	3f478793          	addi	a5,a5,1012 # 8668 <__sf_fake_stdin>
    527c:	00f59c63          	bne	a1,a5,5294 <_fflush_r+0x38>
    5280:	404c                	lw	a1,4(s0)
    5282:	00c59783          	lh	a5,12(a1)
    5286:	c79d                	beqz	a5,52b4 <_fflush_r+0x58>
    5288:	8522                	mv	a0,s0
    528a:	4462                	lw	s0,24(sp)
    528c:	40f2                	lw	ra,28(sp)
    528e:	6105                	addi	sp,sp,32
    5290:	e9dff06f          	j	512c <__sflush_r>
    5294:	00003797          	auipc	a5,0x3
    5298:	3f478793          	addi	a5,a5,1012 # 8688 <__sf_fake_stdout>
    529c:	00f59463          	bne	a1,a5,52a4 <_fflush_r+0x48>
    52a0:	440c                	lw	a1,8(s0)
    52a2:	b7c5                	j	5282 <_fflush_r+0x26>
    52a4:	00003797          	auipc	a5,0x3
    52a8:	3a478793          	addi	a5,a5,932 # 8648 <__sf_fake_stderr>
    52ac:	fcf59be3          	bne	a1,a5,5282 <_fflush_r+0x26>
    52b0:	444c                	lw	a1,12(s0)
    52b2:	bfc1                	j	5282 <_fflush_r+0x26>
    52b4:	40f2                	lw	ra,28(sp)
    52b6:	4462                	lw	s0,24(sp)
    52b8:	4501                	li	a0,0
    52ba:	6105                	addi	sp,sp,32
    52bc:	8082                	ret
    52be:	4501                	li	a0,0
    52c0:	8082                	ret

000052c2 <std>:
    52c2:	1141                	addi	sp,sp,-16
    52c4:	c422                	sw	s0,8(sp)
    52c6:	c606                	sw	ra,12(sp)
    52c8:	842a                	mv	s0,a0
    52ca:	a54e                	sh	a1,12(a0)
    52cc:	a572                	sh	a2,14(a0)
    52ce:	00052023          	sw	zero,0(a0)
    52d2:	00052223          	sw	zero,4(a0)
    52d6:	00052423          	sw	zero,8(a0)
    52da:	06052223          	sw	zero,100(a0)
    52de:	00052823          	sw	zero,16(a0)
    52e2:	00052a23          	sw	zero,20(a0)
    52e6:	00052c23          	sw	zero,24(a0)
    52ea:	4621                	li	a2,8
    52ec:	4581                	li	a1,0
    52ee:	05c50513          	addi	a0,a0,92
    52f2:	f6ffa0ef          	jal	ra,260 <memset>
    52f6:	00001797          	auipc	a5,0x1
    52fa:	e7c78793          	addi	a5,a5,-388 # 6172 <__sread>
    52fe:	d05c                	sw	a5,36(s0)
    5300:	00001797          	auipc	a5,0x1
    5304:	e9e78793          	addi	a5,a5,-354 # 619e <__swrite>
    5308:	d41c                	sw	a5,40(s0)
    530a:	00001797          	auipc	a5,0x1
    530e:	edc78793          	addi	a5,a5,-292 # 61e6 <__sseek>
    5312:	d45c                	sw	a5,44(s0)
    5314:	00001797          	auipc	a5,0x1
    5318:	f0278793          	addi	a5,a5,-254 # 6216 <__sclose>
    531c:	d000                	sw	s0,32(s0)
    531e:	d81c                	sw	a5,48(s0)
    5320:	40b2                	lw	ra,12(sp)
    5322:	4422                	lw	s0,8(sp)
    5324:	0141                	addi	sp,sp,16
    5326:	8082                	ret

00005328 <_cleanup_r>:
    5328:	00000597          	auipc	a1,0x0
    532c:	f3458593          	addi	a1,a1,-204 # 525c <_fflush_r>
    5330:	aa91                	j	5484 <_fwalk_reent>

00005332 <__sfmoreglue>:
    5332:	1141                	addi	sp,sp,-16
    5334:	c226                	sw	s1,4(sp)
    5336:	06800613          	li	a2,104
    533a:	fff58493          	addi	s1,a1,-1
    533e:	02c484b3          	mul	s1,s1,a2
    5342:	c04a                	sw	s2,0(sp)
    5344:	892e                	mv	s2,a1
    5346:	c422                	sw	s0,8(sp)
    5348:	c606                	sw	ra,12(sp)
    534a:	07448593          	addi	a1,s1,116
    534e:	2e0d                	jal	5680 <_malloc_r>
    5350:	842a                	mv	s0,a0
    5352:	cd01                	beqz	a0,536a <__sfmoreglue+0x38>
    5354:	00052023          	sw	zero,0(a0)
    5358:	01252223          	sw	s2,4(a0)
    535c:	0531                	addi	a0,a0,12
    535e:	c408                	sw	a0,8(s0)
    5360:	06848613          	addi	a2,s1,104
    5364:	4581                	li	a1,0
    5366:	efbfa0ef          	jal	ra,260 <memset>
    536a:	8522                	mv	a0,s0
    536c:	40b2                	lw	ra,12(sp)
    536e:	4422                	lw	s0,8(sp)
    5370:	4492                	lw	s1,4(sp)
    5372:	4902                	lw	s2,0(sp)
    5374:	0141                	addi	sp,sp,16
    5376:	8082                	ret

00005378 <__sinit>:
    5378:	4d1c                	lw	a5,24(a0)
    537a:	e7a5                	bnez	a5,53e2 <__sinit+0x6a>
    537c:	1141                	addi	sp,sp,-16
    537e:	c606                	sw	ra,12(sp)
    5380:	c422                	sw	s0,8(sp)
    5382:	00000797          	auipc	a5,0x0
    5386:	fa678793          	addi	a5,a5,-90 # 5328 <_cleanup_r>
    538a:	d51c                	sw	a5,40(a0)
    538c:	83418793          	addi	a5,gp,-1996 # 200000dc <_global_impure_ptr>
    5390:	439c                	lw	a5,0(a5)
    5392:	04052423          	sw	zero,72(a0)
    5396:	04052623          	sw	zero,76(a0)
    539a:	04052823          	sw	zero,80(a0)
    539e:	00f51463          	bne	a0,a5,53a6 <__sinit+0x2e>
    53a2:	4785                	li	a5,1
    53a4:	cd1c                	sw	a5,24(a0)
    53a6:	842a                	mv	s0,a0
    53a8:	2835                	jal	53e4 <__sfp>
    53aa:	c048                	sw	a0,4(s0)
    53ac:	8522                	mv	a0,s0
    53ae:	281d                	jal	53e4 <__sfp>
    53b0:	c408                	sw	a0,8(s0)
    53b2:	8522                	mv	a0,s0
    53b4:	2805                	jal	53e4 <__sfp>
    53b6:	c448                	sw	a0,12(s0)
    53b8:	4048                	lw	a0,4(s0)
    53ba:	4601                	li	a2,0
    53bc:	4591                	li	a1,4
    53be:	f05ff0ef          	jal	ra,52c2 <std>
    53c2:	4408                	lw	a0,8(s0)
    53c4:	4605                	li	a2,1
    53c6:	45a5                	li	a1,9
    53c8:	efbff0ef          	jal	ra,52c2 <std>
    53cc:	4448                	lw	a0,12(s0)
    53ce:	4609                	li	a2,2
    53d0:	45c9                	li	a1,18
    53d2:	ef1ff0ef          	jal	ra,52c2 <std>
    53d6:	4785                	li	a5,1
    53d8:	cc1c                	sw	a5,24(s0)
    53da:	40b2                	lw	ra,12(sp)
    53dc:	4422                	lw	s0,8(sp)
    53de:	0141                	addi	sp,sp,16
    53e0:	8082                	ret
    53e2:	8082                	ret

000053e4 <__sfp>:
    53e4:	1141                	addi	sp,sp,-16
    53e6:	83418793          	addi	a5,gp,-1996 # 200000dc <_global_impure_ptr>
    53ea:	c226                	sw	s1,4(sp)
    53ec:	4384                	lw	s1,0(a5)
    53ee:	c04a                	sw	s2,0(sp)
    53f0:	c606                	sw	ra,12(sp)
    53f2:	4c9c                	lw	a5,24(s1)
    53f4:	c422                	sw	s0,8(sp)
    53f6:	892a                	mv	s2,a0
    53f8:	e781                	bnez	a5,5400 <__sfp+0x1c>
    53fa:	8526                	mv	a0,s1
    53fc:	f7dff0ef          	jal	ra,5378 <__sinit>
    5400:	04848493          	addi	s1,s1,72
    5404:	4480                	lw	s0,8(s1)
    5406:	40dc                	lw	a5,4(s1)
    5408:	17fd                	addi	a5,a5,-1
    540a:	0007d663          	bgez	a5,5416 <__sfp+0x32>
    540e:	409c                	lw	a5,0(s1)
    5410:	cfb9                	beqz	a5,546e <__sfp+0x8a>
    5412:	4084                	lw	s1,0(s1)
    5414:	bfc5                	j	5404 <__sfp+0x20>
    5416:	00c41703          	lh	a4,12(s0)
    541a:	e739                	bnez	a4,5468 <__sfp+0x84>
    541c:	77c1                	lui	a5,0xffff0
    541e:	0785                	addi	a5,a5,1
    5420:	06042223          	sw	zero,100(s0)
    5424:	00042023          	sw	zero,0(s0)
    5428:	00042223          	sw	zero,4(s0)
    542c:	00042423          	sw	zero,8(s0)
    5430:	c45c                	sw	a5,12(s0)
    5432:	00042823          	sw	zero,16(s0)
    5436:	00042a23          	sw	zero,20(s0)
    543a:	00042c23          	sw	zero,24(s0)
    543e:	4621                	li	a2,8
    5440:	4581                	li	a1,0
    5442:	05c40513          	addi	a0,s0,92
    5446:	e1bfa0ef          	jal	ra,260 <memset>
    544a:	02042a23          	sw	zero,52(s0)
    544e:	02042c23          	sw	zero,56(s0)
    5452:	04042423          	sw	zero,72(s0)
    5456:	04042623          	sw	zero,76(s0)
    545a:	8522                	mv	a0,s0
    545c:	40b2                	lw	ra,12(sp)
    545e:	4422                	lw	s0,8(sp)
    5460:	4492                	lw	s1,4(sp)
    5462:	4902                	lw	s2,0(sp)
    5464:	0141                	addi	sp,sp,16
    5466:	8082                	ret
    5468:	06840413          	addi	s0,s0,104
    546c:	bf71                	j	5408 <__sfp+0x24>
    546e:	4591                	li	a1,4
    5470:	854a                	mv	a0,s2
    5472:	ec1ff0ef          	jal	ra,5332 <__sfmoreglue>
    5476:	c088                	sw	a0,0(s1)
    5478:	fd49                	bnez	a0,5412 <__sfp+0x2e>
    547a:	47b1                	li	a5,12
    547c:	00f92023          	sw	a5,0(s2)
    5480:	4401                	li	s0,0
    5482:	bfe1                	j	545a <__sfp+0x76>

00005484 <_fwalk_reent>:
    5484:	7179                	addi	sp,sp,-48
    5486:	d422                	sw	s0,40(sp)
    5488:	d04a                	sw	s2,32(sp)
    548a:	cc52                	sw	s4,24(sp)
    548c:	ca56                	sw	s5,20(sp)
    548e:	c85a                	sw	s6,16(sp)
    5490:	c65e                	sw	s7,12(sp)
    5492:	d606                	sw	ra,44(sp)
    5494:	d226                	sw	s1,36(sp)
    5496:	ce4e                	sw	s3,28(sp)
    5498:	8a2a                	mv	s4,a0
    549a:	8aae                	mv	s5,a1
    549c:	04850413          	addi	s0,a0,72
    54a0:	4901                	li	s2,0
    54a2:	4b05                	li	s6,1
    54a4:	5bfd                	li	s7,-1
    54a6:	ec09                	bnez	s0,54c0 <_fwalk_reent+0x3c>
    54a8:	50b2                	lw	ra,44(sp)
    54aa:	5422                	lw	s0,40(sp)
    54ac:	854a                	mv	a0,s2
    54ae:	5492                	lw	s1,36(sp)
    54b0:	5902                	lw	s2,32(sp)
    54b2:	49f2                	lw	s3,28(sp)
    54b4:	4a62                	lw	s4,24(sp)
    54b6:	4ad2                	lw	s5,20(sp)
    54b8:	4b42                	lw	s6,16(sp)
    54ba:	4bb2                	lw	s7,12(sp)
    54bc:	6145                	addi	sp,sp,48
    54be:	8082                	ret
    54c0:	4404                	lw	s1,8(s0)
    54c2:	00442983          	lw	s3,4(s0)
    54c6:	19fd                	addi	s3,s3,-1
    54c8:	0009d463          	bgez	s3,54d0 <_fwalk_reent+0x4c>
    54cc:	4000                	lw	s0,0(s0)
    54ce:	bfe1                	j	54a6 <_fwalk_reent+0x22>
    54d0:	24de                	lhu	a5,12(s1)
    54d2:	00fb7b63          	bgeu	s6,a5,54e8 <_fwalk_reent+0x64>
    54d6:	00e49783          	lh	a5,14(s1)
    54da:	01778763          	beq	a5,s7,54e8 <_fwalk_reent+0x64>
    54de:	85a6                	mv	a1,s1
    54e0:	8552                	mv	a0,s4
    54e2:	9a82                	jalr	s5
    54e4:	00a96933          	or	s2,s2,a0
    54e8:	06848493          	addi	s1,s1,104
    54ec:	bfe9                	j	54c6 <_fwalk_reent+0x42>

000054ee <__swhatbuf_r>:
    54ee:	7119                	addi	sp,sp,-128
    54f0:	daa6                	sw	s1,116(sp)
    54f2:	84ae                	mv	s1,a1
    54f4:	00e59583          	lh	a1,14(a1)
    54f8:	dca2                	sw	s0,120(sp)
    54fa:	de86                	sw	ra,124(sp)
    54fc:	8432                	mv	s0,a2
    54fe:	0005db63          	bgez	a1,5514 <__swhatbuf_r+0x26>
    5502:	24de                	lhu	a5,12(s1)
    5504:	0006a023          	sw	zero,0(a3)
    5508:	0807f793          	andi	a5,a5,128
    550c:	e785                	bnez	a5,5534 <__swhatbuf_r+0x46>
    550e:	40000793          	li	a5,1024
    5512:	a01d                	j	5538 <__swhatbuf_r+0x4a>
    5514:	0830                	addi	a2,sp,24
    5516:	c636                	sw	a3,12(sp)
    5518:	55b000ef          	jal	ra,6272 <_fstat_r>
    551c:	46b2                	lw	a3,12(sp)
    551e:	fe0542e3          	bltz	a0,5502 <__swhatbuf_r+0x14>
    5522:	4772                	lw	a4,28(sp)
    5524:	67bd                	lui	a5,0xf
    5526:	8ff9                	and	a5,a5,a4
    5528:	7779                	lui	a4,0xffffe
    552a:	97ba                	add	a5,a5,a4
    552c:	0017b793          	seqz	a5,a5
    5530:	c29c                	sw	a5,0(a3)
    5532:	bff1                	j	550e <__swhatbuf_r+0x20>
    5534:	04000793          	li	a5,64
    5538:	c01c                	sw	a5,0(s0)
    553a:	50f6                	lw	ra,124(sp)
    553c:	5466                	lw	s0,120(sp)
    553e:	54d6                	lw	s1,116(sp)
    5540:	4501                	li	a0,0
    5542:	6109                	addi	sp,sp,128
    5544:	8082                	ret

00005546 <__smakebuf_r>:
    5546:	25de                	lhu	a5,12(a1)
    5548:	1101                	addi	sp,sp,-32
    554a:	cc22                	sw	s0,24(sp)
    554c:	ce06                	sw	ra,28(sp)
    554e:	ca26                	sw	s1,20(sp)
    5550:	c84a                	sw	s2,16(sp)
    5552:	8b89                	andi	a5,a5,2
    5554:	842e                	mv	s0,a1
    5556:	cf89                	beqz	a5,5570 <__smakebuf_r+0x2a>
    5558:	04740793          	addi	a5,s0,71
    555c:	c01c                	sw	a5,0(s0)
    555e:	c81c                	sw	a5,16(s0)
    5560:	4785                	li	a5,1
    5562:	c85c                	sw	a5,20(s0)
    5564:	40f2                	lw	ra,28(sp)
    5566:	4462                	lw	s0,24(sp)
    5568:	44d2                	lw	s1,20(sp)
    556a:	4942                	lw	s2,16(sp)
    556c:	6105                	addi	sp,sp,32
    556e:	8082                	ret
    5570:	0074                	addi	a3,sp,12
    5572:	0030                	addi	a2,sp,8
    5574:	84aa                	mv	s1,a0
    5576:	f79ff0ef          	jal	ra,54ee <__swhatbuf_r>
    557a:	45a2                	lw	a1,8(sp)
    557c:	892a                	mv	s2,a0
    557e:	8526                	mv	a0,s1
    5580:	2201                	jal	5680 <_malloc_r>
    5582:	e919                	bnez	a0,5598 <__smakebuf_r+0x52>
    5584:	00c41783          	lh	a5,12(s0)
    5588:	2007f713          	andi	a4,a5,512
    558c:	ff61                	bnez	a4,5564 <__smakebuf_r+0x1e>
    558e:	9bf1                	andi	a5,a5,-4
    5590:	0027e793          	ori	a5,a5,2
    5594:	a45e                	sh	a5,12(s0)
    5596:	b7c9                	j	5558 <__smakebuf_r+0x12>
    5598:	00000797          	auipc	a5,0x0
    559c:	d9078793          	addi	a5,a5,-624 # 5328 <_cleanup_r>
    55a0:	d49c                	sw	a5,40(s1)
    55a2:	245e                	lhu	a5,12(s0)
    55a4:	c008                	sw	a0,0(s0)
    55a6:	c808                	sw	a0,16(s0)
    55a8:	0807e793          	ori	a5,a5,128
    55ac:	a45e                	sh	a5,12(s0)
    55ae:	47a2                	lw	a5,8(sp)
    55b0:	c85c                	sw	a5,20(s0)
    55b2:	47b2                	lw	a5,12(sp)
    55b4:	cf81                	beqz	a5,55cc <__smakebuf_r+0x86>
    55b6:	00e41583          	lh	a1,14(s0)
    55ba:	8526                	mv	a0,s1
    55bc:	4e1000ef          	jal	ra,629c <_isatty_r>
    55c0:	c511                	beqz	a0,55cc <__smakebuf_r+0x86>
    55c2:	245e                	lhu	a5,12(s0)
    55c4:	9bf1                	andi	a5,a5,-4
    55c6:	0017e793          	ori	a5,a5,1
    55ca:	a45e                	sh	a5,12(s0)
    55cc:	245e                	lhu	a5,12(s0)
    55ce:	00f96933          	or	s2,s2,a5
    55d2:	01241623          	sh	s2,12(s0)
    55d6:	b779                	j	5564 <__smakebuf_r+0x1e>

000055d8 <_free_r>:
    55d8:	c1dd                	beqz	a1,567e <_free_r+0xa6>
    55da:	ffc5a783          	lw	a5,-4(a1)
    55de:	1141                	addi	sp,sp,-16
    55e0:	c422                	sw	s0,8(sp)
    55e2:	c606                	sw	ra,12(sp)
    55e4:	c226                	sw	s1,4(sp)
    55e6:	ffc58413          	addi	s0,a1,-4
    55ea:	0007d363          	bgez	a5,55f0 <_free_r+0x18>
    55ee:	943e                	add	s0,s0,a5
    55f0:	84aa                	mv	s1,a0
    55f2:	55d000ef          	jal	ra,634e <__malloc_lock>
    55f6:	87818793          	addi	a5,gp,-1928 # 20000120 <__malloc_free_list>
    55fa:	439c                	lw	a5,0(a5)
    55fc:	ef81                	bnez	a5,5614 <_free_r+0x3c>
    55fe:	00042223          	sw	zero,4(s0)
    5602:	8681ac23          	sw	s0,-1928(gp) # 20000120 <__malloc_free_list>
    5606:	4422                	lw	s0,8(sp)
    5608:	40b2                	lw	ra,12(sp)
    560a:	8526                	mv	a0,s1
    560c:	4492                	lw	s1,4(sp)
    560e:	0141                	addi	sp,sp,16
    5610:	5410006f          	j	6350 <__malloc_unlock>
    5614:	00f47e63          	bgeu	s0,a5,5630 <_free_r+0x58>
    5618:	4014                	lw	a3,0(s0)
    561a:	00d40733          	add	a4,s0,a3
    561e:	00e79663          	bne	a5,a4,562a <_free_r+0x52>
    5622:	4398                	lw	a4,0(a5)
    5624:	43dc                	lw	a5,4(a5)
    5626:	9736                	add	a4,a4,a3
    5628:	c018                	sw	a4,0(s0)
    562a:	c05c                	sw	a5,4(s0)
    562c:	bfd9                	j	5602 <_free_r+0x2a>
    562e:	87ba                	mv	a5,a4
    5630:	43d8                	lw	a4,4(a5)
    5632:	c319                	beqz	a4,5638 <_free_r+0x60>
    5634:	fee47de3          	bgeu	s0,a4,562e <_free_r+0x56>
    5638:	4394                	lw	a3,0(a5)
    563a:	00d78633          	add	a2,a5,a3
    563e:	00861f63          	bne	a2,s0,565c <_free_r+0x84>
    5642:	4010                	lw	a2,0(s0)
    5644:	96b2                	add	a3,a3,a2
    5646:	c394                	sw	a3,0(a5)
    5648:	00d78633          	add	a2,a5,a3
    564c:	fac71de3          	bne	a4,a2,5606 <_free_r+0x2e>
    5650:	4310                	lw	a2,0(a4)
    5652:	4358                	lw	a4,4(a4)
    5654:	96b2                	add	a3,a3,a2
    5656:	c394                	sw	a3,0(a5)
    5658:	c3d8                	sw	a4,4(a5)
    565a:	b775                	j	5606 <_free_r+0x2e>
    565c:	00c47563          	bgeu	s0,a2,5666 <_free_r+0x8e>
    5660:	47b1                	li	a5,12
    5662:	c09c                	sw	a5,0(s1)
    5664:	b74d                	j	5606 <_free_r+0x2e>
    5666:	4010                	lw	a2,0(s0)
    5668:	00c406b3          	add	a3,s0,a2
    566c:	00d71663          	bne	a4,a3,5678 <_free_r+0xa0>
    5670:	4314                	lw	a3,0(a4)
    5672:	4358                	lw	a4,4(a4)
    5674:	96b2                	add	a3,a3,a2
    5676:	c014                	sw	a3,0(s0)
    5678:	c058                	sw	a4,4(s0)
    567a:	c3c0                	sw	s0,4(a5)
    567c:	b769                	j	5606 <_free_r+0x2e>
    567e:	8082                	ret

00005680 <_malloc_r>:
    5680:	1101                	addi	sp,sp,-32
    5682:	ca26                	sw	s1,20(sp)
    5684:	00358493          	addi	s1,a1,3
    5688:	98f1                	andi	s1,s1,-4
    568a:	ce06                	sw	ra,28(sp)
    568c:	cc22                	sw	s0,24(sp)
    568e:	c84a                	sw	s2,16(sp)
    5690:	c64e                	sw	s3,12(sp)
    5692:	04a1                	addi	s1,s1,8
    5694:	47b1                	li	a5,12
    5696:	04f4f563          	bgeu	s1,a5,56e0 <_malloc_r+0x60>
    569a:	44b1                	li	s1,12
    569c:	04b4e463          	bltu	s1,a1,56e4 <_malloc_r+0x64>
    56a0:	892a                	mv	s2,a0
    56a2:	4ad000ef          	jal	ra,634e <__malloc_lock>
    56a6:	87818793          	addi	a5,gp,-1928 # 20000120 <__malloc_free_list>
    56aa:	4398                	lw	a4,0(a5)
    56ac:	843a                	mv	s0,a4
    56ae:	e429                	bnez	s0,56f8 <_malloc_r+0x78>
    56b0:	87c18793          	addi	a5,gp,-1924 # 20000124 <__malloc_sbrk_start>
    56b4:	439c                	lw	a5,0(a5)
    56b6:	e799                	bnez	a5,56c4 <_malloc_r+0x44>
    56b8:	4581                	li	a1,0
    56ba:	854a                	mv	a0,s2
    56bc:	28d000ef          	jal	ra,6148 <_sbrk_r>
    56c0:	86a1ae23          	sw	a0,-1924(gp) # 20000124 <__malloc_sbrk_start>
    56c4:	85a6                	mv	a1,s1
    56c6:	854a                	mv	a0,s2
    56c8:	281000ef          	jal	ra,6148 <_sbrk_r>
    56cc:	59fd                	li	s3,-1
    56ce:	07351963          	bne	a0,s3,5740 <_malloc_r+0xc0>
    56d2:	47b1                	li	a5,12
    56d4:	00f92023          	sw	a5,0(s2)
    56d8:	854a                	mv	a0,s2
    56da:	477000ef          	jal	ra,6350 <__malloc_unlock>
    56de:	a029                	j	56e8 <_malloc_r+0x68>
    56e0:	fa04dee3          	bgez	s1,569c <_malloc_r+0x1c>
    56e4:	47b1                	li	a5,12
    56e6:	c11c                	sw	a5,0(a0)
    56e8:	4501                	li	a0,0
    56ea:	40f2                	lw	ra,28(sp)
    56ec:	4462                	lw	s0,24(sp)
    56ee:	44d2                	lw	s1,20(sp)
    56f0:	4942                	lw	s2,16(sp)
    56f2:	49b2                	lw	s3,12(sp)
    56f4:	6105                	addi	sp,sp,32
    56f6:	8082                	ret
    56f8:	401c                	lw	a5,0(s0)
    56fa:	8f85                	sub	a5,a5,s1
    56fc:	0207cf63          	bltz	a5,573a <_malloc_r+0xba>
    5700:	46ad                	li	a3,11
    5702:	00f6f663          	bgeu	a3,a5,570e <_malloc_r+0x8e>
    5706:	c01c                	sw	a5,0(s0)
    5708:	943e                	add	s0,s0,a5
    570a:	c004                	sw	s1,0(s0)
    570c:	a031                	j	5718 <_malloc_r+0x98>
    570e:	405c                	lw	a5,4(s0)
    5710:	02871363          	bne	a4,s0,5736 <_malloc_r+0xb6>
    5714:	86f1ac23          	sw	a5,-1928(gp) # 20000120 <__malloc_free_list>
    5718:	854a                	mv	a0,s2
    571a:	437000ef          	jal	ra,6350 <__malloc_unlock>
    571e:	00b40513          	addi	a0,s0,11
    5722:	00440793          	addi	a5,s0,4
    5726:	9961                	andi	a0,a0,-8
    5728:	40f50733          	sub	a4,a0,a5
    572c:	df5d                	beqz	a4,56ea <_malloc_r+0x6a>
    572e:	943a                	add	s0,s0,a4
    5730:	8f89                	sub	a5,a5,a0
    5732:	c01c                	sw	a5,0(s0)
    5734:	bf5d                	j	56ea <_malloc_r+0x6a>
    5736:	c35c                	sw	a5,4(a4)
    5738:	b7c5                	j	5718 <_malloc_r+0x98>
    573a:	8722                	mv	a4,s0
    573c:	4040                	lw	s0,4(s0)
    573e:	bf85                	j	56ae <_malloc_r+0x2e>
    5740:	00350413          	addi	s0,a0,3
    5744:	9871                	andi	s0,s0,-4
    5746:	fc8502e3          	beq	a0,s0,570a <_malloc_r+0x8a>
    574a:	40a405b3          	sub	a1,s0,a0
    574e:	854a                	mv	a0,s2
    5750:	1f9000ef          	jal	ra,6148 <_sbrk_r>
    5754:	fb351be3          	bne	a0,s3,570a <_malloc_r+0x8a>
    5758:	bfad                	j	56d2 <_malloc_r+0x52>

0000575a <__ssputs_r>:
    575a:	1101                	addi	sp,sp,-32
    575c:	c84a                	sw	s2,16(sp)
    575e:	0085a903          	lw	s2,8(a1)
    5762:	cc22                	sw	s0,24(sp)
    5764:	c452                	sw	s4,8(sp)
    5766:	c05a                	sw	s6,0(sp)
    5768:	ce06                	sw	ra,28(sp)
    576a:	ca26                	sw	s1,20(sp)
    576c:	c64e                	sw	s3,12(sp)
    576e:	c256                	sw	s5,4(sp)
    5770:	842e                	mv	s0,a1
    5772:	8b32                	mv	s6,a2
    5774:	8a36                	mv	s4,a3
    5776:	0926e963          	bltu	a3,s2,5808 <__ssputs_r+0xae>
    577a:	25de                	lhu	a5,12(a1)
    577c:	4807f713          	andi	a4,a5,1152
    5780:	c351                	beqz	a4,5804 <__ssputs_r+0xaa>
    5782:	4004                	lw	s1,0(s0)
    5784:	498c                	lw	a1,16(a1)
    5786:	4858                	lw	a4,20(s0)
    5788:	8aaa                	mv	s5,a0
    578a:	40b489b3          	sub	s3,s1,a1
    578e:	448d                	li	s1,3
    5790:	02e484b3          	mul	s1,s1,a4
    5794:	4709                	li	a4,2
    5796:	02e4c4b3          	div	s1,s1,a4
    579a:	00168713          	addi	a4,a3,1
    579e:	974e                	add	a4,a4,s3
    57a0:	00e4f363          	bgeu	s1,a4,57a6 <__ssputs_r+0x4c>
    57a4:	84ba                	mv	s1,a4
    57a6:	4007f793          	andi	a5,a5,1024
    57aa:	cfbd                	beqz	a5,5828 <__ssputs_r+0xce>
    57ac:	85a6                	mv	a1,s1
    57ae:	8556                	mv	a0,s5
    57b0:	ed1ff0ef          	jal	ra,5680 <_malloc_r>
    57b4:	892a                	mv	s2,a0
    57b6:	e11d                	bnez	a0,57dc <__ssputs_r+0x82>
    57b8:	47b1                	li	a5,12
    57ba:	00faa023          	sw	a5,0(s5)
    57be:	245e                	lhu	a5,12(s0)
    57c0:	557d                	li	a0,-1
    57c2:	0407e793          	ori	a5,a5,64
    57c6:	a45e                	sh	a5,12(s0)
    57c8:	40f2                	lw	ra,28(sp)
    57ca:	4462                	lw	s0,24(sp)
    57cc:	44d2                	lw	s1,20(sp)
    57ce:	4942                	lw	s2,16(sp)
    57d0:	49b2                	lw	s3,12(sp)
    57d2:	4a22                	lw	s4,8(sp)
    57d4:	4a92                	lw	s5,4(sp)
    57d6:	4b02                	lw	s6,0(sp)
    57d8:	6105                	addi	sp,sp,32
    57da:	8082                	ret
    57dc:	480c                	lw	a1,16(s0)
    57de:	864e                	mv	a2,s3
    57e0:	d36ff0ef          	jal	ra,4d16 <memcpy>
    57e4:	245e                	lhu	a5,12(s0)
    57e6:	b7f7f793          	andi	a5,a5,-1153
    57ea:	0807e793          	ori	a5,a5,128
    57ee:	a45e                	sh	a5,12(s0)
    57f0:	01242823          	sw	s2,16(s0)
    57f4:	c844                	sw	s1,20(s0)
    57f6:	994e                	add	s2,s2,s3
    57f8:	413484b3          	sub	s1,s1,s3
    57fc:	01242023          	sw	s2,0(s0)
    5800:	c404                	sw	s1,8(s0)
    5802:	8952                	mv	s2,s4
    5804:	012a7363          	bgeu	s4,s2,580a <__ssputs_r+0xb0>
    5808:	8952                	mv	s2,s4
    580a:	4008                	lw	a0,0(s0)
    580c:	864a                	mv	a2,s2
    580e:	85da                	mv	a1,s6
    5810:	2f9000ef          	jal	ra,6308 <memmove>
    5814:	441c                	lw	a5,8(s0)
    5816:	4501                	li	a0,0
    5818:	412787b3          	sub	a5,a5,s2
    581c:	c41c                	sw	a5,8(s0)
    581e:	401c                	lw	a5,0(s0)
    5820:	993e                	add	s2,s2,a5
    5822:	01242023          	sw	s2,0(s0)
    5826:	b74d                	j	57c8 <__ssputs_r+0x6e>
    5828:	8626                	mv	a2,s1
    582a:	8556                	mv	a0,s5
    582c:	327000ef          	jal	ra,6352 <_realloc_r>
    5830:	892a                	mv	s2,a0
    5832:	fd5d                	bnez	a0,57f0 <__ssputs_r+0x96>
    5834:	480c                	lw	a1,16(s0)
    5836:	8556                	mv	a0,s5
    5838:	da1ff0ef          	jal	ra,55d8 <_free_r>
    583c:	bfb5                	j	57b8 <__ssputs_r+0x5e>

0000583e <_svfiprintf_r>:
    583e:	25de                	lhu	a5,12(a1)
    5840:	7171                	addi	sp,sp,-176
    5842:	d326                	sw	s1,164(sp)
    5844:	d14a                	sw	s2,160(sp)
    5846:	cf4e                	sw	s3,156(sp)
    5848:	d706                	sw	ra,172(sp)
    584a:	d522                	sw	s0,168(sp)
    584c:	cd52                	sw	s4,152(sp)
    584e:	cb56                	sw	s5,148(sp)
    5850:	c95a                	sw	s6,144(sp)
    5852:	c75e                	sw	s7,140(sp)
    5854:	c562                	sw	s8,136(sp)
    5856:	c366                	sw	s9,132(sp)
    5858:	0807f793          	andi	a5,a5,128
    585c:	89aa                	mv	s3,a0
    585e:	892e                	mv	s2,a1
    5860:	84b2                	mv	s1,a2
    5862:	c3b9                	beqz	a5,58a8 <_svfiprintf_r+0x6a>
    5864:	499c                	lw	a5,16(a1)
    5866:	e3a9                	bnez	a5,58a8 <_svfiprintf_r+0x6a>
    5868:	04000593          	li	a1,64
    586c:	c636                	sw	a3,12(sp)
    586e:	e13ff0ef          	jal	ra,5680 <_malloc_r>
    5872:	00a92023          	sw	a0,0(s2)
    5876:	00a92823          	sw	a0,16(s2)
    587a:	46b2                	lw	a3,12(sp)
    587c:	e115                	bnez	a0,58a0 <_svfiprintf_r+0x62>
    587e:	47b1                	li	a5,12
    5880:	00f9a023          	sw	a5,0(s3)
    5884:	557d                	li	a0,-1
    5886:	50ba                	lw	ra,172(sp)
    5888:	542a                	lw	s0,168(sp)
    588a:	549a                	lw	s1,164(sp)
    588c:	590a                	lw	s2,160(sp)
    588e:	49fa                	lw	s3,156(sp)
    5890:	4a6a                	lw	s4,152(sp)
    5892:	4ada                	lw	s5,148(sp)
    5894:	4b4a                	lw	s6,144(sp)
    5896:	4bba                	lw	s7,140(sp)
    5898:	4c2a                	lw	s8,136(sp)
    589a:	4c9a                	lw	s9,132(sp)
    589c:	614d                	addi	sp,sp,176
    589e:	8082                	ret
    58a0:	04000793          	li	a5,64
    58a4:	00f92a23          	sw	a5,20(s2)
    58a8:	02000793          	li	a5,32
    58ac:	02f10ca3          	sb	a5,57(sp)
    58b0:	03000793          	li	a5,48
    58b4:	da02                	sw	zero,52(sp)
    58b6:	02f10d23          	sb	a5,58(sp)
    58ba:	ce36                	sw	a3,28(sp)
    58bc:	02500b93          	li	s7,37
    58c0:	00003a97          	auipc	s5,0x3
    58c4:	de8a8a93          	addi	s5,s5,-536 # 86a8 <__sf_fake_stdout+0x20>
    58c8:	4c05                	li	s8,1
    58ca:	4b29                	li	s6,10
    58cc:	8426                	mv	s0,s1
    58ce:	201c                	lbu	a5,0(s0)
    58d0:	c399                	beqz	a5,58d6 <_svfiprintf_r+0x98>
    58d2:	09779963          	bne	a5,s7,5964 <_svfiprintf_r+0x126>
    58d6:	40940cb3          	sub	s9,s0,s1
    58da:	000c8e63          	beqz	s9,58f6 <_svfiprintf_r+0xb8>
    58de:	86e6                	mv	a3,s9
    58e0:	8626                	mv	a2,s1
    58e2:	85ca                	mv	a1,s2
    58e4:	854e                	mv	a0,s3
    58e6:	e75ff0ef          	jal	ra,575a <__ssputs_r>
    58ea:	57fd                	li	a5,-1
    58ec:	18f50b63          	beq	a0,a5,5a82 <_svfiprintf_r+0x244>
    58f0:	56d2                	lw	a3,52(sp)
    58f2:	96e6                	add	a3,a3,s9
    58f4:	da36                	sw	a3,52(sp)
    58f6:	201c                	lbu	a5,0(s0)
    58f8:	18078563          	beqz	a5,5a82 <_svfiprintf_r+0x244>
    58fc:	57fd                	li	a5,-1
    58fe:	00140493          	addi	s1,s0,1
    5902:	d002                	sw	zero,32(sp)
    5904:	d602                	sw	zero,44(sp)
    5906:	d23e                	sw	a5,36(sp)
    5908:	d402                	sw	zero,40(sp)
    590a:	060101a3          	sb	zero,99(sp)
    590e:	dc82                	sw	zero,120(sp)
    5910:	208c                	lbu	a1,0(s1)
    5912:	4615                	li	a2,5
    5914:	8556                	mv	a0,s5
    5916:	1db000ef          	jal	ra,62f0 <memchr>
    591a:	00148413          	addi	s0,s1,1
    591e:	5782                	lw	a5,32(sp)
    5920:	e521                	bnez	a0,5968 <_svfiprintf_r+0x12a>
    5922:	0107f713          	andi	a4,a5,16
    5926:	c709                	beqz	a4,5930 <_svfiprintf_r+0xf2>
    5928:	02000713          	li	a4,32
    592c:	06e101a3          	sb	a4,99(sp)
    5930:	0087f713          	andi	a4,a5,8
    5934:	c709                	beqz	a4,593e <_svfiprintf_r+0x100>
    5936:	02b00713          	li	a4,43
    593a:	06e101a3          	sb	a4,99(sp)
    593e:	2094                	lbu	a3,0(s1)
    5940:	02a00713          	li	a4,42
    5944:	02e68a63          	beq	a3,a4,5978 <_svfiprintf_r+0x13a>
    5948:	57b2                	lw	a5,44(sp)
    594a:	8426                	mv	s0,s1
    594c:	4681                	li	a3,0
    594e:	4625                	li	a2,9
    5950:	2018                	lbu	a4,0(s0)
    5952:	00140593          	addi	a1,s0,1
    5956:	fd070713          	addi	a4,a4,-48 # ffffdfd0 <_eusrstack+0xdfff5fd0>
    595a:	06e67263          	bgeu	a2,a4,59be <_svfiprintf_r+0x180>
    595e:	c68d                	beqz	a3,5988 <_svfiprintf_r+0x14a>
    5960:	d63e                	sw	a5,44(sp)
    5962:	a01d                	j	5988 <_svfiprintf_r+0x14a>
    5964:	0405                	addi	s0,s0,1
    5966:	b7a5                	j	58ce <_svfiprintf_r+0x90>
    5968:	41550533          	sub	a0,a0,s5
    596c:	00ac1533          	sll	a0,s8,a0
    5970:	8fc9                	or	a5,a5,a0
    5972:	d03e                	sw	a5,32(sp)
    5974:	84a2                	mv	s1,s0
    5976:	bf69                	j	5910 <_svfiprintf_r+0xd2>
    5978:	4772                	lw	a4,28(sp)
    597a:	00470693          	addi	a3,a4,4
    597e:	4318                	lw	a4,0(a4)
    5980:	ce36                	sw	a3,28(sp)
    5982:	02074763          	bltz	a4,59b0 <_svfiprintf_r+0x172>
    5986:	d63a                	sw	a4,44(sp)
    5988:	2018                	lbu	a4,0(s0)
    598a:	02e00793          	li	a5,46
    598e:	04f71d63          	bne	a4,a5,59e8 <_svfiprintf_r+0x1aa>
    5992:	3018                	lbu	a4,1(s0)
    5994:	02a00793          	li	a5,42
    5998:	02f71b63          	bne	a4,a5,59ce <_svfiprintf_r+0x190>
    599c:	47f2                	lw	a5,28(sp)
    599e:	0409                	addi	s0,s0,2
    59a0:	00478713          	addi	a4,a5,4
    59a4:	439c                	lw	a5,0(a5)
    59a6:	ce3a                	sw	a4,28(sp)
    59a8:	0207c163          	bltz	a5,59ca <_svfiprintf_r+0x18c>
    59ac:	d23e                	sw	a5,36(sp)
    59ae:	a82d                	j	59e8 <_svfiprintf_r+0x1aa>
    59b0:	40e00733          	neg	a4,a4
    59b4:	0027e793          	ori	a5,a5,2
    59b8:	d63a                	sw	a4,44(sp)
    59ba:	d03e                	sw	a5,32(sp)
    59bc:	b7f1                	j	5988 <_svfiprintf_r+0x14a>
    59be:	036787b3          	mul	a5,a5,s6
    59c2:	4685                	li	a3,1
    59c4:	842e                	mv	s0,a1
    59c6:	97ba                	add	a5,a5,a4
    59c8:	b761                	j	5950 <_svfiprintf_r+0x112>
    59ca:	57fd                	li	a5,-1
    59cc:	b7c5                	j	59ac <_svfiprintf_r+0x16e>
    59ce:	0405                	addi	s0,s0,1
    59d0:	d202                	sw	zero,36(sp)
    59d2:	4681                	li	a3,0
    59d4:	4781                	li	a5,0
    59d6:	4625                	li	a2,9
    59d8:	2018                	lbu	a4,0(s0)
    59da:	00140593          	addi	a1,s0,1
    59de:	fd070713          	addi	a4,a4,-48
    59e2:	06e67663          	bgeu	a2,a4,5a4e <_svfiprintf_r+0x210>
    59e6:	f2f9                	bnez	a3,59ac <_svfiprintf_r+0x16e>
    59e8:	200c                	lbu	a1,0(s0)
    59ea:	460d                	li	a2,3
    59ec:	00003517          	auipc	a0,0x3
    59f0:	cc450513          	addi	a0,a0,-828 # 86b0 <__sf_fake_stdout+0x28>
    59f4:	0fd000ef          	jal	ra,62f0 <memchr>
    59f8:	cd11                	beqz	a0,5a14 <_svfiprintf_r+0x1d6>
    59fa:	00003797          	auipc	a5,0x3
    59fe:	cb678793          	addi	a5,a5,-842 # 86b0 <__sf_fake_stdout+0x28>
    5a02:	8d1d                	sub	a0,a0,a5
    5a04:	04000793          	li	a5,64
    5a08:	00a797b3          	sll	a5,a5,a0
    5a0c:	5502                	lw	a0,32(sp)
    5a0e:	0405                	addi	s0,s0,1
    5a10:	8d5d                	or	a0,a0,a5
    5a12:	d02a                	sw	a0,32(sp)
    5a14:	200c                	lbu	a1,0(s0)
    5a16:	4619                	li	a2,6
    5a18:	00003517          	auipc	a0,0x3
    5a1c:	c9c50513          	addi	a0,a0,-868 # 86b4 <__sf_fake_stdout+0x2c>
    5a20:	00140493          	addi	s1,s0,1
    5a24:	02b10c23          	sb	a1,56(sp)
    5a28:	0c9000ef          	jal	ra,62f0 <memchr>
    5a2c:	c525                	beqz	a0,5a94 <_svfiprintf_r+0x256>
    5a2e:	ffffa797          	auipc	a5,0xffffa
    5a32:	5d278793          	addi	a5,a5,1490 # 0 <_sinit>
    5a36:	e795                	bnez	a5,5a62 <_svfiprintf_r+0x224>
    5a38:	5702                	lw	a4,32(sp)
    5a3a:	47f2                	lw	a5,28(sp)
    5a3c:	10077713          	andi	a4,a4,256
    5a40:	cf09                	beqz	a4,5a5a <_svfiprintf_r+0x21c>
    5a42:	0791                	addi	a5,a5,4
    5a44:	ce3e                	sw	a5,28(sp)
    5a46:	57d2                	lw	a5,52(sp)
    5a48:	97d2                	add	a5,a5,s4
    5a4a:	da3e                	sw	a5,52(sp)
    5a4c:	b541                	j	58cc <_svfiprintf_r+0x8e>
    5a4e:	036787b3          	mul	a5,a5,s6
    5a52:	4685                	li	a3,1
    5a54:	842e                	mv	s0,a1
    5a56:	97ba                	add	a5,a5,a4
    5a58:	b741                	j	59d8 <_svfiprintf_r+0x19a>
    5a5a:	079d                	addi	a5,a5,7
    5a5c:	9be1                	andi	a5,a5,-8
    5a5e:	07a1                	addi	a5,a5,8
    5a60:	b7d5                	j	5a44 <_svfiprintf_r+0x206>
    5a62:	0878                	addi	a4,sp,28
    5a64:	00000697          	auipc	a3,0x0
    5a68:	cf668693          	addi	a3,a3,-778 # 575a <__ssputs_r>
    5a6c:	864a                	mv	a2,s2
    5a6e:	100c                	addi	a1,sp,32
    5a70:	854e                	mv	a0,s3
    5a72:	00000097          	auipc	ra,0x0
    5a76:	000000e7          	jalr	zero # 0 <_sinit>
    5a7a:	57fd                	li	a5,-1
    5a7c:	8a2a                	mv	s4,a0
    5a7e:	fcf514e3          	bne	a0,a5,5a46 <_svfiprintf_r+0x208>
    5a82:	00c95783          	lhu	a5,12(s2)
    5a86:	557d                	li	a0,-1
    5a88:	0407f793          	andi	a5,a5,64
    5a8c:	de079de3          	bnez	a5,5886 <_svfiprintf_r+0x48>
    5a90:	5552                	lw	a0,52(sp)
    5a92:	bbd5                	j	5886 <_svfiprintf_r+0x48>
    5a94:	0878                	addi	a4,sp,28
    5a96:	00000697          	auipc	a3,0x0
    5a9a:	cc468693          	addi	a3,a3,-828 # 575a <__ssputs_r>
    5a9e:	864a                	mv	a2,s2
    5aa0:	100c                	addi	a1,sp,32
    5aa2:	854e                	mv	a0,s3
    5aa4:	2109                	jal	5ea6 <_printf_i>
    5aa6:	bfd1                	j	5a7a <_svfiprintf_r+0x23c>

00005aa8 <__sfputc_r>:
    5aa8:	461c                	lw	a5,8(a2)
    5aaa:	17fd                	addi	a5,a5,-1
    5aac:	c61c                	sw	a5,8(a2)
    5aae:	0007da63          	bgez	a5,5ac2 <__sfputc_r+0x1a>
    5ab2:	4e18                	lw	a4,24(a2)
    5ab4:	00e7c563          	blt	a5,a4,5abe <__sfputc_r+0x16>
    5ab8:	47a9                	li	a5,10
    5aba:	00f59463          	bne	a1,a5,5ac2 <__sfputc_r+0x1a>
    5abe:	cb6ff06f          	j	4f74 <__swbuf_r>
    5ac2:	421c                	lw	a5,0(a2)
    5ac4:	852e                	mv	a0,a1
    5ac6:	00178713          	addi	a4,a5,1
    5aca:	c218                	sw	a4,0(a2)
    5acc:	a38c                	sb	a1,0(a5)
    5ace:	8082                	ret

00005ad0 <__sfputs_r>:
    5ad0:	1101                	addi	sp,sp,-32
    5ad2:	cc22                	sw	s0,24(sp)
    5ad4:	ca26                	sw	s1,20(sp)
    5ad6:	c84a                	sw	s2,16(sp)
    5ad8:	c64e                	sw	s3,12(sp)
    5ada:	c452                	sw	s4,8(sp)
    5adc:	ce06                	sw	ra,28(sp)
    5ade:	892a                	mv	s2,a0
    5ae0:	89ae                	mv	s3,a1
    5ae2:	8432                	mv	s0,a2
    5ae4:	00d604b3          	add	s1,a2,a3
    5ae8:	5a7d                	li	s4,-1
    5aea:	00941463          	bne	s0,s1,5af2 <__sfputs_r+0x22>
    5aee:	4501                	li	a0,0
    5af0:	a809                	j	5b02 <__sfputs_r+0x32>
    5af2:	200c                	lbu	a1,0(s0)
    5af4:	864e                	mv	a2,s3
    5af6:	854a                	mv	a0,s2
    5af8:	fb1ff0ef          	jal	ra,5aa8 <__sfputc_r>
    5afc:	0405                	addi	s0,s0,1
    5afe:	ff4516e3          	bne	a0,s4,5aea <__sfputs_r+0x1a>
    5b02:	40f2                	lw	ra,28(sp)
    5b04:	4462                	lw	s0,24(sp)
    5b06:	44d2                	lw	s1,20(sp)
    5b08:	4942                	lw	s2,16(sp)
    5b0a:	49b2                	lw	s3,12(sp)
    5b0c:	4a22                	lw	s4,8(sp)
    5b0e:	6105                	addi	sp,sp,32
    5b10:	8082                	ret

00005b12 <_vfiprintf_r>:
    5b12:	7135                	addi	sp,sp,-160
    5b14:	cd22                	sw	s0,152(sp)
    5b16:	cb26                	sw	s1,148(sp)
    5b18:	c94a                	sw	s2,144(sp)
    5b1a:	c74e                	sw	s3,140(sp)
    5b1c:	cf06                	sw	ra,156(sp)
    5b1e:	c552                	sw	s4,136(sp)
    5b20:	c356                	sw	s5,132(sp)
    5b22:	c15a                	sw	s6,128(sp)
    5b24:	dede                	sw	s7,124(sp)
    5b26:	dce2                	sw	s8,120(sp)
    5b28:	dae6                	sw	s9,116(sp)
    5b2a:	89aa                	mv	s3,a0
    5b2c:	84ae                	mv	s1,a1
    5b2e:	8932                	mv	s2,a2
    5b30:	8436                	mv	s0,a3
    5b32:	c509                	beqz	a0,5b3c <_vfiprintf_r+0x2a>
    5b34:	4d1c                	lw	a5,24(a0)
    5b36:	e399                	bnez	a5,5b3c <_vfiprintf_r+0x2a>
    5b38:	841ff0ef          	jal	ra,5378 <__sinit>
    5b3c:	00003797          	auipc	a5,0x3
    5b40:	b2c78793          	addi	a5,a5,-1236 # 8668 <__sf_fake_stdin>
    5b44:	0cf49863          	bne	s1,a5,5c14 <_vfiprintf_r+0x102>
    5b48:	0049a483          	lw	s1,4(s3)
    5b4c:	24de                	lhu	a5,12(s1)
    5b4e:	8ba1                	andi	a5,a5,8
    5b50:	c7e5                	beqz	a5,5c38 <_vfiprintf_r+0x126>
    5b52:	489c                	lw	a5,16(s1)
    5b54:	c3f5                	beqz	a5,5c38 <_vfiprintf_r+0x126>
    5b56:	02000793          	li	a5,32
    5b5a:	02f104a3          	sb	a5,41(sp)
    5b5e:	03000793          	li	a5,48
    5b62:	d202                	sw	zero,36(sp)
    5b64:	02f10523          	sb	a5,42(sp)
    5b68:	c622                	sw	s0,12(sp)
    5b6a:	02500b93          	li	s7,37
    5b6e:	00003a97          	auipc	s5,0x3
    5b72:	b3aa8a93          	addi	s5,s5,-1222 # 86a8 <__sf_fake_stdout+0x20>
    5b76:	4c05                	li	s8,1
    5b78:	4b29                	li	s6,10
    5b7a:	844a                	mv	s0,s2
    5b7c:	201c                	lbu	a5,0(s0)
    5b7e:	c399                	beqz	a5,5b84 <_vfiprintf_r+0x72>
    5b80:	0d779f63          	bne	a5,s7,5c5e <_vfiprintf_r+0x14c>
    5b84:	41240cb3          	sub	s9,s0,s2
    5b88:	000c8e63          	beqz	s9,5ba4 <_vfiprintf_r+0x92>
    5b8c:	86e6                	mv	a3,s9
    5b8e:	864a                	mv	a2,s2
    5b90:	85a6                	mv	a1,s1
    5b92:	854e                	mv	a0,s3
    5b94:	f3dff0ef          	jal	ra,5ad0 <__sfputs_r>
    5b98:	57fd                	li	a5,-1
    5b9a:	1cf50f63          	beq	a0,a5,5d78 <_vfiprintf_r+0x266>
    5b9e:	5692                	lw	a3,36(sp)
    5ba0:	96e6                	add	a3,a3,s9
    5ba2:	d236                	sw	a3,36(sp)
    5ba4:	201c                	lbu	a5,0(s0)
    5ba6:	1c078963          	beqz	a5,5d78 <_vfiprintf_r+0x266>
    5baa:	57fd                	li	a5,-1
    5bac:	00140913          	addi	s2,s0,1
    5bb0:	c802                	sw	zero,16(sp)
    5bb2:	ce02                	sw	zero,28(sp)
    5bb4:	ca3e                	sw	a5,20(sp)
    5bb6:	cc02                	sw	zero,24(sp)
    5bb8:	040109a3          	sb	zero,83(sp)
    5bbc:	d482                	sw	zero,104(sp)
    5bbe:	00094583          	lbu	a1,0(s2)
    5bc2:	4615                	li	a2,5
    5bc4:	8556                	mv	a0,s5
    5bc6:	272d                	jal	62f0 <memchr>
    5bc8:	00190413          	addi	s0,s2,1
    5bcc:	47c2                	lw	a5,16(sp)
    5bce:	e951                	bnez	a0,5c62 <_vfiprintf_r+0x150>
    5bd0:	0107f713          	andi	a4,a5,16
    5bd4:	c709                	beqz	a4,5bde <_vfiprintf_r+0xcc>
    5bd6:	02000713          	li	a4,32
    5bda:	04e109a3          	sb	a4,83(sp)
    5bde:	0087f713          	andi	a4,a5,8
    5be2:	c709                	beqz	a4,5bec <_vfiprintf_r+0xda>
    5be4:	02b00713          	li	a4,43
    5be8:	04e109a3          	sb	a4,83(sp)
    5bec:	00094683          	lbu	a3,0(s2)
    5bf0:	02a00713          	li	a4,42
    5bf4:	06e68f63          	beq	a3,a4,5c72 <_vfiprintf_r+0x160>
    5bf8:	47f2                	lw	a5,28(sp)
    5bfa:	844a                	mv	s0,s2
    5bfc:	4681                	li	a3,0
    5bfe:	4625                	li	a2,9
    5c00:	2018                	lbu	a4,0(s0)
    5c02:	00140593          	addi	a1,s0,1
    5c06:	fd070713          	addi	a4,a4,-48
    5c0a:	0ae67763          	bgeu	a2,a4,5cb8 <_vfiprintf_r+0x1a6>
    5c0e:	cab5                	beqz	a3,5c82 <_vfiprintf_r+0x170>
    5c10:	ce3e                	sw	a5,28(sp)
    5c12:	a885                	j	5c82 <_vfiprintf_r+0x170>
    5c14:	00003797          	auipc	a5,0x3
    5c18:	a7478793          	addi	a5,a5,-1420 # 8688 <__sf_fake_stdout>
    5c1c:	00f49563          	bne	s1,a5,5c26 <_vfiprintf_r+0x114>
    5c20:	0089a483          	lw	s1,8(s3)
    5c24:	b725                	j	5b4c <_vfiprintf_r+0x3a>
    5c26:	00003797          	auipc	a5,0x3
    5c2a:	a2278793          	addi	a5,a5,-1502 # 8648 <__sf_fake_stderr>
    5c2e:	f0f49fe3          	bne	s1,a5,5b4c <_vfiprintf_r+0x3a>
    5c32:	00c9a483          	lw	s1,12(s3)
    5c36:	bf19                	j	5b4c <_vfiprintf_r+0x3a>
    5c38:	85a6                	mv	a1,s1
    5c3a:	854e                	mv	a0,s3
    5c3c:	bf4ff0ef          	jal	ra,5030 <__swsetup_r>
    5c40:	d919                	beqz	a0,5b56 <_vfiprintf_r+0x44>
    5c42:	557d                	li	a0,-1
    5c44:	40fa                	lw	ra,156(sp)
    5c46:	446a                	lw	s0,152(sp)
    5c48:	44da                	lw	s1,148(sp)
    5c4a:	494a                	lw	s2,144(sp)
    5c4c:	49ba                	lw	s3,140(sp)
    5c4e:	4a2a                	lw	s4,136(sp)
    5c50:	4a9a                	lw	s5,132(sp)
    5c52:	4b0a                	lw	s6,128(sp)
    5c54:	5bf6                	lw	s7,124(sp)
    5c56:	5c66                	lw	s8,120(sp)
    5c58:	5cd6                	lw	s9,116(sp)
    5c5a:	610d                	addi	sp,sp,160
    5c5c:	8082                	ret
    5c5e:	0405                	addi	s0,s0,1
    5c60:	bf31                	j	5b7c <_vfiprintf_r+0x6a>
    5c62:	41550533          	sub	a0,a0,s5
    5c66:	00ac1533          	sll	a0,s8,a0
    5c6a:	8fc9                	or	a5,a5,a0
    5c6c:	c83e                	sw	a5,16(sp)
    5c6e:	8922                	mv	s2,s0
    5c70:	b7b9                	j	5bbe <_vfiprintf_r+0xac>
    5c72:	4732                	lw	a4,12(sp)
    5c74:	00470693          	addi	a3,a4,4
    5c78:	4318                	lw	a4,0(a4)
    5c7a:	c636                	sw	a3,12(sp)
    5c7c:	02074763          	bltz	a4,5caa <_vfiprintf_r+0x198>
    5c80:	ce3a                	sw	a4,28(sp)
    5c82:	2018                	lbu	a4,0(s0)
    5c84:	02e00793          	li	a5,46
    5c88:	04f71d63          	bne	a4,a5,5ce2 <_vfiprintf_r+0x1d0>
    5c8c:	3018                	lbu	a4,1(s0)
    5c8e:	02a00793          	li	a5,42
    5c92:	02f71b63          	bne	a4,a5,5cc8 <_vfiprintf_r+0x1b6>
    5c96:	47b2                	lw	a5,12(sp)
    5c98:	0409                	addi	s0,s0,2
    5c9a:	00478713          	addi	a4,a5,4
    5c9e:	439c                	lw	a5,0(a5)
    5ca0:	c63a                	sw	a4,12(sp)
    5ca2:	0207c163          	bltz	a5,5cc4 <_vfiprintf_r+0x1b2>
    5ca6:	ca3e                	sw	a5,20(sp)
    5ca8:	a82d                	j	5ce2 <_vfiprintf_r+0x1d0>
    5caa:	40e00733          	neg	a4,a4
    5cae:	0027e793          	ori	a5,a5,2
    5cb2:	ce3a                	sw	a4,28(sp)
    5cb4:	c83e                	sw	a5,16(sp)
    5cb6:	b7f1                	j	5c82 <_vfiprintf_r+0x170>
    5cb8:	036787b3          	mul	a5,a5,s6
    5cbc:	4685                	li	a3,1
    5cbe:	842e                	mv	s0,a1
    5cc0:	97ba                	add	a5,a5,a4
    5cc2:	bf3d                	j	5c00 <_vfiprintf_r+0xee>
    5cc4:	57fd                	li	a5,-1
    5cc6:	b7c5                	j	5ca6 <_vfiprintf_r+0x194>
    5cc8:	0405                	addi	s0,s0,1
    5cca:	ca02                	sw	zero,20(sp)
    5ccc:	4681                	li	a3,0
    5cce:	4781                	li	a5,0
    5cd0:	4625                	li	a2,9
    5cd2:	2018                	lbu	a4,0(s0)
    5cd4:	00140593          	addi	a1,s0,1
    5cd8:	fd070713          	addi	a4,a4,-48
    5cdc:	06e67463          	bgeu	a2,a4,5d44 <_vfiprintf_r+0x232>
    5ce0:	f2f9                	bnez	a3,5ca6 <_vfiprintf_r+0x194>
    5ce2:	200c                	lbu	a1,0(s0)
    5ce4:	460d                	li	a2,3
    5ce6:	00003517          	auipc	a0,0x3
    5cea:	9ca50513          	addi	a0,a0,-1590 # 86b0 <__sf_fake_stdout+0x28>
    5cee:	2509                	jal	62f0 <memchr>
    5cf0:	cd11                	beqz	a0,5d0c <_vfiprintf_r+0x1fa>
    5cf2:	00003797          	auipc	a5,0x3
    5cf6:	9be78793          	addi	a5,a5,-1602 # 86b0 <__sf_fake_stdout+0x28>
    5cfa:	8d1d                	sub	a0,a0,a5
    5cfc:	04000793          	li	a5,64
    5d00:	00a797b3          	sll	a5,a5,a0
    5d04:	4542                	lw	a0,16(sp)
    5d06:	0405                	addi	s0,s0,1
    5d08:	8d5d                	or	a0,a0,a5
    5d0a:	c82a                	sw	a0,16(sp)
    5d0c:	200c                	lbu	a1,0(s0)
    5d0e:	4619                	li	a2,6
    5d10:	00003517          	auipc	a0,0x3
    5d14:	9a450513          	addi	a0,a0,-1628 # 86b4 <__sf_fake_stdout+0x2c>
    5d18:	00140913          	addi	s2,s0,1
    5d1c:	02b10423          	sb	a1,40(sp)
    5d20:	2bc1                	jal	62f0 <memchr>
    5d22:	c135                	beqz	a0,5d86 <_vfiprintf_r+0x274>
    5d24:	ffffa797          	auipc	a5,0xffffa
    5d28:	2dc78793          	addi	a5,a5,732 # 0 <_sinit>
    5d2c:	e795                	bnez	a5,5d58 <_vfiprintf_r+0x246>
    5d2e:	4742                	lw	a4,16(sp)
    5d30:	47b2                	lw	a5,12(sp)
    5d32:	10077713          	andi	a4,a4,256
    5d36:	cf09                	beqz	a4,5d50 <_vfiprintf_r+0x23e>
    5d38:	0791                	addi	a5,a5,4
    5d3a:	c63e                	sw	a5,12(sp)
    5d3c:	5792                	lw	a5,36(sp)
    5d3e:	97d2                	add	a5,a5,s4
    5d40:	d23e                	sw	a5,36(sp)
    5d42:	bd25                	j	5b7a <_vfiprintf_r+0x68>
    5d44:	036787b3          	mul	a5,a5,s6
    5d48:	4685                	li	a3,1
    5d4a:	842e                	mv	s0,a1
    5d4c:	97ba                	add	a5,a5,a4
    5d4e:	b751                	j	5cd2 <_vfiprintf_r+0x1c0>
    5d50:	079d                	addi	a5,a5,7
    5d52:	9be1                	andi	a5,a5,-8
    5d54:	07a1                	addi	a5,a5,8
    5d56:	b7d5                	j	5d3a <_vfiprintf_r+0x228>
    5d58:	0078                	addi	a4,sp,12
    5d5a:	00000697          	auipc	a3,0x0
    5d5e:	d7668693          	addi	a3,a3,-650 # 5ad0 <__sfputs_r>
    5d62:	8626                	mv	a2,s1
    5d64:	080c                	addi	a1,sp,16
    5d66:	854e                	mv	a0,s3
    5d68:	00000097          	auipc	ra,0x0
    5d6c:	000000e7          	jalr	zero # 0 <_sinit>
    5d70:	57fd                	li	a5,-1
    5d72:	8a2a                	mv	s4,a0
    5d74:	fcf514e3          	bne	a0,a5,5d3c <_vfiprintf_r+0x22a>
    5d78:	24de                	lhu	a5,12(s1)
    5d7a:	0407f793          	andi	a5,a5,64
    5d7e:	ec0792e3          	bnez	a5,5c42 <_vfiprintf_r+0x130>
    5d82:	5512                	lw	a0,36(sp)
    5d84:	b5c1                	j	5c44 <_vfiprintf_r+0x132>
    5d86:	0078                	addi	a4,sp,12
    5d88:	00000697          	auipc	a3,0x0
    5d8c:	d4868693          	addi	a3,a3,-696 # 5ad0 <__sfputs_r>
    5d90:	8626                	mv	a2,s1
    5d92:	080c                	addi	a1,sp,16
    5d94:	854e                	mv	a0,s3
    5d96:	2a01                	jal	5ea6 <_printf_i>
    5d98:	bfe1                	j	5d70 <_vfiprintf_r+0x25e>

00005d9a <_printf_common>:
    5d9a:	7179                	addi	sp,sp,-48
    5d9c:	ca56                	sw	s5,20(sp)
    5d9e:	499c                	lw	a5,16(a1)
    5da0:	8aba                	mv	s5,a4
    5da2:	4598                	lw	a4,8(a1)
    5da4:	d422                	sw	s0,40(sp)
    5da6:	d226                	sw	s1,36(sp)
    5da8:	ce4e                	sw	s3,28(sp)
    5daa:	cc52                	sw	s4,24(sp)
    5dac:	d606                	sw	ra,44(sp)
    5dae:	d04a                	sw	s2,32(sp)
    5db0:	c85a                	sw	s6,16(sp)
    5db2:	c65e                	sw	s7,12(sp)
    5db4:	89aa                	mv	s3,a0
    5db6:	842e                	mv	s0,a1
    5db8:	84b2                	mv	s1,a2
    5dba:	8a36                	mv	s4,a3
    5dbc:	00e7d363          	bge	a5,a4,5dc2 <_printf_common+0x28>
    5dc0:	87ba                	mv	a5,a4
    5dc2:	c09c                	sw	a5,0(s1)
    5dc4:	04344703          	lbu	a4,67(s0)
    5dc8:	c319                	beqz	a4,5dce <_printf_common+0x34>
    5dca:	0785                	addi	a5,a5,1
    5dcc:	c09c                	sw	a5,0(s1)
    5dce:	401c                	lw	a5,0(s0)
    5dd0:	0207f793          	andi	a5,a5,32
    5dd4:	c781                	beqz	a5,5ddc <_printf_common+0x42>
    5dd6:	409c                	lw	a5,0(s1)
    5dd8:	0789                	addi	a5,a5,2
    5dda:	c09c                	sw	a5,0(s1)
    5ddc:	00042903          	lw	s2,0(s0)
    5de0:	00697913          	andi	s2,s2,6
    5de4:	00091a63          	bnez	s2,5df8 <_printf_common+0x5e>
    5de8:	01940b13          	addi	s6,s0,25
    5dec:	5bfd                	li	s7,-1
    5dee:	445c                	lw	a5,12(s0)
    5df0:	4098                	lw	a4,0(s1)
    5df2:	8f99                	sub	a5,a5,a4
    5df4:	04f94c63          	blt	s2,a5,5e4c <_printf_common+0xb2>
    5df8:	401c                	lw	a5,0(s0)
    5dfa:	04344683          	lbu	a3,67(s0)
    5dfe:	0207f793          	andi	a5,a5,32
    5e02:	00d036b3          	snez	a3,a3
    5e06:	eba5                	bnez	a5,5e76 <_printf_common+0xdc>
    5e08:	04340613          	addi	a2,s0,67
    5e0c:	85d2                	mv	a1,s4
    5e0e:	854e                	mv	a0,s3
    5e10:	9a82                	jalr	s5
    5e12:	57fd                	li	a5,-1
    5e14:	04f50363          	beq	a0,a5,5e5a <_printf_common+0xc0>
    5e18:	401c                	lw	a5,0(s0)
    5e1a:	4611                	li	a2,4
    5e1c:	4098                	lw	a4,0(s1)
    5e1e:	8b99                	andi	a5,a5,6
    5e20:	4454                	lw	a3,12(s0)
    5e22:	4481                	li	s1,0
    5e24:	00c79763          	bne	a5,a2,5e32 <_printf_common+0x98>
    5e28:	40e684b3          	sub	s1,a3,a4
    5e2c:	0004d363          	bgez	s1,5e32 <_printf_common+0x98>
    5e30:	4481                	li	s1,0
    5e32:	441c                	lw	a5,8(s0)
    5e34:	4818                	lw	a4,16(s0)
    5e36:	00f75463          	bge	a4,a5,5e3e <_printf_common+0xa4>
    5e3a:	8f99                	sub	a5,a5,a4
    5e3c:	94be                	add	s1,s1,a5
    5e3e:	4901                	li	s2,0
    5e40:	0469                	addi	s0,s0,26
    5e42:	5b7d                	li	s6,-1
    5e44:	05249863          	bne	s1,s2,5e94 <_printf_common+0xfa>
    5e48:	4501                	li	a0,0
    5e4a:	a809                	j	5e5c <_printf_common+0xc2>
    5e4c:	4685                	li	a3,1
    5e4e:	865a                	mv	a2,s6
    5e50:	85d2                	mv	a1,s4
    5e52:	854e                	mv	a0,s3
    5e54:	9a82                	jalr	s5
    5e56:	01751e63          	bne	a0,s7,5e72 <_printf_common+0xd8>
    5e5a:	557d                	li	a0,-1
    5e5c:	50b2                	lw	ra,44(sp)
    5e5e:	5422                	lw	s0,40(sp)
    5e60:	5492                	lw	s1,36(sp)
    5e62:	5902                	lw	s2,32(sp)
    5e64:	49f2                	lw	s3,28(sp)
    5e66:	4a62                	lw	s4,24(sp)
    5e68:	4ad2                	lw	s5,20(sp)
    5e6a:	4b42                	lw	s6,16(sp)
    5e6c:	4bb2                	lw	s7,12(sp)
    5e6e:	6145                	addi	sp,sp,48
    5e70:	8082                	ret
    5e72:	0905                	addi	s2,s2,1
    5e74:	bfad                	j	5dee <_printf_common+0x54>
    5e76:	00d40733          	add	a4,s0,a3
    5e7a:	03000613          	li	a2,48
    5e7e:	04c701a3          	sb	a2,67(a4)
    5e82:	04544703          	lbu	a4,69(s0)
    5e86:	00168793          	addi	a5,a3,1
    5e8a:	97a2                	add	a5,a5,s0
    5e8c:	0689                	addi	a3,a3,2
    5e8e:	04e781a3          	sb	a4,67(a5)
    5e92:	bf9d                	j	5e08 <_printf_common+0x6e>
    5e94:	4685                	li	a3,1
    5e96:	8622                	mv	a2,s0
    5e98:	85d2                	mv	a1,s4
    5e9a:	854e                	mv	a0,s3
    5e9c:	9a82                	jalr	s5
    5e9e:	fb650ee3          	beq	a0,s6,5e5a <_printf_common+0xc0>
    5ea2:	0905                	addi	s2,s2,1
    5ea4:	b745                	j	5e44 <_printf_common+0xaa>

00005ea6 <_printf_i>:
    5ea6:	7179                	addi	sp,sp,-48
    5ea8:	d422                	sw	s0,40(sp)
    5eaa:	d226                	sw	s1,36(sp)
    5eac:	d04a                	sw	s2,32(sp)
    5eae:	ce4e                	sw	s3,28(sp)
    5eb0:	d606                	sw	ra,44(sp)
    5eb2:	cc52                	sw	s4,24(sp)
    5eb4:	ca56                	sw	s5,20(sp)
    5eb6:	c85a                	sw	s6,16(sp)
    5eb8:	89b6                	mv	s3,a3
    5eba:	2d94                	lbu	a3,24(a1)
    5ebc:	06900793          	li	a5,105
    5ec0:	8932                	mv	s2,a2
    5ec2:	84aa                	mv	s1,a0
    5ec4:	842e                	mv	s0,a1
    5ec6:	04358613          	addi	a2,a1,67
    5eca:	02f68d63          	beq	a3,a5,5f04 <_printf_i+0x5e>
    5ece:	06d7e263          	bltu	a5,a3,5f32 <_printf_i+0x8c>
    5ed2:	05800793          	li	a5,88
    5ed6:	18f68663          	beq	a3,a5,6062 <_printf_i+0x1bc>
    5eda:	00d7ed63          	bltu	a5,a3,5ef4 <_printf_i+0x4e>
    5ede:	20068e63          	beqz	a3,60fa <_printf_i+0x254>
    5ee2:	04300793          	li	a5,67
    5ee6:	0af68e63          	beq	a3,a5,5fa2 <_printf_i+0xfc>
    5eea:	04240a93          	addi	s5,s0,66
    5eee:	04d40123          	sb	a3,66(s0)
    5ef2:	a0c9                	j	5fb4 <_printf_i+0x10e>
    5ef4:	06300793          	li	a5,99
    5ef8:	0af68563          	beq	a3,a5,5fa2 <_printf_i+0xfc>
    5efc:	06400793          	li	a5,100
    5f00:	fef695e3          	bne	a3,a5,5eea <_printf_i+0x44>
    5f04:	401c                	lw	a5,0(s0)
    5f06:	4308                	lw	a0,0(a4)
    5f08:	0807f693          	andi	a3,a5,128
    5f0c:	00450593          	addi	a1,a0,4
    5f10:	c6c5                	beqz	a3,5fb8 <_printf_i+0x112>
    5f12:	411c                	lw	a5,0(a0)
    5f14:	c30c                	sw	a1,0(a4)
    5f16:	0007d863          	bgez	a5,5f26 <_printf_i+0x80>
    5f1a:	02d00713          	li	a4,45
    5f1e:	40f007b3          	neg	a5,a5
    5f22:	04e401a3          	sb	a4,67(s0)
    5f26:	00002697          	auipc	a3,0x2
    5f2a:	79668693          	addi	a3,a3,1942 # 86bc <__sf_fake_stdout+0x34>
    5f2e:	4729                	li	a4,10
    5f30:	a865                	j	5fe8 <_printf_i+0x142>
    5f32:	07000793          	li	a5,112
    5f36:	16f68263          	beq	a3,a5,609a <_printf_i+0x1f4>
    5f3a:	02d7e563          	bltu	a5,a3,5f64 <_printf_i+0xbe>
    5f3e:	06e00793          	li	a5,110
    5f42:	18f68963          	beq	a3,a5,60d4 <_printf_i+0x22e>
    5f46:	06f00793          	li	a5,111
    5f4a:	faf690e3          	bne	a3,a5,5eea <_printf_i+0x44>
    5f4e:	400c                	lw	a1,0(s0)
    5f50:	431c                	lw	a5,0(a4)
    5f52:	0805f813          	andi	a6,a1,128
    5f56:	00478513          	addi	a0,a5,4
    5f5a:	06080763          	beqz	a6,5fc8 <_printf_i+0x122>
    5f5e:	c308                	sw	a0,0(a4)
    5f60:	439c                	lw	a5,0(a5)
    5f62:	a885                	j	5fd2 <_printf_i+0x12c>
    5f64:	07500793          	li	a5,117
    5f68:	fef683e3          	beq	a3,a5,5f4e <_printf_i+0xa8>
    5f6c:	07800793          	li	a5,120
    5f70:	12f68963          	beq	a3,a5,60a2 <_printf_i+0x1fc>
    5f74:	07300793          	li	a5,115
    5f78:	f6f699e3          	bne	a3,a5,5eea <_printf_i+0x44>
    5f7c:	431c                	lw	a5,0(a4)
    5f7e:	41d0                	lw	a2,4(a1)
    5f80:	4581                	li	a1,0
    5f82:	00478693          	addi	a3,a5,4
    5f86:	c314                	sw	a3,0(a4)
    5f88:	0007aa83          	lw	s5,0(a5)
    5f8c:	8556                	mv	a0,s5
    5f8e:	268d                	jal	62f0 <memchr>
    5f90:	c501                	beqz	a0,5f98 <_printf_i+0xf2>
    5f92:	41550533          	sub	a0,a0,s5
    5f96:	c048                	sw	a0,4(s0)
    5f98:	405c                	lw	a5,4(s0)
    5f9a:	c81c                	sw	a5,16(s0)
    5f9c:	040401a3          	sb	zero,67(s0)
    5fa0:	a861                	j	6038 <_printf_i+0x192>
    5fa2:	431c                	lw	a5,0(a4)
    5fa4:	04240a93          	addi	s5,s0,66
    5fa8:	00478693          	addi	a3,a5,4
    5fac:	439c                	lw	a5,0(a5)
    5fae:	c314                	sw	a3,0(a4)
    5fb0:	04f40123          	sb	a5,66(s0)
    5fb4:	4785                	li	a5,1
    5fb6:	b7d5                	j	5f9a <_printf_i+0xf4>
    5fb8:	0407f693          	andi	a3,a5,64
    5fbc:	411c                	lw	a5,0(a0)
    5fbe:	c30c                	sw	a1,0(a4)
    5fc0:	dab9                	beqz	a3,5f16 <_printf_i+0x70>
    5fc2:	07c2                	slli	a5,a5,0x10
    5fc4:	87c1                	srai	a5,a5,0x10
    5fc6:	bf81                	j	5f16 <_printf_i+0x70>
    5fc8:	0405f593          	andi	a1,a1,64
    5fcc:	c308                	sw	a0,0(a4)
    5fce:	d9c9                	beqz	a1,5f60 <_printf_i+0xba>
    5fd0:	239e                	lhu	a5,0(a5)
    5fd2:	06f00713          	li	a4,111
    5fd6:	0ee68763          	beq	a3,a4,60c4 <_printf_i+0x21e>
    5fda:	00002697          	auipc	a3,0x2
    5fde:	6e268693          	addi	a3,a3,1762 # 86bc <__sf_fake_stdout+0x34>
    5fe2:	4729                	li	a4,10
    5fe4:	040401a3          	sb	zero,67(s0)
    5fe8:	404c                	lw	a1,4(s0)
    5fea:	c40c                	sw	a1,8(s0)
    5fec:	0005c563          	bltz	a1,5ff6 <_printf_i+0x150>
    5ff0:	4008                	lw	a0,0(s0)
    5ff2:	996d                	andi	a0,a0,-5
    5ff4:	c008                	sw	a0,0(s0)
    5ff6:	e399                	bnez	a5,5ffc <_printf_i+0x156>
    5ff8:	8ab2                	mv	s5,a2
    5ffa:	cd89                	beqz	a1,6014 <_printf_i+0x16e>
    5ffc:	8ab2                	mv	s5,a2
    5ffe:	02e7f5b3          	remu	a1,a5,a4
    6002:	1afd                	addi	s5,s5,-1
    6004:	95b6                	add	a1,a1,a3
    6006:	218c                	lbu	a1,0(a1)
    6008:	00ba8023          	sb	a1,0(s5)
    600c:	02e7d5b3          	divu	a1,a5,a4
    6010:	0ce7f063          	bgeu	a5,a4,60d0 <_printf_i+0x22a>
    6014:	47a1                	li	a5,8
    6016:	00f71e63          	bne	a4,a5,6032 <_printf_i+0x18c>
    601a:	401c                	lw	a5,0(s0)
    601c:	8b85                	andi	a5,a5,1
    601e:	cb91                	beqz	a5,6032 <_printf_i+0x18c>
    6020:	4058                	lw	a4,4(s0)
    6022:	481c                	lw	a5,16(s0)
    6024:	00e7c763          	blt	a5,a4,6032 <_printf_i+0x18c>
    6028:	03000793          	li	a5,48
    602c:	fefa8fa3          	sb	a5,-1(s5)
    6030:	1afd                	addi	s5,s5,-1
    6032:	41560633          	sub	a2,a2,s5
    6036:	c810                	sw	a2,16(s0)
    6038:	874e                	mv	a4,s3
    603a:	86ca                	mv	a3,s2
    603c:	0070                	addi	a2,sp,12
    603e:	85a2                	mv	a1,s0
    6040:	8526                	mv	a0,s1
    6042:	d59ff0ef          	jal	ra,5d9a <_printf_common>
    6046:	5a7d                	li	s4,-1
    6048:	0b451d63          	bne	a0,s4,6102 <_printf_i+0x25c>
    604c:	557d                	li	a0,-1
    604e:	50b2                	lw	ra,44(sp)
    6050:	5422                	lw	s0,40(sp)
    6052:	5492                	lw	s1,36(sp)
    6054:	5902                	lw	s2,32(sp)
    6056:	49f2                	lw	s3,28(sp)
    6058:	4a62                	lw	s4,24(sp)
    605a:	4ad2                	lw	s5,20(sp)
    605c:	4b42                	lw	s6,16(sp)
    605e:	6145                	addi	sp,sp,48
    6060:	8082                	ret
    6062:	04d582a3          	sb	a3,69(a1)
    6066:	00002697          	auipc	a3,0x2
    606a:	65668693          	addi	a3,a3,1622 # 86bc <__sf_fake_stdout+0x34>
    606e:	400c                	lw	a1,0(s0)
    6070:	4308                	lw	a0,0(a4)
    6072:	0805f813          	andi	a6,a1,128
    6076:	411c                	lw	a5,0(a0)
    6078:	0511                	addi	a0,a0,4
    607a:	02080d63          	beqz	a6,60b4 <_printf_i+0x20e>
    607e:	c308                	sw	a0,0(a4)
    6080:	0015f713          	andi	a4,a1,1
    6084:	c701                	beqz	a4,608c <_printf_i+0x1e6>
    6086:	0205e593          	ori	a1,a1,32
    608a:	c00c                	sw	a1,0(s0)
    608c:	4741                	li	a4,16
    608e:	fbb9                	bnez	a5,5fe4 <_printf_i+0x13e>
    6090:	400c                	lw	a1,0(s0)
    6092:	fdf5f593          	andi	a1,a1,-33
    6096:	c00c                	sw	a1,0(s0)
    6098:	b7b1                	j	5fe4 <_printf_i+0x13e>
    609a:	419c                	lw	a5,0(a1)
    609c:	0207e793          	ori	a5,a5,32
    60a0:	c19c                	sw	a5,0(a1)
    60a2:	07800793          	li	a5,120
    60a6:	04f402a3          	sb	a5,69(s0)
    60aa:	00002697          	auipc	a3,0x2
    60ae:	62668693          	addi	a3,a3,1574 # 86d0 <__sf_fake_stdout+0x48>
    60b2:	bf75                	j	606e <_printf_i+0x1c8>
    60b4:	0405f813          	andi	a6,a1,64
    60b8:	c308                	sw	a0,0(a4)
    60ba:	fc0803e3          	beqz	a6,6080 <_printf_i+0x1da>
    60be:	07c2                	slli	a5,a5,0x10
    60c0:	83c1                	srli	a5,a5,0x10
    60c2:	bf7d                	j	6080 <_printf_i+0x1da>
    60c4:	00002697          	auipc	a3,0x2
    60c8:	5f868693          	addi	a3,a3,1528 # 86bc <__sf_fake_stdout+0x34>
    60cc:	4721                	li	a4,8
    60ce:	bf19                	j	5fe4 <_printf_i+0x13e>
    60d0:	87ae                	mv	a5,a1
    60d2:	b735                	j	5ffe <_printf_i+0x158>
    60d4:	4194                	lw	a3,0(a1)
    60d6:	431c                	lw	a5,0(a4)
    60d8:	49cc                	lw	a1,20(a1)
    60da:	0806f813          	andi	a6,a3,128
    60de:	00478513          	addi	a0,a5,4
    60e2:	00080663          	beqz	a6,60ee <_printf_i+0x248>
    60e6:	c308                	sw	a0,0(a4)
    60e8:	439c                	lw	a5,0(a5)
    60ea:	c38c                	sw	a1,0(a5)
    60ec:	a039                	j	60fa <_printf_i+0x254>
    60ee:	c308                	sw	a0,0(a4)
    60f0:	0406f693          	andi	a3,a3,64
    60f4:	439c                	lw	a5,0(a5)
    60f6:	daf5                	beqz	a3,60ea <_printf_i+0x244>
    60f8:	a38e                	sh	a1,0(a5)
    60fa:	00042823          	sw	zero,16(s0)
    60fe:	8ab2                	mv	s5,a2
    6100:	bf25                	j	6038 <_printf_i+0x192>
    6102:	4814                	lw	a3,16(s0)
    6104:	8656                	mv	a2,s5
    6106:	85ca                	mv	a1,s2
    6108:	8526                	mv	a0,s1
    610a:	9982                	jalr	s3
    610c:	f54500e3          	beq	a0,s4,604c <_printf_i+0x1a6>
    6110:	401c                	lw	a5,0(s0)
    6112:	8b89                	andi	a5,a5,2
    6114:	e78d                	bnez	a5,613e <_printf_i+0x298>
    6116:	47b2                	lw	a5,12(sp)
    6118:	4448                	lw	a0,12(s0)
    611a:	f2f55ae3          	bge	a0,a5,604e <_printf_i+0x1a8>
    611e:	853e                	mv	a0,a5
    6120:	b73d                	j	604e <_printf_i+0x1a8>
    6122:	4685                	li	a3,1
    6124:	8656                	mv	a2,s5
    6126:	85ca                	mv	a1,s2
    6128:	8526                	mv	a0,s1
    612a:	9982                	jalr	s3
    612c:	f36500e3          	beq	a0,s6,604c <_printf_i+0x1a6>
    6130:	0a05                	addi	s4,s4,1
    6132:	445c                	lw	a5,12(s0)
    6134:	4732                	lw	a4,12(sp)
    6136:	8f99                	sub	a5,a5,a4
    6138:	fefa45e3          	blt	s4,a5,6122 <_printf_i+0x27c>
    613c:	bfe9                	j	6116 <_printf_i+0x270>
    613e:	4a01                	li	s4,0
    6140:	01940a93          	addi	s5,s0,25
    6144:	5b7d                	li	s6,-1
    6146:	b7f5                	j	6132 <_printf_i+0x28c>

00006148 <_sbrk_r>:
    6148:	1141                	addi	sp,sp,-16
    614a:	c422                	sw	s0,8(sp)
    614c:	842a                	mv	s0,a0
    614e:	852e                	mv	a0,a1
    6150:	b001a023          	sw	zero,-1280(gp) # 200003a8 <errno>
    6154:	c606                	sw	ra,12(sp)
    6156:	ba7fb0ef          	jal	ra,1cfc <_sbrk>
    615a:	57fd                	li	a5,-1
    615c:	00f51763          	bne	a0,a5,616a <_sbrk_r+0x22>
    6160:	b0018793          	addi	a5,gp,-1280 # 200003a8 <errno>
    6164:	439c                	lw	a5,0(a5)
    6166:	c391                	beqz	a5,616a <_sbrk_r+0x22>
    6168:	c01c                	sw	a5,0(s0)
    616a:	40b2                	lw	ra,12(sp)
    616c:	4422                	lw	s0,8(sp)
    616e:	0141                	addi	sp,sp,16
    6170:	8082                	ret

00006172 <__sread>:
    6172:	1141                	addi	sp,sp,-16
    6174:	c422                	sw	s0,8(sp)
    6176:	842e                	mv	s0,a1
    6178:	00e59583          	lh	a1,14(a1)
    617c:	c606                	sw	ra,12(sp)
    617e:	2435                	jal	63aa <_read_r>
    6180:	00054963          	bltz	a0,6192 <__sread+0x20>
    6184:	487c                	lw	a5,84(s0)
    6186:	97aa                	add	a5,a5,a0
    6188:	c87c                	sw	a5,84(s0)
    618a:	40b2                	lw	ra,12(sp)
    618c:	4422                	lw	s0,8(sp)
    618e:	0141                	addi	sp,sp,16
    6190:	8082                	ret
    6192:	245e                	lhu	a5,12(s0)
    6194:	777d                	lui	a4,0xfffff
    6196:	177d                	addi	a4,a4,-1
    6198:	8ff9                	and	a5,a5,a4
    619a:	a45e                	sh	a5,12(s0)
    619c:	b7fd                	j	618a <__sread+0x18>

0000619e <__swrite>:
    619e:	25de                	lhu	a5,12(a1)
    61a0:	1101                	addi	sp,sp,-32
    61a2:	cc22                	sw	s0,24(sp)
    61a4:	ca26                	sw	s1,20(sp)
    61a6:	c84a                	sw	s2,16(sp)
    61a8:	c64e                	sw	s3,12(sp)
    61aa:	ce06                	sw	ra,28(sp)
    61ac:	1007f793          	andi	a5,a5,256
    61b0:	84aa                	mv	s1,a0
    61b2:	842e                	mv	s0,a1
    61b4:	8932                	mv	s2,a2
    61b6:	89b6                	mv	s3,a3
    61b8:	c791                	beqz	a5,61c4 <__swrite+0x26>
    61ba:	00e59583          	lh	a1,14(a1)
    61be:	4689                	li	a3,2
    61c0:	4601                	li	a2,0
    61c2:	2209                	jal	62c4 <_lseek_r>
    61c4:	245e                	lhu	a5,12(s0)
    61c6:	777d                	lui	a4,0xfffff
    61c8:	177d                	addi	a4,a4,-1
    61ca:	8ff9                	and	a5,a5,a4
    61cc:	a45e                	sh	a5,12(s0)
    61ce:	00e41583          	lh	a1,14(s0)
    61d2:	4462                	lw	s0,24(sp)
    61d4:	40f2                	lw	ra,28(sp)
    61d6:	86ce                	mv	a3,s3
    61d8:	864a                	mv	a2,s2
    61da:	49b2                	lw	s3,12(sp)
    61dc:	4942                	lw	s2,16(sp)
    61de:	8526                	mv	a0,s1
    61e0:	44d2                	lw	s1,20(sp)
    61e2:	6105                	addi	sp,sp,32
    61e4:	a825                	j	621c <_write_r>

000061e6 <__sseek>:
    61e6:	1141                	addi	sp,sp,-16
    61e8:	c422                	sw	s0,8(sp)
    61ea:	842e                	mv	s0,a1
    61ec:	00e59583          	lh	a1,14(a1)
    61f0:	c606                	sw	ra,12(sp)
    61f2:	28c9                	jal	62c4 <_lseek_r>
    61f4:	57fd                	li	a5,-1
    61f6:	245a                	lhu	a4,12(s0)
    61f8:	00f51a63          	bne	a0,a5,620c <__sseek+0x26>
    61fc:	77fd                	lui	a5,0xfffff
    61fe:	17fd                	addi	a5,a5,-1
    6200:	8ff9                	and	a5,a5,a4
    6202:	a45e                	sh	a5,12(s0)
    6204:	40b2                	lw	ra,12(sp)
    6206:	4422                	lw	s0,8(sp)
    6208:	0141                	addi	sp,sp,16
    620a:	8082                	ret
    620c:	6785                	lui	a5,0x1
    620e:	8fd9                	or	a5,a5,a4
    6210:	a45e                	sh	a5,12(s0)
    6212:	c868                	sw	a0,84(s0)
    6214:	bfc5                	j	6204 <__sseek+0x1e>

00006216 <__sclose>:
    6216:	00e59583          	lh	a1,14(a1)
    621a:	a805                	j	624a <_close_r>

0000621c <_write_r>:
    621c:	1141                	addi	sp,sp,-16
    621e:	c422                	sw	s0,8(sp)
    6220:	842a                	mv	s0,a0
    6222:	852e                	mv	a0,a1
    6224:	85b2                	mv	a1,a2
    6226:	8636                	mv	a2,a3
    6228:	b001a023          	sw	zero,-1280(gp) # 200003a8 <errno>
    622c:	c606                	sw	ra,12(sp)
    622e:	a91fb0ef          	jal	ra,1cbe <_write>
    6232:	57fd                	li	a5,-1
    6234:	00f51763          	bne	a0,a5,6242 <_write_r+0x26>
    6238:	b0018793          	addi	a5,gp,-1280 # 200003a8 <errno>
    623c:	439c                	lw	a5,0(a5)
    623e:	c391                	beqz	a5,6242 <_write_r+0x26>
    6240:	c01c                	sw	a5,0(s0)
    6242:	40b2                	lw	ra,12(sp)
    6244:	4422                	lw	s0,8(sp)
    6246:	0141                	addi	sp,sp,16
    6248:	8082                	ret

0000624a <_close_r>:
    624a:	1141                	addi	sp,sp,-16
    624c:	c422                	sw	s0,8(sp)
    624e:	842a                	mv	s0,a0
    6250:	852e                	mv	a0,a1
    6252:	b001a023          	sw	zero,-1280(gp) # 200003a8 <errno>
    6256:	c606                	sw	ra,12(sp)
    6258:	2a49                	jal	63ea <_close>
    625a:	57fd                	li	a5,-1
    625c:	00f51763          	bne	a0,a5,626a <_close_r+0x20>
    6260:	b0018793          	addi	a5,gp,-1280 # 200003a8 <errno>
    6264:	439c                	lw	a5,0(a5)
    6266:	c391                	beqz	a5,626a <_close_r+0x20>
    6268:	c01c                	sw	a5,0(s0)
    626a:	40b2                	lw	ra,12(sp)
    626c:	4422                	lw	s0,8(sp)
    626e:	0141                	addi	sp,sp,16
    6270:	8082                	ret

00006272 <_fstat_r>:
    6272:	1141                	addi	sp,sp,-16
    6274:	c422                	sw	s0,8(sp)
    6276:	842a                	mv	s0,a0
    6278:	852e                	mv	a0,a1
    627a:	85b2                	mv	a1,a2
    627c:	b001a023          	sw	zero,-1280(gp) # 200003a8 <errno>
    6280:	c606                	sw	ra,12(sp)
    6282:	2a95                	jal	63f6 <_fstat>
    6284:	57fd                	li	a5,-1
    6286:	00f51763          	bne	a0,a5,6294 <_fstat_r+0x22>
    628a:	b0018793          	addi	a5,gp,-1280 # 200003a8 <errno>
    628e:	439c                	lw	a5,0(a5)
    6290:	c391                	beqz	a5,6294 <_fstat_r+0x22>
    6292:	c01c                	sw	a5,0(s0)
    6294:	40b2                	lw	ra,12(sp)
    6296:	4422                	lw	s0,8(sp)
    6298:	0141                	addi	sp,sp,16
    629a:	8082                	ret

0000629c <_isatty_r>:
    629c:	1141                	addi	sp,sp,-16
    629e:	c422                	sw	s0,8(sp)
    62a0:	842a                	mv	s0,a0
    62a2:	852e                	mv	a0,a1
    62a4:	b001a023          	sw	zero,-1280(gp) # 200003a8 <errno>
    62a8:	c606                	sw	ra,12(sp)
    62aa:	2aa1                	jal	6402 <_isatty>
    62ac:	57fd                	li	a5,-1
    62ae:	00f51763          	bne	a0,a5,62bc <_isatty_r+0x20>
    62b2:	b0018793          	addi	a5,gp,-1280 # 200003a8 <errno>
    62b6:	439c                	lw	a5,0(a5)
    62b8:	c391                	beqz	a5,62bc <_isatty_r+0x20>
    62ba:	c01c                	sw	a5,0(s0)
    62bc:	40b2                	lw	ra,12(sp)
    62be:	4422                	lw	s0,8(sp)
    62c0:	0141                	addi	sp,sp,16
    62c2:	8082                	ret

000062c4 <_lseek_r>:
    62c4:	1141                	addi	sp,sp,-16
    62c6:	c422                	sw	s0,8(sp)
    62c8:	842a                	mv	s0,a0
    62ca:	852e                	mv	a0,a1
    62cc:	85b2                	mv	a1,a2
    62ce:	8636                	mv	a2,a3
    62d0:	b001a023          	sw	zero,-1280(gp) # 200003a8 <errno>
    62d4:	c606                	sw	ra,12(sp)
    62d6:	2a25                	jal	640e <_lseek>
    62d8:	57fd                	li	a5,-1
    62da:	00f51763          	bne	a0,a5,62e8 <_lseek_r+0x24>
    62de:	b0018793          	addi	a5,gp,-1280 # 200003a8 <errno>
    62e2:	439c                	lw	a5,0(a5)
    62e4:	c391                	beqz	a5,62e8 <_lseek_r+0x24>
    62e6:	c01c                	sw	a5,0(s0)
    62e8:	40b2                	lw	ra,12(sp)
    62ea:	4422                	lw	s0,8(sp)
    62ec:	0141                	addi	sp,sp,16
    62ee:	8082                	ret

000062f0 <memchr>:
    62f0:	0ff5f593          	andi	a1,a1,255
    62f4:	962a                	add	a2,a2,a0
    62f6:	00c51463          	bne	a0,a2,62fe <memchr+0xe>
    62fa:	4501                	li	a0,0
    62fc:	8082                	ret
    62fe:	211c                	lbu	a5,0(a0)
    6300:	feb78ee3          	beq	a5,a1,62fc <memchr+0xc>
    6304:	0505                	addi	a0,a0,1
    6306:	bfc5                	j	62f6 <memchr+0x6>

00006308 <memmove>:
    6308:	04a5f163          	bgeu	a1,a0,634a <memmove+0x42>
    630c:	00c586b3          	add	a3,a1,a2
    6310:	02d57d63          	bgeu	a0,a3,634a <memmove+0x42>
    6314:	fff64593          	not	a1,a2
    6318:	4781                	li	a5,0
    631a:	17fd                	addi	a5,a5,-1
    631c:	00f59363          	bne	a1,a5,6322 <memmove+0x1a>
    6320:	8082                	ret
    6322:	00f68733          	add	a4,a3,a5
    6326:	00074803          	lbu	a6,0(a4) # fffff000 <_eusrstack+0xdfff7000>
    632a:	00c78733          	add	a4,a5,a2
    632e:	972a                	add	a4,a4,a0
    6330:	01070023          	sb	a6,0(a4)
    6334:	b7dd                	j	631a <memmove+0x12>
    6336:	00f58733          	add	a4,a1,a5
    633a:	2314                	lbu	a3,0(a4)
    633c:	00f50733          	add	a4,a0,a5
    6340:	0785                	addi	a5,a5,1
    6342:	a314                	sb	a3,0(a4)
    6344:	fef619e3          	bne	a2,a5,6336 <memmove+0x2e>
    6348:	8082                	ret
    634a:	4781                	li	a5,0
    634c:	bfe5                	j	6344 <memmove+0x3c>

0000634e <__malloc_lock>:
    634e:	8082                	ret

00006350 <__malloc_unlock>:
    6350:	8082                	ret

00006352 <_realloc_r>:
    6352:	e581                	bnez	a1,635a <_realloc_r+0x8>
    6354:	85b2                	mv	a1,a2
    6356:	b2aff06f          	j	5680 <_malloc_r>
    635a:	1101                	addi	sp,sp,-32
    635c:	cc22                	sw	s0,24(sp)
    635e:	ce06                	sw	ra,28(sp)
    6360:	ca26                	sw	s1,20(sp)
    6362:	c84a                	sw	s2,16(sp)
    6364:	c64e                	sw	s3,12(sp)
    6366:	8432                	mv	s0,a2
    6368:	ee01                	bnez	a2,6380 <_realloc_r+0x2e>
    636a:	a6eff0ef          	jal	ra,55d8 <_free_r>
    636e:	4901                	li	s2,0
    6370:	40f2                	lw	ra,28(sp)
    6372:	4462                	lw	s0,24(sp)
    6374:	854a                	mv	a0,s2
    6376:	44d2                	lw	s1,20(sp)
    6378:	4942                	lw	s2,16(sp)
    637a:	49b2                	lw	s3,12(sp)
    637c:	6105                	addi	sp,sp,32
    637e:	8082                	ret
    6380:	84ae                	mv	s1,a1
    6382:	89aa                	mv	s3,a0
    6384:	2889                	jal	63d6 <_malloc_usable_size_r>
    6386:	8926                	mv	s2,s1
    6388:	fe8574e3          	bgeu	a0,s0,6370 <_realloc_r+0x1e>
    638c:	85a2                	mv	a1,s0
    638e:	854e                	mv	a0,s3
    6390:	af0ff0ef          	jal	ra,5680 <_malloc_r>
    6394:	892a                	mv	s2,a0
    6396:	dd69                	beqz	a0,6370 <_realloc_r+0x1e>
    6398:	85a6                	mv	a1,s1
    639a:	8622                	mv	a2,s0
    639c:	97bfe0ef          	jal	ra,4d16 <memcpy>
    63a0:	85a6                	mv	a1,s1
    63a2:	854e                	mv	a0,s3
    63a4:	a34ff0ef          	jal	ra,55d8 <_free_r>
    63a8:	b7e1                	j	6370 <_realloc_r+0x1e>

000063aa <_read_r>:
    63aa:	1141                	addi	sp,sp,-16
    63ac:	c422                	sw	s0,8(sp)
    63ae:	842a                	mv	s0,a0
    63b0:	852e                	mv	a0,a1
    63b2:	85b2                	mv	a1,a2
    63b4:	8636                	mv	a2,a3
    63b6:	b001a023          	sw	zero,-1280(gp) # 200003a8 <errno>
    63ba:	c606                	sw	ra,12(sp)
    63bc:	28b9                	jal	641a <_read>
    63be:	57fd                	li	a5,-1
    63c0:	00f51763          	bne	a0,a5,63ce <_read_r+0x24>
    63c4:	b0018793          	addi	a5,gp,-1280 # 200003a8 <errno>
    63c8:	439c                	lw	a5,0(a5)
    63ca:	c391                	beqz	a5,63ce <_read_r+0x24>
    63cc:	c01c                	sw	a5,0(s0)
    63ce:	40b2                	lw	ra,12(sp)
    63d0:	4422                	lw	s0,8(sp)
    63d2:	0141                	addi	sp,sp,16
    63d4:	8082                	ret

000063d6 <_malloc_usable_size_r>:
    63d6:	ffc5a783          	lw	a5,-4(a1)
    63da:	ffc78513          	addi	a0,a5,-4 # ffc <PcdAuthState+0x2c>
    63de:	0007d563          	bgez	a5,63e8 <_malloc_usable_size_r+0x12>
    63e2:	95aa                	add	a1,a1,a0
    63e4:	419c                	lw	a5,0(a1)
    63e6:	953e                	add	a0,a0,a5
    63e8:	8082                	ret

000063ea <_close>:
    63ea:	05800793          	li	a5,88
    63ee:	b0f1a023          	sw	a5,-1280(gp) # 200003a8 <errno>
    63f2:	557d                	li	a0,-1
    63f4:	8082                	ret

000063f6 <_fstat>:
    63f6:	05800793          	li	a5,88
    63fa:	b0f1a023          	sw	a5,-1280(gp) # 200003a8 <errno>
    63fe:	557d                	li	a0,-1
    6400:	8082                	ret

00006402 <_isatty>:
    6402:	05800793          	li	a5,88
    6406:	b0f1a023          	sw	a5,-1280(gp) # 200003a8 <errno>
    640a:	4501                	li	a0,0
    640c:	8082                	ret

0000640e <_lseek>:
    640e:	05800793          	li	a5,88
    6412:	b0f1a023          	sw	a5,-1280(gp) # 200003a8 <errno>
    6416:	557d                	li	a0,-1
    6418:	8082                	ret

0000641a <_read>:
    641a:	05800793          	li	a5,88
    641e:	b0f1a023          	sw	a5,-1280(gp) # 200003a8 <errno>
    6422:	557d                	li	a0,-1
    6424:	8082                	ret
    6426:	0000                	unimp
    6428:	5441                	li	s0,-16
    642a:	000d                	c.nop	3
    642c:	00004b4f          	fnmadd.s	fs6,ft0,ft0,ft0,rmm
    6430:	5441                	li	s0,-16
    6432:	5047512b          	0x5047512b
    6436:	0d313d53          	0xd313d53
    643a:	0000                	unimp
    643c:	5441                	li	s0,-16
    643e:	544d512b          	0x544d512b
    6442:	4944                	lw	s1,20(a0)
    6444:	303d4353          	0x303d4353
    6448:	000d                	c.nop	3
    644a:	0000                	unimp
    644c:	5441                	li	s0,-16
    644e:	3045                	jal	5cee <_vfiprintf_r+0x1dc>
    6450:	000d                	c.nop	3
    6452:	0000                	unimp
    6454:	5441                	li	s0,-16
    6456:	5153432b          	0x5153432b
    645a:	000d                	c.nop	3
    645c:	5441                	li	s0,-16
    645e:	0d49                	addi	s10,s10,18
    6460:	0000                	unimp
    6462:	0000                	unimp
    6464:	5441                	li	s0,-16
    6466:	4950432b          	0x4950432b
    646a:	3f4e                	lhu	a1,60(a4)
    646c:	000d                	c.nop	3
    646e:	0000                	unimp
    6470:	4950432b          	0x4950432b
    6474:	3a4e                	lhu	a1,52(a2)
    6476:	5220                	lw	s0,96(a2)
    6478:	4145                	li	sp,17
    647a:	5944                	lw	s1,52(a0)
    647c:	0000                	unimp
    647e:	0000                	unimp
    6480:	5441                	li	s0,-16
    6482:	4552432b          	0x4552432b
    6486:	000d3f47          	fmsub.s	ft10,fs10,ft0,ft0,rup
    648a:	0000                	unimp
    648c:	4552432b          	0x4552432b
    6490:	30203a47          	fmsub.s	fs4,ft0,ft2,ft6,rup
    6494:	312c                	lbu	a1,3(a0)
    6496:	0000                	unimp
    6498:	4552432b          	0x4552432b
    649c:	30203a47          	fmsub.s	fs4,ft0,ft2,ft6,rup
    64a0:	352c                	lbu	a1,11(a0)
    64a2:	0000                	unimp
    64a4:	5441                	li	s0,-16
    64a6:	5247432b          	0x5247432b
    64aa:	4745                	li	a4,17
    64ac:	00000d3f 5247432b 	0x5247432b00000d3f
    64b4:	4745                	li	a4,17
    64b6:	203a                	lhu	a4,2(s0)
    64b8:	2c30                	lbu	a2,26(s0)
    64ba:	0031                	c.nop	12
    64bc:	5247432b          	0x5247432b
    64c0:	4745                	li	a4,17
    64c2:	203a                	lhu	a4,2(s0)
    64c4:	2c30                	lbu	a2,26(s0)
    64c6:	0035                	c.nop	13
    64c8:	5441                	li	s0,-16
    64ca:	504f432b          	0x504f432b
    64ce:	000d3f53          	fadd.s	ft10,fs10,ft0,rup
    64d2:	0000                	unimp
    64d4:	6544227b          	0x6544227b
    64d8:	6976                	flw	fs2,92(sp)
    64da:	44496563          	bltu	s2,tp,6924 <ascii_1608+0x358>
    64de:	3a22                	lhu	s0,50(a2)
    64e0:	3032                	lhu	a2,34(s0)
    64e2:	3332                	lhu	a2,34(a4)
    64e4:	222c                	lbu	a1,2(a2)
    64e6:	6f6d                	lui	t5,0x1b
    64e8:	6564                	flw	fs1,76(a0)
    64ea:	5f6c                	lw	a1,124(a4)
    64ec:	756e                	flw	fa0,248(sp)
    64ee:	626d                	lui	tp,0x1b
    64f0:	7265                	lui	tp,0xffff9
    64f2:	3a22                	lhu	s0,50(a2)
    64f4:	5322                	lw	t1,40(sp)
    64f6:	3459                	jal	5f7c <_printf_i+0xd6>
    64f8:	3739                	jal	6406 <_isatty+0x4>
    64fa:	3138                	lbu	a4,3(a0)
    64fc:	2c22                	lhu	s0,26(s0)
    64fe:	6d22                	flw	fs10,8(sp)
    6500:	6e61                	lui	t3,0x18
    6502:	6761                	lui	a4,0x18
    6504:	7265                	lui	tp,0xffff9
    6506:	3a22                	lhu	s0,50(a2)
    6508:	5822                	lw	a6,40(sp)
    650a:	4275                	li	tp,29
    650c:	6e69                	lui	t3,0x1a
    650e:	2c22                	lhu	s0,26(s0)
    6510:	6322                	flw	ft6,8(sp)
    6512:	7261                	lui	tp,0xffff8
    6514:	5f64                	lw	s1,124(a4)
    6516:	6469                	lui	s0,0x1a
    6518:	3a22                	lhu	s0,50(a2)
    651a:	2522                	lhu	s0,10(a0)
    651c:	222c2273          	csrrs	tp,0x222,s8
    6520:	72727563          	bgeu	tp,t2,6c4a <ascii_3216+0x8e>
    6524:	6e65                	lui	t3,0x19
    6526:	5f74                	lw	a3,124(a4)
    6528:	7270                	flw	fa2,100(a2)
    652a:	7365                	lui	t1,0xffff9
    652c:	65727573          	csrrci	a0,0x657,4
    6530:	3a22                	lhu	s0,50(a2)
    6532:	6625                	lui	a2,0x9
    6534:	222c                	lbu	a1,2(a2)
    6536:	6f6c                	flw	fa1,92(a4)
    6538:	226e                	lhu	a1,6(a2)
    653a:	253a                	lhu	a4,10(a0)
    653c:	6c222c73          	csrrs	s8,0x6c2,tp
    6540:	7461                	lui	s0,0xffff8
    6542:	3a22                	lhu	s0,50(a2)
    6544:	7325                	lui	t1,0xfffe9
    6546:	222c                	lbu	a1,2(a2)
    6548:	6970                	flw	fa2,84(a0)
    654a:	6374                	flw	fa3,68(a4)
    654c:	2268                	lbu	a0,6(a2)
    654e:	253a                	lhu	a4,10(a0)
    6550:	2c66                	lhu	s1,30(s0)
    6552:	7222                	flw	ft4,40(sp)
    6554:	226c6c6f          	jal	s8,cc77a <_data_lma+0xc4096>
    6558:	253a                	lhu	a4,10(a0)
    655a:	2c66                	lhu	s1,30(s0)
    655c:	7922                	flw	fs2,40(sp)
    655e:	7761                	lui	a4,0xffff8
    6560:	3a22                	lhu	s0,50(a2)
    6562:	6625                	lui	a2,0x9
    6564:	222c                	lbu	a1,2(a2)
    6566:	65746177          	0x65746177
    656a:	5f72                	lw	t5,60(sp)
    656c:	6568                	flw	fa0,76(a0)
    656e:	6769                	lui	a4,0x1a
    6570:	7468                	flw	fa0,108(s0)
    6572:	3a22                	lhu	s0,50(a2)
    6574:	6625                	lui	a2,0x9
    6576:	007d                	c.nop	31
    6578:	0000                	unimp
    657a:	4270                	lw	a2,68(a2)
    657c:	0000                	unimp
    657e:	4120                	lw	s0,64(a0)
    6580:	0000                	unimp
    6582:	4240                	lw	s0,4(a2)
    6584:	0000                	unimp
    6586:	0000                	unimp
    6588:	999a                	add	s3,s3,t1
    658a:	9999                	andi	a1,a1,-26
    658c:	9999                	andi	a1,a1,-26
    658e:	3fb9                	jal	64ec <_read+0xd2>
    6590:	47ae147b          	0x47ae147b
    6594:	7ae1                	lui	s5,0xffff8
    6596:	3f84                	lbu	s1,25(a5)
    6598:	a9fc                	sb	a5,22(a1)
    659a:	d2f1                	beqz	a3,655e <_read+0x144>
    659c:	624d                	lui	tp,0x13
    659e:	3f50                	lbu	a2,29(a4)
    65a0:	432d                	li	t1,11
    65a2:	eb1c                	fsw	fa5,16(a4)
    65a4:	36e2                	lhu	s0,46(a3)
    65a6:	3f1a                	lhu	a4,56(a4)
    65a8:	68f1                	lui	a7,0x1c
    65aa:	f8b588e3          	beq	a1,a1,653a <_read+0x120>
    65ae:	3ee4                	lbu	s1,31(a3)
    65b0:	5441                	li	s0,-16
    65b2:	5047512b          	0x5047512b
    65b6:	4d4e4753          	0x4d4e4753
    65ba:	4145                	li	sp,17
    65bc:	223d                	jal	66ea <ascii_1608+0x11e>
    65be:	22414747          	fmsub.d	fa4,ft2,ft4,ft4,rmm
    65c2:	000d                	c.nop	3
    65c4:	3025                	jal	5dec <_printf_common+0x52>
    65c6:	7832                	flw	fa6,44(sp)
    65c8:	0000                	unimp
	...

000065cc <ascii_1608>:
	...
    65dc:	0000 0800 0808 0808 0808 0000 1818 0000     ................
    65ec:	4800 246c 0012 0000 0000 0000 0000 0000     .Hl$............
    65fc:	0000 2400 2424 127f 1212 127f 1212 0000     ...$$$..........
    660c:	0000 1c08 2a2a 0c0a 2818 2a28 1c2a 0808     ....**...((**...
    661c:	0000 2200 1525 1515 582a 5454 2254 0000     ..."%...*XTTT"..
    662c:	0000 0c00 1212 0a12 2576 1129 6e91 0000     ........v%)..n..
    663c:	0600 0406 0003 0000 0000 0000 0000 0000     ................
    664c:	4000 1020 0810 0808 0808 1008 2010 0040     .@ .......... @.
    665c:	0200 0804 1008 1010 1010 0810 0408 0002     ................
    666c:	0000 0000 0808 1c6b 6b1c 0808 0000 0000     ......k..k......
    667c:	0000 0000 0808 0808 087f 0808 0008 0000     ................
	...
    6698:	0606 0304 0000 0000 0000 0000 00fe 0000     ................
	...
    66b8:	0606 0000 0000 4080 2040 1020 0810 0408     .......@@  .....
    66c8:	0204 0002 0000 1800 4224 4242 4242 4242     ........$BBBBBBB
    66d8:	1824 0000 0000 0800 080e 0808 0808 0808     $...............
    66e8:	3e08 0000 0000 3c00 4242 2042 1020 0408     .>.....<BBB  ...
    66f8:	7e42 0000 0000 3c00 4242 1820 4020 4240     B~.....<BB . @@B
    6708:	1c22 0000 0000 2000 2830 2424 2222 207e     "...... 0($$""~ 
    6718:	7820 0000 0000 7e00 0202 1a02 4026 4240      x.....~....&@@B
    6728:	1c22 0000 0000 3800 0224 1a02 4226 4242     "......8$...&BBB
    6738:	1824 0000 0000 7e00 2222 1010 0808 0808     $......~""......
    6748:	0808 0000 0000 3c00 4242 2442 2418 4242     .......<BBB$.$BB
    6758:	3c42 0000 0000 1800 4224 4242 5864 4040     B<......$BBBdX@@
    6768:	1c24 0000 0000 0000 0000 1818 0000 0000     $...............
    6778:	1818 0000 0000 0000 0000 0800 0000 0000     ................
    6788:	0800 0408 0000 4000 1020 0408 0402 1008     .......@ .......
    6798:	4020 0000 0000 0000 0000 007f 0000 007f      @..............
    67a8:	0000 0000 0000 0200 0804 2010 2040 0810     ........... @ ..
    67b8:	0204 0000 0000 3c00 4242 4046 1020 0010     .......<BBF@ ...
    67c8:	1818 0000 0000 1c00 5a22 5555 5555 422d     ........"ZUUUU-B
    67d8:	1c22 0000 0000 0800 1808 1414 3c24 4222     "...........$<"B
    67e8:	e742 0000 0000 1f00 2222 1e22 4222 4242     B......."""."BBB
    67f8:	1f22 0000 0000 7c00 4242 0101 0101 4201     "......|BB.....B
    6808:	1c22 0000 0000 1f00 4222 4242 4242 4242     "......."BBBBBBB
    6818:	1f22 0000 0000 3f00 1242 1e12 1212 4202     "......?B......B
    6828:	3f42 0000 0000 3f00 1242 1e12 1212 0202     B?.....?B.......
    6838:	0702 0000 0000 3c00 2222 0101 7101 2221     .......<""...q!"
    6848:	1c22 0000 0000 e700 4242 4242 427e 4242     ".......BBBB~BBB
    6858:	e742 0000 0000 3e00 0808 0808 0808 0808     B......>........
    6868:	3e08 0000 0000 7c00 1010 1010 1010 1010     .>.....|........
    6878:	1010 0f11 0000 7700 1222 0e0a 120a 2212     .......w"......"
    6888:	7722 0000 0000 0700 0202 0202 0202 0202     "w..............
    6898:	7f42 0000 0000 7700 3636 3636 2a2a 2a2a     B......w6666****
    68a8:	6b2a 0000 0000 e300 4646 4a4a 5252 6252     *k......FFJJRRRb
    68b8:	4762 0000 0000 1c00 4122 4141 4141 4141     bG......"AAAAAAA
    68c8:	1c22 0000 0000 3f00 4242 4242 023e 0202     "......?BBBB>...
    68d8:	0702 0000 0000 1c00 4122 4141 4141 534d     ........"AAAAAMS
    68e8:	1c32 0060 0000 3f00 4242 3e42 1212 2222     2.`....?BBB>..""
    68f8:	c742 0000 0000 7c00 4242 0402 2018 4240     B......|BB... @B
    6908:	3e42 0000 0000 7f00 0849 0808 0808 0808     B>......I.......
    6918:	1c08 0000 0000 e700 4242 4242 4242 4242     ........BBBBBBBB
    6928:	3c42 0000 0000 e700 4242 2422 1424 1814     B<......BB"$$...
    6938:	0808 0000 0000 6b00 4949 4949 5555 2236     .......kIIIIUU6"
    6948:	2222 0000 0000 e700 2442 1824 1818 2424     ""......B$$...$$
    6958:	e742 0000 0000 7700 2222 1414 0808 0808     B......w""......
    6968:	1c08 0000 0000 7e00 2021 1010 0408 4204     .......~! .....B
    6978:	3f42 0000 7800 0808 0808 0808 0808 0808     B?...x..........
    6988:	0808 0078 0000 0202 0404 0808 1008 2010     ..x............ 
    6998:	2020 4040 1e00 1010 1010 1010 1010 1010       @@............
    69a8:	1010 001e 3800 0044 0000 0000 0000 0000     .....8D.........
	...
    69c8:	0000 ff00 0600 0008 0000 0000 0000 0000     ................
	...
    69e0:	0000 3c00 7842 4244 fc42 0000 0000 0300     ...<BxDBB.......
    69f0:	0202 1a02 4226 4242 1a26 0000 0000 0000     ....&BBB&.......
    6a00:	0000 3800 0244 0202 3844 0000 0000 6000     ...8D...D8.....`
    6a10:	4040 7840 4244 4242 d864 0000 0000 0000     @@@xDBBBd.......
    6a20:	0000 3c00 7e42 0202 3c42 0000 0000 f000     ...<B~..B<......
    6a30:	0888 7e08 0808 0808 3e08 0000 0000 0000     ...~.....>......
    6a40:	0000 7c00 2222 021c 423c 3c42 0000 0300     ...|""..<BB<....
    6a50:	0202 3a02 4246 4242 e742 0000 0000 0c00     ...:FBBBB.......
    6a60:	000c 0e00 0808 0808 3e08 0000 0000 3000     .........>.....0
    6a70:	0030 3800 2020 2020 2020 1e22 0000 0300     0..8      ".....
    6a80:	0202 7202 0a12 1216 7722 0000 0000 0e00     ...r...."w......
    6a90:	0808 0808 0808 0808 3e08 0000 0000 0000     .........>......
    6aa0:	0000 7f00 9292 9292 b792 0000 0000 0000     ................
    6ab0:	0000 3b00 4246 4242 e742 0000 0000 0000     ...;FBBBB.......
    6ac0:	0000 3c00 4242 4242 3c42 0000 0000 0000     ...<BBBBB<......
    6ad0:	0000 1b00 4226 4242 1e22 0702 0000 0000     ....&BBB".......
    6ae0:	0000 7800 4244 4242 7844 e040 0000 0000     ...xDBBBDx@.....
    6af0:	0000 7700 044c 0404 1f04 0000 0000 0000     ...wL...........
    6b00:	0000 7c00 0242 403c 3e42 0000 0000 0000     ...|B.<@B>......
    6b10:	0800 3e08 0808 0808 3008 0000 0000 0000     ...>.....0......
    6b20:	0000 6300 4242 4242 dc62 0000 0000 0000     ...cBBBBb.......
    6b30:	0000 e700 2442 1424 0808 0000 0000 0000     ....B$$.........
    6b40:	0000 eb00 4949 5555 2222 0000 0000 0000     ....IIUU""......
    6b50:	0000 7600 1824 1818 6e24 0000 0000 0000     ...v$...$n......
    6b60:	0000 e700 2442 1424 0818 0708 0000 0000     ....B$$.........
    6b70:	0000 7e00 1022 0808 7e44 0000 c000 2020     ...~"...D~....  
    6b80:	2020 1020 2020 2020 2020 00c0 1010 1010        .      ......
    6b90:	1010 1010 1010 1010 1010 1010 0600 0808     ................
    6ba0:	0808 1008 0808 0808 0808 0006 320c 00c2     .............2..
	...

00006bbc <ascii_3216>:
	...
    6c04:	0000 01c0 01c0 01c0 01c0 01c0 01c0 01c0     ................
    6c14:	0080 0080 0080 0080 0080 0080 0080 0000     ................
    6c24:	0000 0000 0000 0180 03c0 03c0 0180 0000     ................
	...
    6c40:	0000 1ce0 1ce0 1ef0 0e70 0738 0318 0108     ........p.8.....
    6c50:	0084 0000 0000 0000 0000 0000 0000 0000     ................
	...
    6c88:	1020 1020 1020 1020 1020 7ffe 7ffe 0810      . . . . .......
    6c98:	0810 0810 0810 0810 0810 0810 7ffe 7ffe     ................
    6ca8:	0408 0408 0408 0408 0408 0000 0000 0000     ................
	...
    6cc4:	0100 0100 07c0 1960 3110 3118 3918 3918     ......`..1.1.9.9
    6cd4:	0138 0170 01e0 03c0 0780 0f00 1d00 3900     8.p............9
    6ce4:	3100 311c 311c 310c 110c 0d18 07e0 0100     .1.1.1.1........
    6cf4:	0100 0100 0000 0000 0000 0000 0000 0000     ................
    6d04:	0000 0000 101c 1836 0863 0c63 0463 0463     ......6.c.c.c.c.
    6d14:	0263 0263 0163 1d36 379c 2280 6380 6340     c.c.c.6..7.".c@c
    6d24:	6340 6320 6320 6330 2210 3618 1c08 0000     @c c c0c.".6....
	...
    6d48:	00f0 0198 018c 018c 018c 018c 008c 00cc     ................
    6d58:	0078 3e18 081c 0836 0832 0463 0463 04c3     x..>..6.2.c.c...
    6d68:	03c3 4383 4306 268e 1c78 0000 0000 0000     ...C.C.&x.......
	...
    6d80:	0000 001c 003c 003c 0030 0030 0010 000c     ....<.<.0.0.....
    6d90:	0006 0000 0000 0000 0000 0000 0000 0000     ................
	...
    6dc0:	0000 4000 2000 1000 0800 0c00 0400 0600     ...@. ..........
    6dd0:	0300 0300 0300 0180 0180 0180 0180 0180     ................
    6de0:	0180 0180 0180 0300 0300 0300 0600 0600     ................
    6df0:	0c00 0800 1000 2000 4000 0000 0000 0000     ....... .@......
    6e00:	0000 0002 0004 0008 0010 0030 0020 0060     ..........0. .`.
    6e10:	00c0 00c0 00c0 0180 0180 0180 0180 0180     ................
    6e20:	0180 0180 0180 00c0 00c0 00c0 0060 0060     ............`.`.
    6e30:	0030 0010 0008 0004 0002 0000 0000 0000     0...............
	...
    6e4c:	0100 0380 0380 0100 711c 793c 3d78 07c0     .........q<yx=..
    6e5c:	0100 07c0 3d78 793c 711c 0100 0380 0380     ....x=<y.q......
    6e6c:	0180 0000 0000 0000 0000 0000 0000 0000     ................
	...
    6e8c:	0000 0100 0100 0100 0100 0100 0100 0100     ................
    6e9c:	7ffc 0100 0100 0100 0100 0100 0100 0100     ................
	...
    6eec:	001c 003c 003c 0030 0030 0010 000c 0006     ..<.<.0.0.......
	...
    6f1c:	7ffe 0000 0000 0000 0000 0000 0000 0000     ................
	...
    6f68:	0000 0018 003c 003c 0018 0000 0000 0000     ....<.<.........
	...
    6f80:	0000 4000 6000 2000 3000 1000 1800 0800     ...@.`. .0......
    6f90:	0c00 0400 0600 0200 0300 0100 0180 0080     ................
    6fa0:	00c0 0040 0060 0020 0030 0010 0018 0008     ..@.`. .0.......
    6fb0:	000c 0004 0006 0002 0000 0000 0000 0000     ................
	...
    6fc8:	07c0 0c60 1830 3018 3018 2018 600c 600c     ..`.0..0.0. .`.`
    6fd8:	600c 600c 600c 600c 600c 600c 600c 2018     .`.`.`.`.`.`.`. 
    6fe8:	3018 3018 1830 0c60 07c0 0000 0000 0000     .0.00.`.........
	...
    7008:	0100 0180 01f8 0180 0180 0180 0180 0180     ................
    7018:	0180 0180 0180 0180 0180 0180 0180 0180     ................
    7028:	0180 0180 0180 03c0 1ff8 0000 0000 0000     ................
	...
    7048:	07e0 1c10 1808 3004 3004 300c 300c 3000     .......0.0.0.0.0
    7058:	1800 0800 0400 0200 0100 0080 0040 2020     ............@.  
    7068:	2010 2008 3004 1ffc 1ffc 0000 0000 0000     . . .0..........
	...
    7088:	03e0 0e18 0c0c 180c 180c 180c 1800 0c00     ................
    7098:	0600 03c0 0e00 1800 1000 3000 3000 300c     ...........0.0.0
    70a8:	300c 100c 180c 0c18 03e0 0000 0000 0000     .0..............
	...
    70c8:	0c00 0e00 0e00 0f00 0e80 0e80 0e40 0e60     ............@.`.
    70d8:	0e20 0e10 0e10 0e08 0e04 0e04 7ffe 0e00      ...............
    70e8:	0e00 0e00 0e00 0e00 0e00 7fc0 0000 0000     ................
	...
    7108:	3ff0 3ff0 0010 0010 0010 0008 0008 07c8     .?.?............
    7118:	0c28 1818 1008 3000 3000 3000 3000 300c     (......0.0.0.0.0
    7128:	300c 1804 1804 0c08 03f0 0000 0000 0000     .0..............
	...
    7148:	0f80 10c0 3020 3010 0018 0018 0008 000c     .... 0.0........
    7158:	0f8c 186c 303c 601c 600c 600c 600c 600c     ..l.<0.`.`.`.`.`
    7168:	6018 2018 3030 1860 07c0 0000 0000 0000     .`. 00`.........
	...
    7188:	3ff8 3ff8 101c 080c 0804 0404 0400 0200     .?.?............
    7198:	0200 0100 0100 0100 0080 0080 0080 00c0     ................
    71a8:	00c0 00c0 00c0 00c0 00c0 0000 0000 0000     ................
	...
    71c8:	07e0 0c30 1818 300c 300c 300c 301c 1838     ..0....0.0.0.08.
    71d8:	0870 07e0 07b0 0e18 1c0c 3806 3006 3006     p..........8.0.0
    71e8:	3006 3006 180c 0c18 03e0 0000 0000 0000     .0.0............
	...
    7208:	03e0 0418 080c 180c 1006 3006 3006 3006     ...........0.0.0
    7218:	3006 3806 3c0c 3618 31f0 3000 1800 1800     .0.8.<.6.1.0....
    7228:	1800 0c0c 060c 030c 01f0 0000 0000 0000     ................
	...
    7254:	0000 0180 03c0 03c0 0180 0000 0000 0000     ................
    7264:	0000 0000 0000 0180 03c0 03c0 0180 0000     ................
	...
    7294:	0000 00c0 00c0 0000 0000 0000 0000 0000     ................
	...
    72ac:	0000 00c0 00c0 0080 0080 0040 0040 0000     ..........@.@...
	...
    72c4:	0000 2000 1000 0800 0400 0600 0300 0180     ... ............
    72d4:	00c0 0060 0030 0018 000c 0018 0030 0060     ..`.0.......0.`.
    72e4:	00c0 0180 0300 0600 0400 0800 1000 2000     ............... 
	...
    7314:	0000 7ffe 0000 0000 0000 0000 0000 7ffe     ................
	...
    7344:	0000 0004 0008 0010 0020 0060 00c0 0180     ........ .`.....
    7354:	0300 0600 0c00 1800 3000 1800 0c00 0600     .........0......
    7364:	0300 0180 00c0 0060 0020 0010 0008 0004     ......`. .......
	...
    7384:	0000 07c0 1830 3008 6008 600c 601c 601c     ....0..0.`.`.`.`
    7394:	601c 3000 1c00 0600 0100 0080 0080 0080     .`.0............
    73a4:	0080 0000 0000 0180 03c0 03c0 0180 0000     ................
	...
    73c8:	07c0 1860 3010 2018 2f0c 4d8c 4c86 4cc6     ..`..0. ./.M.L.L
    73d8:	4cc6 4c66 4466 4466 2666 2666 1566 1ccc     .LfLfDfDf&f&f...
    73e8:	400c 2008 3018 1830 07c0 0000 0000 0000     .@. .00.........
	...
    7404:	0000 0100 01c0 01c0 01c0 0140 0360 0320     ..........@.`. .
    7414:	0320 0320 0630 0610 0610 0610 0ff8 0c08      . .0...........
    7424:	0c08 0c08 0c0c 1804 1804 1806 7c1f 0000     .............|..
	...
    7448:	07fe 1c18 3818 3018 3018 3018 3018 1818     .....8.0.0.0.0..
    7458:	0c18 07f8 1818 3018 2018 6018 6018 6018     .......0. .`.`.`
    7468:	6018 6018 3018 1818 0ffe 0000 0000 0000     .`.`.0..........
	...
    7488:	27c0 3860 3010 2018 400c 400c 0004 0006     .'`8.0. .@.@....
    7498:	0006 0006 0006 0006 0006 0006 0006 400c     ...............@
    74a8:	400c 200c 3018 1830 07c0 0000 0000 0000     .@. .00.........
	...
    74c8:	03fe 0e18 1818 3018 3018 3018 6018 6018     .......0.0.0.`.`
    74d8:	6018 6018 6018 6018 6018 6018 6018 3018     .`.`.`.`.`.`.`.0
    74e8:	3018 1018 1818 0e18 03fe 0000 0000 0000     .0..............
	...
    7508:	3ffe 3018 2018 6018 4018 0018 0818 0818     .?.0. .`.@......
    7518:	0c18 0ff8 0c18 0818 0818 0018 0018 0018     ................
    7528:	4018 4018 2018 3018 3ffe 0000 0000 0000     .@.@. .0.?......
	...
    7548:	7ffe 7018 4018 c018 8018 0018 1018 1018     ...p.@..........
    7558:	1818 1ff8 1818 1018 1018 0018 0018 0018     ................
    7568:	0018 0018 0018 0018 007e 0000 0000 0000     ........~.......
	...
    7588:	13c0 1c70 1010 1018 200c 200c 0004 0006     ..p...... . ....
    7598:	0006 0006 0006 0006 fc06 3006 3006 300c     ...........0.0.0
    75a8:	300c 3018 3018 0830 07c0 0000 0000 0000     .0.0.00.........
	...
    75c8:	7e3f 180c 180c 180c 180c 180c 180c 180c     ?~..............
    75d8:	180c 180c 1ffc 180c 180c 180c 180c 180c     ................
    75e8:	180c 180c 180c 180c 7e3f 0000 0000 0000     ........?~......
	...
    7608:	1ff8 0180 0180 0180 0180 0180 0180 0180     ................
    7618:	0180 0180 0180 0180 0180 0180 0180 0180     ................
    7628:	0180 0180 0180 0180 1ff8 0000 0000 0000     ................
	...
    7648:	7fe0 0600 0600 0600 0600 0600 0600 0600     ................
    7658:	0600 0600 0600 0600 0600 0600 0600 0600     ................
    7668:	0600 0600 0600 0600 0600 0600 060e 030e     ................
    7678:	018e 00fc 0000 0000 0000 0000 0000 0000     ................
    7688:	7c7e 1818 0818 0418 0618 0218 0118 0198     ~|..............
    7698:	0198 01d8 03b8 0338 0718 0618 0e18 0c18     ......8.........
    76a8:	1c18 1818 3018 3018 fc7e 0000 0000 0000     .....0.0~.......
	...
    76c8:	007e 0018 0018 0018 0018 0018 0018 0018     ~...............
    76d8:	0018 0018 0018 0018 0018 0018 0018 0018     ................
    76e8:	4018 4018 2018 3018 3ffe 0000 0000 0000     .@.@. .0.?......
	...
    7708:	f81f 381c 381c 381c 3c1c 3434 3434 3434     ...8.8.8.<444444
    7718:	3634 3274 3264 3264 3264 3164 31c4 31c4     46t2d2d2d2d1.1.1
    7728:	31c4 30c4 30c4 3084 fc9f 0000 0000 0000     .1.0.0.0........
	...
    7748:	7c1f 101c 103c 1034 1034 1074 1064 10e4     .|..<.4.4.t.d...
    7758:	10c4 11c4 1184 1384 1304 1704 1604 1e04     ................
    7768:	1c04 1c04 1c04 1804 181f 0000 0000 0000     ................
	...
    7788:	03c0 0c30 1818 1008 300c 300c 6006 6006     ..0......0.0.`.`
    7798:	6006 6006 6006 6006 6006 6006 6006 200c     .`.`.`.`.`.`.`. 
    77a8:	300c 1008 1818 0c30 03c0 0000 0000 0000     .0....0.........
	...
    77c8:	0ffe 1818 3018 6018 6018 6018 6018 6018     .....0.`.`.`.`.`
    77d8:	3018 1818 0ff8 0018 0018 0018 0018 0018     .0..............
    77e8:	0018 0018 0018 0018 007e 0000 0000 0000     ........~.......
	...
    7808:	03c0 0c30 1818 100c 300c 200c 6006 6006     ..0......0. .`.`
    7818:	6006 6006 6006 6006 6006 6006 6006 61e4     .`.`.`.`.`.`.`.a
    7828:	332c 321c 1618 0e30 07c0 4c00 7c00 3800     ,3.2..0....L.|.8
	...
    7848:	07fe 1c18 3818 3018 3018 3018 3018 1818     .....8.0.0.0.0..
    7858:	0c18 07f8 0398 0318 0718 0618 0618 0e18     ................
    7868:	0c18 0c18 1c18 1818 787e 0000 0000 0000     ........~x......
	...
    7888:	27e0 3830 3018 200c 200c 000c 000c 0018     .'08.0. . ......
    7898:	0078 03e0 0f80 1e00 3800 7000 6000 6004     x........8.p.`.`
    78a8:	6004 6008 3018 1838 0fc8 0000 0000 0000     .`.`.08.........
	...
    78c8:	3ffc 218c 6184 4182 4182 0180 0180 0180     .?.!.a.A.A......
    78d8:	0180 0180 0180 0180 0180 0180 0180 0180     ................
    78e8:	0180 0180 0180 0180 07e0 0000 0000 0000     ................
	...
    7908:	7c3f 100c 100c 100c 100c 100c 100c 100c     ?|..............
    7918:	100c 100c 100c 100c 100c 100c 100c 100c     ................
    7928:	100c 100c 0808 0438 03e0 0000 0000 0000     ......8.........
	...
    7948:	f83e 2018 2018 2018 1030 1030 1030 1030     >.. . . 0.0.0.0.
    7958:	0860 0860 0860 0ce0 04c0 04c0 04c0 0380     `.`.`...........
    7968:	0380 0380 0380 0100 0100 0000 0000 0000     ................
	...
    7988:	f3df 6186 2186 2186 218c 210c 238c 138c     ...a.!.!.!.!.#..
    7998:	138c 138c 134c 1258 1658 0e58 0e38 0e38     ....L.X.X.X.8.8.
    79a8:	0e38 0c30 0410 0410 0410 0000 0000 0000     8.0.............
	...
    79c8:	3e7e 0818 0838 0430 0430 0270 0260 01e0     ~>..8.0.0.p.`...
    79d8:	01c0 01c0 0180 0380 0340 0740 0620 0620     ........@.@. . .
    79e8:	0c10 0c10 1808 1808 7c3e 0000 0000 0000     ........>|......
	...
    7a08:	7c7e 101c 1018 0818 0830 0c30 0470 0460     ~|......0.0.p.`.
    7a18:	0260 02c0 02c0 01c0 0180 0180 0180 0180     `...............
    7a28:	0180 0180 0180 0180 07e0 0000 0000 0000     ................
	...
    7a48:	3ff8 1818 1808 0c04 0e04 0600 0700 0300     .?..............
    7a58:	0380 0180 01c0 00c0 00e0 0060 0070 0030     ..........`.p.0.
    7a68:	2038 2018 101c 180c 1ffe 0000 0000 0000     8 . ............
	...
    7a80:	0000 3fc0 0040 0040 0040 0040 0040 0040     ...?@.@.@.@.@.@.
    7a90:	0040 0040 0040 0040 0040 0040 0040 0040     @.@.@.@.@.@.@.@.
    7aa0:	0040 0040 0040 0040 0040 0040 0040 0040     @.@.@.@.@.@.@.@.
    7ab0:	0040 0040 0040 3fc0 0000 0000 0000 0000     @.@.@..?........
    7ac0:	0000 0000 0000 0008 0018 0018 0010 0030     ..............0.
    7ad0:	0020 0060 0060 0040 00c0 0080 0180 0180      .`.`.@.........
    7ae0:	0100 0300 0200 0600 0600 0400 0c00 0800     ................
    7af0:	1800 1800 1000 3000 2000 0000 0000 0000     .......0. ......
    7b00:	0000 03fc 0200 0200 0200 0200 0200 0200     ................
    7b10:	0200 0200 0200 0200 0200 0200 0200 0200     ................
    7b20:	0200 0200 0200 0200 0200 0200 0200 0200     ................
    7b30:	0200 0200 0200 03fc 0000 0000 0000 0000     ................
    7b40:	0000 0780 06c0 0820 1010 0000 0000 0000     ...... .........
	...
    7bb8:	0000 ffff 0000 0000 0000 0078 00c0 0100     ..........x.....
	...
    7c14:	0000 03f0 0618 0c0c 0c0c 0c00 0f80 0c70     ..............p.
    7c24:	0c1c 0c0c 0c06 0c06 4c06 4f0c 38f8 0000     .........L.O.8..
	...
    7c44:	0000 0010 001e 0018 0018 0018 0018 0018     ................
    7c54:	0018 0f18 18d8 3038 6038 6018 6018 6018     ......808`.`.`.`
    7c64:	6018 6018 6018 2018 3038 1878 07c8 0000     .`.`.`. 80x.....
	...
    7c94:	0000 07c0 0c70 1818 1818 180c 000c 000c     ....p...........
    7ca4:	000c 000c 200c 2018 1018 0830 07c0 0000     ..... . ..0.....
	...
    7cc4:	0000 1000 1e00 1800 1800 1800 1800 1800     ................
    7cd4:	1800 1be0 1c30 1818 1818 180c 180c 180c     ....0...........
    7ce4:	180c 180c 180c 1808 1c18 7a30 09e0 0000     ..........0z....
	...
    7d14:	0000 07c0 0c30 1818 1008 300c 300c 3ffc     ....0......0.0.?
    7d24:	000c 000c 000c 2018 1018 1870 07c0 0000     ....... ..p.....
	...
    7d48:	3e00 c380 c080 c0c0 00c0 00c0 00c0 1ffc     .>..............
    7d58:	00c0 00c0 00c0 00c0 00c0 00c0 00c0 00c0     ................
    7d68:	00c0 00c0 00c0 00c0 0ff8 0000 0000 0000     ................
	...
    7d94:	0000 77c0 6c30 1810 1818 1818 1818 1810     ...w0l..........
    7da4:	0c30 07f0 0018 0018 0ff0 3ff0 7008 600c     0..........?.p.`
    7db4:	600c 600c 3838 0fe0 0000 0000 0000 0000     .`.`88..........
    7dc4:	0000 0010 001e 0018 0018 0018 0018 0018     ................
    7dd4:	0018 0f98 18d8 3038 3018 3018 3018 3018     ......80.0.0.0.0
    7de4:	3018 3018 3018 3018 3018 3018 fc7e 0000     .0.0.0.0.0.0~...
	...
    7e08:	0380 0380 0380 0000 0000 0000 0100 01f8     ................
    7e18:	0180 0180 0180 0180 0180 0180 0180 0180     ................
    7e28:	0180 0180 0180 0180 1ff8 0000 0000 0000     ................
	...
    7e48:	3800 3800 3800 0000 0000 0000 1000 1f80     .8.8.8..........
    7e58:	1800 1800 1800 1800 1800 1800 1800 1800     ................
    7e68:	1800 1800 1800 1800 1800 1800 1800 0c18     ................
    7e78:	0618 03f0 0000 0000 0000 0000 0000 0010     ................
    7e88:	001e 0018 0018 0018 0018 0018 0018 3e18     ...............>
    7e98:	0c18 0618 0318 0118 0198 01d8 0338 0718     ............8...
    7ea8:	0618 0c18 1c18 1818 7c7e 0000 0000 0000     ........~|......
	...
    7ec4:	0000 0100 01f8 0180 0180 0180 0180 0180     ................
    7ed4:	0180 0180 0180 0180 0180 0180 0180 0180     ................
    7ee4:	0180 0180 0180 0180 0180 0180 1ff8 0000     ................
	...
    7f14:	0008 1cee 339c 318c 318c 318c 318c 318c     .....3.1.1.1.1.1
    7f24:	318c 318c 318c 318c 318c 318c 7bde 0000     .1.1.1.1.1.1.{..
	...
    7f54:	0010 0f1e 18d8 3038 3018 3018 3018 3018     ......80.0.0.0.0
    7f64:	3018 3018 3018 3018 3018 3018 fc7e 0000     .0.0.0.0.0.0~...
	...
    7f94:	0000 07c0 1c70 3010 3018 600c 600c 600c     ....p..0.0.`.`.`
    7fa4:	600c 600c 600c 3018 3018 1830 07c0 0000     .`.`.`.0.00.....
	...
    7fd4:	0010 0f9e 1858 3038 2018 6018 6018 6018     ....X.80. .`.`.`
    7fe4:	6018 6018 6018 3018 3038 1878 0798 0018     .`.`.`.080x.....
    7ff4:	0018 0018 0018 007e 0000 0000 0000 0000     ......~.........
	...
    8014:	0000 23c0 3c30 3818 3018 300c 300c 300c     ...#0<.8.0.0.0.0
    8024:	300c 300c 300c 3008 3818 3c30 33e0 3000     .0.0.0.0.80<.3.0
    8034:	3000 3000 3000 fc00 0000 0000 0000 0000     .0.0.0..........
	...
    8054:	0060 3c7e 6660 6160 00e0 00e0 0060 0060     `.~<`f`a....`.`.
    8064:	0060 0060 0060 0060 0060 0060 07fe 0000     `.`.`.`.`.`.....
	...
    8094:	0000 27e0 3830 3018 2018 0018 0070 03e0     ...'08.0. ..p...
    80a4:	0f80 1c00 3004 3004 300c 181c 0fec 0000     .....0.0.0......
	...
    80cc:	0080 0080 0080 00c0 00e0 1ffc 00c0 00c0     ................
    80dc:	00c0 00c0 00c0 00c0 00c0 00c0 00c0 20c0     ............... 
    80ec:	20c0 1180 0f00 0000 0000 0000 0000 0000     . ..............
	...
    8114:	2010 3c1e 3018 3018 3018 3018 3018 3018     . .<.0.0.0.0.0.0
    8124:	3018 3018 3018 3018 3818 f430 13e0 0000     .0.0.0.0.80.....
	...
    8154:	0000 3c7e 1818 0818 0838 0430 0430 0270     ..~<....8.0.0.p.
    8164:	0260 0260 01e0 01c0 01c0 00c0 0080 0000     `.`.............
	...
    8194:	0000 f7df 638e 230c 238c 238c 1398 1398     .....c.#.#.#....
    81a4:	1658 1658 0e70 0e70 0e70 0420 0420 0000     X.X.p.p.p. . ...
	...
    81d4:	0000 3efc 0870 0470 04e0 02c0 01c0 0380     ...>p.p.........
    81e4:	0380 0740 0660 0c20 0c10 1818 7e3e 0000     ..@.`. .....>~..
	...
    8214:	0000 7c7e 1818 0818 0830 0830 0430 0460     ..~|....0.0.0.`.
    8224:	0460 02c0 02c0 02c0 0180 0180 0180 0080     `...............
    8234:	0080 0080 004c 003c 0000 0000 0000 0000     ....L.<.........
	...
    8254:	0000 1ffc 0c0c 0e04 0604 0300 0380 0180     ................
    8264:	00c0 00e0 2070 2030 3038 181c 1ffc 0000     ....p 0 80......
	...
    8280:	0000 3000 0800 0400 0400 0400 0400 0400     ...0............
    8290:	0400 0400 0400 0400 0400 0200 0180 0200     ................
    82a0:	0400 0400 0400 0400 0400 0400 0400 0400     ................
    82b0:	0400 0400 0400 0800 3000 0000 0100 0100     .........0......
    82c0:	0100 0100 0100 0100 0100 0100 0100 0100     ................
    82d0:	0100 0100 0100 0100 0100 0100 0100 0100     ................
    82e0:	0100 0100 0100 0100 0100 0100 0100 0100     ................
    82f0:	0100 0100 0100 0100 0100 0100 0000 0000     ................
    8300:	0000 000c 0010 0020 0020 0020 0020 0020     ...... . . . . .
    8310:	0020 0020 0020 0020 0020 0040 0180 0040      . . . . .@...@.
    8320:	0020 0020 0020 0020 0020 0020 0020 0020      . . . . . . . .
    8330:	0020 0020 0020 0010 000c 0000 0000 0038      . . .........8.
    8340:	00c4 4086 6102 2200 1c00 0000 0000 0000     ...@.a."........
	...
    837c:	4bc7 3ef7 0000 40a0 3a58 2020 2d20 0000     .K.>...@X:   -..
    838c:	3a58 2020 2020 0000 3a59 2020 2d20 0000     X:    ..Y:   -..
    839c:	3a59 2020 2020 0000 3a5a 2020 2d20 0000     Y:    ..Z:   -..
    83ac:	3a5a 2020 2020 0000 6948 6867 003a 0000     Z:    ..High:...
    83bc:	7250 7365 003a 0000 6425 0000 5441 512b     Pres:...%d..AT+Q
    83cc:	544d 5550 4542 3d58 2c30 2c30 2c30 2c30     MTPUBEX=0,0,0,0,
    83dc:	6622 7269 2265 252c 0d73 000a 512b 544d     "fire",%s...+QMT
    83ec:	5550 4542 3a58 3020 302c 302c 0000 0000     PUBEX: 0,0,0....
	...
    8404:	0000 404d af68 ffff adec ffff aefc ffff     ..M@h...........
    8414:	af04 ffff aefc ffff ae1c ffff aefc ffff     ................
    8424:	af04 ffff adec ffff adec ffff ae1c ffff     ................
    8434:	af04 ffff af5e ffff af5e ffff af5e ffff     ....^...^...^...
    8444:	ae1c ffff b4aa ffff b39c ffff b39c ffff     ................
    8454:	b39a ffff b3a2 ffff b3a2 ffff b368 ffff     ............h...
    8464:	b39a ffff b3a2 ffff b368 ffff b3a2 ffff     ........h.......
    8474:	b39a ffff b496 ffff b496 ffff b496 ffff     ................
    8484:	b368 ffff bd78 ffff bc9e ffff bd72 ffff     h...x.......r...
    8494:	bca6 ffff bd72 ffff bc6c ffff bd72 ffff     ....r...l...r...
    84a4:	bca6 ffff bc9e ffff bc9e ffff bc6c ffff     ............l...
    84b4:	bca6 ffff bcac ffff bcac ffff bcac ffff     ................
    84c4:	bc6c ffff bc5e ffff bc5e ffff bd32 ffff     l...^...^...2...
    84d4:	be0e ffff bd32 ffff bc2c ffff bd32 ffff     ....2...,...2...
    84e4:	be0e ffff bc5e ffff bc5e ffff bc2c ffff     ....^...^...,...
    84f4:	be0e ffff bc6c ffff bc6c ffff bc6c ffff     ....l...l...l...
    8504:	bc2c ffff bf74 ffff bec2 ffff bec2 ffff     ,...t...........
    8514:	bec0 ffff bec6 ffff bec6 ffff be96 ffff     ................
    8524:	bec0 ffff bec6 ffff be96 ffff bec6 ffff     ................
    8534:	bec0 ffff bf62 ffff bf62 ffff bf62 ffff     ....b...b...b...
    8544:	be96 ffff                                   ....

00008548 <__clz_tab>:
    8548:	0100 0202 0303 0303 0404 0404 0404 0404     ................
    8558:	0505 0505 0505 0505 0505 0505 0505 0505     ................
    8568:	0606 0606 0606 0606 0606 0606 0606 0606     ................
    8578:	0606 0606 0606 0606 0606 0606 0606 0606     ................
    8588:	0707 0707 0707 0707 0707 0707 0707 0707     ................
    8598:	0707 0707 0707 0707 0707 0707 0707 0707     ................
    85a8:	0707 0707 0707 0707 0707 0707 0707 0707     ................
    85b8:	0707 0707 0707 0707 0707 0707 0707 0707     ................
    85c8:	0808 0808 0808 0808 0808 0808 0808 0808     ................
    85d8:	0808 0808 0808 0808 0808 0808 0808 0808     ................
    85e8:	0808 0808 0808 0808 0808 0808 0808 0808     ................
    85f8:	0808 0808 0808 0808 0808 0808 0808 0808     ................
    8608:	0808 0808 0808 0808 0808 0808 0808 0808     ................
    8618:	0808 0808 0808 0808 0808 0808 0808 0808     ................
    8628:	0808 0808 0808 0808 0808 0808 0808 0808     ................
    8638:	0808 0808 0808 0808 0808 0808 0808 0808     ................

00008648 <__sf_fake_stderr>:
	...

00008668 <__sf_fake_stdin>:
	...

00008688 <__sf_fake_stdout>:
	...
    86a8:	2d23 2b30 0020 0000 6c68 004c 6665 4567     #-0+ ...hlL.efgE
    86b8:	4746 0000 3130 3332 3534 3736 3938 4241     FG..0123456789AB
    86c8:	4443 4645 0000 0000 3130 3332 3534 3736     CDEF....01234567
    86d8:	3938 6261 6463 6665 0000 0000               89abcdef....
