
orienteering.elf:     file format elf32-littleriscv
orienteering.elf
architecture: riscv:rv32, flags 0x00000112:
EXEC_P, HAS_SYMS, D_PAGED
start address 0x00000000

Program Header:
    LOAD off    0x00001000 vaddr 0x00000000 paddr 0x00000000 align 2**12
         filesz 0x00007834 memsz 0x00007834 flags r-x
    LOAD off    0x00009000 vaddr 0x20000000 paddr 0x00007834 align 2**12
         filesz 0x000000b8 memsz 0x000002b8 flags rw-
    LOAD off    0x00009800 vaddr 0x20007800 paddr 0x20007800 align 2**12
         filesz 0x00000000 memsz 0x00000800 flags rw-

Sections:
Idx Name          Size      VMA       LMA       File off  Algn
  0 .init         00000038  00000000  00000000  00001000  2**1
                  CONTENTS, ALLOC, LOAD, READONLY, CODE
  1 .vector       000001c8  00000038  00000038  00001038  2**1
                  CONTENTS, ALLOC, LOAD, READONLY, CODE
  2 .text         00007634  00000200  00000200  00001200  2**3
                  CONTENTS, ALLOC, LOAD, READONLY, CODE
  3 .fini         00000000  00007834  00007834  000090b8  2**0
                  CONTENTS, ALLOC, LOAD, CODE
  4 .dalign       00000000  20000000  20000000  000090b8  2**0
                  CONTENTS
  5 .dlalign      00000000  00007834  00007834  000090b8  2**0
                  CONTENTS
  6 .data         000000b8  20000000  00007834  00009000  2**2
                  CONTENTS, ALLOC, LOAD, DATA
  7 .bss          00000200  200000b8  000078ec  000090b8  2**2
                  ALLOC
  8 .stack        00000800  20007800  20007800  00009800  2**0
                  ALLOC
  9 .debug_info   000183fb  00000000  00000000  000090b8  2**0
                  CONTENTS, READONLY, DEBUGGING
 10 .debug_abbrev 00003d52  00000000  00000000  000214b3  2**0
                  CONTENTS, READONLY, DEBUGGING
 11 .debug_loc    00005dca  00000000  00000000  00025205  2**0
                  CONTENTS, READONLY, DEBUGGING
 12 .debug_aranges 00000b30  00000000  00000000  0002afd0  2**3
                  CONTENTS, READONLY, DEBUGGING
 13 .debug_ranges 00000b08  00000000  00000000  0002bb00  2**3
                  CONTENTS, READONLY, DEBUGGING
 14 .debug_line   00010c08  00000000  00000000  0002c608  2**0
                  CONTENTS, READONLY, DEBUGGING
 15 .debug_str    0000335c  00000000  00000000  0003d210  2**0
                  CONTENTS, READONLY, DEBUGGING
 16 .comment      00000033  00000000  00000000  0004056c  2**0
                  CONTENTS, READONLY
 17 .debug_frame  0000287c  00000000  00000000  000405a0  2**2
                  CONTENTS, READONLY, DEBUGGING
 18 .stab         00000084  00000000  00000000  00042e1c  2**2
                  CONTENTS, READONLY, DEBUGGING
 19 .stabstr      00000117  00000000  00000000  00042ea0  2**0
                  CONTENTS, READONLY, DEBUGGING
SYMBOL TABLE:
00000000 l    d  .init	00000000 .init
00000038 l    d  .vector	00000000 .vector
00000200 l    d  .text	00000000 .text
00007834 l    d  .fini	00000000 .fini
20000000 l    d  .dalign	00000000 .dalign
00007834 l    d  .dlalign	00000000 .dlalign
20000000 l    d  .data	00000000 .data
200000b8 l    d  .bss	00000000 .bss
20007800 l    d  .stack	00000000 .stack
00000000 l    d  .debug_info	00000000 .debug_info
00000000 l    d  .debug_abbrev	00000000 .debug_abbrev
00000000 l    d  .debug_loc	00000000 .debug_loc
00000000 l    d  .debug_aranges	00000000 .debug_aranges
00000000 l    d  .debug_ranges	00000000 .debug_ranges
00000000 l    d  .debug_line	00000000 .debug_line
00000000 l    d  .debug_str	00000000 .debug_str
00000000 l    d  .comment	00000000 .comment
00000000 l    d  .debug_frame	00000000 .debug_frame
00000000 l    d  .stab	00000000 .stab
00000000 l    d  .stabstr	00000000 .stabstr
00000000 l    df *ABS*	00000000 ./Startup/startup_ch32v30x_D8C.o
00000038 l       .vector	00000000 _vector_base
00000000 l    df *ABS*	00000000 IIC.c
00000000 l    df *ABS*	00000000 MPU6050.c
00000000 l    df *ABS*	00000000 RC522.c
000008a2 l     F .text	00000054 M500PcdConfigISOType.part.1
00000000 l    df *ABS*	00000000 SPI.c
00000000 l    df *ABS*	00000000 adc.c
00000000 l    df *ABS*	00000000 beep.c
00000000 l    df *ABS*	00000000 ch32v30x_it.c
00000000 l    df *ABS*	00000000 dht11.c
00000000 l    df *ABS*	00000000 lcd.c
00000000 l    df *ABS*	00000000 main.c
00000000 l    df *ABS*	00000000 system_ch32v30x.c
00000000 l    df *ABS*	00000000 usart.c
20000102 l     O .bss	00000001 ucCnt
200000a8 l     O .data	00000004 curbrk.5226
00000000 l    df *ABS*	00000000 ch32v30x_adc.c
00000000 l    df *ABS*	00000000 ch32v30x_gpio.c
00000000 l    df *ABS*	00000000 ch32v30x_i2c.c
00000000 l    df *ABS*	00000000 ch32v30x_misc.c
00000000 l    df *ABS*	00000000 ch32v30x_rcc.c
20000010 l     O .data	00000010 APBAHBPrescTable
200000ac l     O .data	00000004 ADCPrescTable
00000000 l    df *ABS*	00000000 ch32v30x_spi.c
00000000 l    df *ABS*	00000000 ch32v30x_usart.c
00000000 l    df *ABS*	00000000 debug.c
20000108 l     O .bss	00000002 p_ms
2000010a l     O .bss	00000001 p_us
00000000 l    df *ABS*	00000000 muldf3.c
00000000 l    df *ABS*	00000000 subdf3.c
00000000 l    df *ABS*	00000000 mulsf3.c
00000000 l    df *ABS*	00000000 fixunssfsi.c
00000000 l    df *ABS*	00000000 floatunsisf.c
00000000 l    df *ABS*	00000000 extendsfdf2.c
00000000 l    df *ABS*	00000000 truncdfsf2.c
00000000 l    df *ABS*	00000000 libgcc2.c
00000000 l    df *ABS*	00000000 memcpy.c
00000000 l    df *ABS*	00000000 printf.c
00000000 l    df *ABS*	00000000 puts.c
00000000 l    df *ABS*	00000000 strstr.c
00000000 l    df *ABS*	00000000 wbuf.c
00000000 l    df *ABS*	00000000 wsetup.c
00000000 l    df *ABS*	00000000 fflush.c
00000000 l    df *ABS*	00000000 findfp.c
000048f0 l     F .text	00000066 std
00000000 l    df *ABS*	00000000 fwalk.c
00000000 l    df *ABS*	00000000 makebuf.c
00000000 l    df *ABS*	00000000 nano-mallocr.c
00000000 l    df *ABS*	00000000 nano-mallocr.c
00000000 l    df *ABS*	00000000 nano-vfprintf.c
00004d82 l     F .text	00000028 __sfputc_r
00000000 l    df *ABS*	00000000 nano-vfprintf_i.c
00000000 l    df *ABS*	00000000 sbrkr.c
00000000 l    df *ABS*	00000000 stdio.c
00000000 l    df *ABS*	00000000 writer.c
00000000 l    df *ABS*	00000000 closer.c
00000000 l    df *ABS*	00000000 fstatr.c
00000000 l    df *ABS*	00000000 isattyr.c
00000000 l    df *ABS*	00000000 lseekr.c
00000000 l    df *ABS*	00000000 memchr.c
00000000 l    df *ABS*	00000000 mlock.c
00000000 l    df *ABS*	00000000 readr.c
00000000 l    df *ABS*	00000000 close.c
00000000 l    df *ABS*	00000000 fstat.c
00000000 l    df *ABS*	00000000 isatty.c
00000000 l    df *ABS*	00000000 lseek.c
00000000 l    df *ABS*	00000000 read.c
00000000 l    df *ABS*	00000000 libgcc2.c
00000000 l    df *ABS*	00000000 impure.c
20000020 l     O .data	00000060 impure_data
00000000 l    df *ABS*	00000000 reent.c
000024ca  w      .text	00000000 EXTI2_IRQHandler
00002514  w      .text	00000000 TIM8_TRG_COM_IRQHandler
00002516  w      .text	00000000 TIM8_CC_IRQHandler
000014dc g     F .text	00000036 DHT11_Init
00005576 g     F .text	00000028 _isatty_r
00000d5a g     F .text	0000005a ShowID
00001a52 g     F .text	000000e6 LCD_ShowChar
00001a3a g     F .text	00000018 LCD_DrawPoint
000006ac g     F .text	0000008e MPU_Init
0000448e g     F .text	000000d4 _puts_r
0000138a g     F .text	0000002e DHT11_IO_IN
0000559e g     F .text	0000002c _lseek_r
0000254c  w      .text	00000000 UART8_IRQHandler
00001d1e g     F .text	00000256 Acquire_SensorDATE
0000444e g     F .text	00000040 printf
20000880 g       .data	00000000 __global_pointer$
00000208 g     F .text	00000028 .hidden __riscv_save_8
000024f0  w      .text	00000000 TIM1_CC_IRQHandler
00002c08 g     F .text	00000008 I2C_ReceiveData
000054c0 g     F .text	00000030 __sseek
000049a6 g     F .text	0000006c __sinit
00002f50 g     F .text	00000004 SPI_I2S_SendData
000045a2 g     F .text	000000bc __swbuf_r
000012f2 g     F .text	00000002 HardFault_Handler
00004960 g     F .text	00000046 __sfmoreglue
20000114 g     O .bss	00000010 DATA
000055e4 g     F .text	00000002 __malloc_unlock
00000254 g     F .text	0000000c .hidden __riscv_restore_3
00002526  w      .text	00000000 TIM6_IRQHandler
000024b6  w      .text	00000000 SysTick_Handler
000026b2 g     F .text	0000000a ADC_StartCalibration
00002c70 g     F .text	000000a6 NVIC_Init
20000080 g     O .data	00000006 KEY_A
000024bc  w      .text	00000000 PVD_IRQHandler
0000251c  w      .text	00000000 SDIO_IRQHandler
0000254e  w      .text	00000000 TIM9_BRK_IRQHandler
000004a0 g     F .text	00000040 MPU_Get_Gyroscope
000010ec g     F .text	000000b6 SPI2_Init
00000240 g     F .text	00000020 .hidden __riscv_restore_10
00005df4 g     O .text	000017c0 ascii_3216
00002f54 g     F .text	00000004 SPI_I2S_ReceiveData
00002562  w      .text	00000000 DMA2_Channel8_IRQHandler
000012ee g     F .text	00000004 NMI_Handler
2000009c g     O .data	00000004 card_3
0000086a g     F .text	00000022 ClearBitMask
0000253c  w      .text	00000000 CAN2_RX1_IRQHandler
000024cc  w      .text	00000000 EXTI3_IRQHandler
00000208 g     F .text	00000028 .hidden __riscv_save_11
00001460 g     F .text	00000032 DHT11_Rst
00000d08 g     F .text	00000052 PcdRead
20000250 g     O .bss	00000064 ucRxData
000015ee g     F .text	00000062 spi_readwrite
00002544  w      .text	00000000 USBHS_IRQHandler
200000e4 g     O .bss	00000004 gyroz
200000c2 g     O .bss	00000001 card2_bit
0000307a g     F .text	0000000a USART_GetFlagStatus
00002564  w      .text	00000000 DMA2_Channel9_IRQHandler
0000554c g     F .text	0000002a _fstat_r
0000255c  w      .text	00000000 TIM10_CC_IRQHandler
200002b4 g     O .bss	00000004 errno
200000b8 g       .bss	00000000 _sbss
00000800 g       *ABS*	00000000 __stack_size
000027ae g     F .text	0000000a ADC_GetFlagStatus
000016b8 g     F .text	00000030 LCD_WR_REG
00000254 g     F .text	0000000c .hidden __riscv_restore_2
00000aaa g     F .text	00000046 PcdRequest
00001492 g     F .text	0000004a DHT11_Read_Data
0000439c g     F .text	000000b2 memcpy
200001ec g     O .bss	00000064 RxBuffer3
00002690 g     F .text	00000010 ADC_Cmd
00004956 g     F .text	0000000a _cleanup_r
000029d6 g     F .text	000000d6 GPIO_PinRemapConfig
000024c6  w      .text	00000000 EXTI0_IRQHandler
000024fc  w      .text	00000000 I2C2_EV_IRQHandler
0000255a  w      .text	00000000 TIM10_TRG_COM_IRQHandler
200000c6 g     O .bss	00000002 Calibrattion_Val
00004562 g     F .text	0000000c puts
200000a4 g     O .data	00000004 SystemCoreClock
00003072 g     F .text	00000008 USART_ReceiveData
000009a2 g     F .text	00000108 PcdComMF522
0000561e g     F .text	0000000c _fstat
000022ca g     F .text	000000bc USART3_Init
00000038 g       .init	00000000 _einit
00002e9e g     F .text	0000001e RCC_APB2PeriphClockCmd
00000200 g     F .text	00000030 .hidden __riscv_save_12
0000253e  w      .text	00000000 CAN2_SCE_IRQHandler
000024de  w      .text	00000000 ADC1_2_IRQHandler
20000103 g     O .bss	00000001 ucRxFinish
00002904 g     F .text	000000c0 GPIO_Init
00002d16 g     F .text	00000012 RCC_ADCCLKConfig
000024b4  w      .text	00000000 Break_Point_Handler
00000240 g     F .text	00000020 .hidden __riscv_restore_11
20000104 g     O .bss	00000004 NVIC_Priority_Group
00002500  w      .text	00000000 SPI1_IRQHandler
000026a0 g     F .text	0000000a ADC_ResetCalibration
0000301e g     F .text	00000016 USART_Cmd
00005422 g     F .text	0000002a _sbrk_r
000024be  w      .text	00000000 TAMPER_IRQHandler
00000230 g     F .text	0000000c .hidden __riscv_save_1
20000000 g     O .data	00000010 DATA1
00000254 g     F .text	0000000c .hidden __riscv_restore_0
20000098 g     O .data	00000004 card_2
000055e6 g     F .text	0000002c _read_r
00000216 g     F .text	0000001a .hidden __riscv_save_7
000030c0 g     F .text	00000014 USART_ClearITPendingBit
0000253a  w      .text	00000000 CAN2_RX0_IRQHandler
00004118 g     F .text	000000ac .hidden __extendsfdf2
00002512  w      .text	00000000 TIM8_UP_IRQHandler
00001c3e g     F .text	000000e0 read_max30102
200000f4 g     O .bss	00000004 temp
200000f8 g     O .bss	00000001 temperature
00002ebc g     F .text	0000001e RCC_APB1PeriphClockCmd
000007ea g     F .text	00000034 ReadRawRC
000024b0  w      .text	00000000 Ecall_M_Mode_Handler
00002420 g     F .text	00000036 Uart3_SendStr
20007800 g       .stack	00000000 _heap_end
200000d8 g     O .bss	00000004 adcx
0000562a g     F .text	0000000c _isatty
00003128 g     F .text	0000000c Delay_Us
200000b4 g     O .data	00000004 _global_impure_ptr
0000024a g     F .text	00000016 .hidden __riscv_restore_5
00002f58 g     F .text	0000000a SPI_I2S_GetFlagStatus
0000252c  w      .text	00000000 DMA2_Channel2_IRQHandler
000024d6  w      .text	00000000 DMA1_Channel4_IRQHandler
000026dc g     F .text	000000b8 ADC_RegularChannelConfig
00002c04 g     F .text	00000004 I2C_SendData
00002126 g     F .text	00000026 _sbrk
00002794 g     F .text	00000008 ADC_GetConversionValue
00002aac g     F .text	000000f2 I2C_Init
00002550  w      .text	00000000 TIM9_UP_IRQHandler
0000024a g     F .text	00000016 .hidden __riscv_restore_6
00002386 g     F .text	0000003a USART3_IRQHandler
000024c0  w      .text	00000000 RTC_IRQHandler
000026bc g     F .text	00000008 ADC_GetCalibrationStatus
200002b8 g       .bss	00000000 _ebss
00003084 g     F .text	0000003c USART_GetITStatus
000024dc  w      .text	00000000 DMA1_Channel7_IRQHandler
000026c4 g     F .text	00000018 ADC_SoftwareStartConvCmd
00001368 g     F .text	00000022 DHT11_Read_Byte
000026aa g     F .text	00000008 ADC_GetResetCalibrationStatus
20000101 g     O .bss	00000001 Rxcouter3
000024e4  w      .text	00000000 CAN1_RX1_IRQHandler
000030d4 g     F .text	00000026 Delay_Init
00002546  w      .text	00000000 DVP_IRQHandler
00002524  w      .text	00000000 UART5_IRQHandler
00001680 g     F .text	00000038 LCD_WR_DATA
00000af0 g     F .text	00000068 PcdAnticoll
00001512 g     F .text	000000dc SPI_LCD_Init
000029ce g     F .text	00000004 GPIO_SetBits
000024f6  w      .text	00000000 TIM4_IRQHandler
00000db4 g     F .text	00000338 RC522_Handle
00000c1e g     F .text	00000060 PcdAuthState
00000208 g     F .text	00000028 .hidden __riscv_save_9
0000279c g     F .text	00000012 ADC_AutoInjectedConvCmd
0000252a  w      .text	00000000 DMA2_Channel1_IRQHandler
00000c7e g     F .text	0000008a PcdWrite
20000090 g     O .data	00000004 card_0
200000c0 g     O .bss	00000001 card0_bit
00002bb6 g     F .text	0000001a I2C_GenerateSTART
00007798 g     O .text	00000020 __sf_fake_stderr
00000216 g     F .text	0000001a .hidden __riscv_save_4
00001c04 g     F .text	0000003a max30102_Init
000008f6 g     F .text	00000084 PcdReset
000024f8  w      .text	00000000 I2C1_EV_IRQHandler
200000e9 g     O .bss	00000001 humidity
20000100 g     O .bss	00000001 Rxcouter2
20000124 g     O .bss	000000c8 RxBuffer2
200000ec g     O .bss	00000004 i
00002d28 g     F .text	00000176 RCC_GetClocksFreq
00000bb8 g     F .text	00000066 PcdSelect
000005b0 g     F .text	000000fc MPU_Read_Byte
000024da  w      .text	00000000 DMA1_Channel6_IRQHandler
0000432e g     F .text	0000006e .hidden __clzsi2
00004daa g     F .text	00000042 __sfputs_r
200000c3 g     O .bss	00000001 card3_bit
00002522  w      .text	00000000 UART4_IRQHandler
00002530  w      .text	00000000 DMA2_Channel4_IRQHandler
000055ca g     F .text	00000018 memchr
00002f62 g     F .text	000000bc USART_Init
00004c06 g     F .text	000000a8 _free_r
0000081e g     F .text	00000030 WriteRawRC
000024f4  w      .text	00000000 TIM3_IRQHandler
000024c4  w      .text	00000000 RCC_IRQHandler
00000230 g     F .text	0000000c .hidden __riscv_save_3
0000214c g     F .text	000000a2 USART1_Init
000024ee  w      .text	00000000 TIM1_TRG_COM_IRQHandler
000024d0  w      .text	00000000 DMA1_Channel1_IRQHandler
00000000 g       .init	00000000 _start
00002560  w      .text	00000000 DMA2_Channel7_IRQHandler
0000456e g     F .text	00000034 strstr
00002c38 g     F .text	00000032 I2C_GetFlagStatus
00001b70 g     F .text	00000094 LCD_ShowIntNum
00005636 g     F .text	0000000c _lseek
0000250a  w      .text	00000000 EXTI15_10_IRQHandler
0000142e g     F .text	00000032 DHT11_IO_OUT
00003034 g     F .text	00000036 USART_ITConfig
200000fc g     O .bss	00000004 wind
0000073a g     F .text	0000005a SPI_RC522_SendByte
20000088 g     O .data	00000006 KEY_B
00002b9e g     F .text	00000018 I2C_Cmd
000029d2 g     F .text	00000004 GPIO_ResetBits
00002528  w      .text	00000000 TIM7_IRQHandler
00005524 g     F .text	00000028 _close_r
00000b58 g     F .text	00000060 CalulateCRC
00002538  w      .text	00000000 CAN2_TX_IRQHandler
20000000 g       .dalign	00000000 _data_vma
0000251e  w      .text	00000000 TIM5_IRQHandler
0000465e g     F .text	000000fc __swsetup_r
000024e8  w      .text	00000000 EXTI9_5_IRQHandler
00004a12 g     F .text	000000a0 __sfp
200000f0 g     O .bss	00000001 sp02
0000316e g     F .text	000004b8 .hidden __muldf3
00000208 g     F .text	00000028 .hidden __riscv_save_10
0000544c g     F .text	0000002c __sread
000030fa g     F .text	0000002e delay_us
00002c10 g     F .text	00000012 I2C_Send7bitAddress
00002536  w      .text	00000000 ETH_WKUP_IRQHandler
2000008e g     O .data	00000001 addr
000055e2 g     F .text	00000002 __malloc_lock
0000024a g     F .text	00000016 .hidden __riscv_restore_4
00000240 g     F .text	00000020 .hidden __riscv_restore_8
200000b8 g     O .bss	00000002 CT
0000488a g     F .text	00000066 _fflush_r
00000216 g     F .text	0000001a .hidden __riscv_save_6
00002502  w      .text	00000000 SPI2_IRQHandler
00001650 g     F .text	00000030 LCD_WR_DATA8
000077b8 g     O .text	00000020 __sf_fake_stdin
0000173c g     F .text	000002bc LCD_Init
00000260 g     F .text	000000a8 memset
00000240 g     F .text	00000020 .hidden __riscv_restore_9
0000088c g     F .text	00000016 PcdAntennaOn
0000024a g     F .text	00000016 .hidden __riscv_restore_7
00001f74 g     F .text	0000007a main
00003162 g     F .text	0000000c delay_ms
000013b8 g     F .text	00000076 DHT11_Check
00002556  w      .text	00000000 TIM10_BRK_IRQHandler
000004e0 g     F .text	000000d0 MPU_Write_Byte
00002554  w      .text	00000000 TIM9_CC_IRQHandler
000054f0 g     F .text	00000006 __sclose
00002532  w      .text	00000000 DMA2_Channel5_IRQHandler
00000308 g     F .text	00000086 IIC_Init
000041c4 g     F .text	0000016a .hidden __truncdfsf2
00004cae g     F .text	000000d4 _malloc_r
000027d0 g     F .text	00000134 Get_CalibrationValue
000024d8  w      .text	00000000 DMA1_Channel5_IRQHandler
200000c1 g     O .bss	00000001 card1_bit
000024ce  w      .text	00000000 EXTI4_IRQHandler
00003134 g     F .text	0000002e Delay_Ms
000024e2  w      .text	00000000 USB_LP_CAN1_RX0_IRQHandler
00003d64 g     F .text	00000290 .hidden __mulsf3
200000d0 g     O .bss	00000005 SPO2
000027b8 g     F .text	00000018 ADC_BufferCmd
00002f36 g     F .text	0000001a SPI_Cmd
00001fee g     F .text	000000fa SystemInit
00002518  w      .text	00000000 RNG_IRQHandler
000019f8 g     F .text	00000042 LCD_Fill
0000444e g     F .text	00000040 iprintf
000024e0  w      .text	00000000 USB_HP_CAN1_TX_IRQHandler
00007698 g     O .text	00000100 .hidden __clz_tab
00000000 g       .init	00000000 _sinit
000054f6 g     F .text	0000002e _write_r
000024d4  w      .text	00000000 DMA1_Channel3_IRQHandler
000016e8 g     F .text	00000054 LCD_Address_Set
0000251a  w      .text	00000000 FSMC_IRQHandler
200000bc g     O .bss	00000004 SN
00005804 g     O .text	000005f0 ascii_1608
00002534  w      .text	00000000 ETH_IRQHandler
00005074 g     F .text	0000010c _printf_common
200000b0 g     O .data	00000004 _impure_ptr
00001284 g     F .text	00000030 Get_ADC_Val
000011a2 g     F .text	000000e2 ADC_Function_Init
000024ec  w      .text	00000000 TIM1_UP_IRQHandler
0000475a g     F .text	00000130 __sflush_r
000024ba  w      .text	00000000 WWDG_IRQHandler
00002542  w      .text	00000000 USBHSWakeup_IRQHandler
00002568  w      .text	00000000 DMA2_Channel11_IRQHandler
200000a0 g     O .data	00000004 card_4
000024b2  w      .text	00000000 Ecall_U_Mode_Handler
0000038e g     F .text	00000112 MPU_Read_Len
0000255e  w      .text	00000000 DMA2_Channel6_IRQHandler
000024f2  w      .text	00000000 TIM2_IRQHandler
20008000 g       .stack	00000000 _eusrstack
00000230 g     F .text	0000000c .hidden __riscv_save_2
000024b8  w      .text	00000000 SW_Handler
200000e8 g     O .bss	00000001 hr
000025f4 g     F .text	00000046 ADC_DeInit
000024ea  w      .text	00000000 TIM1_BRK_IRQHandler
00004b1c g     F .text	00000058 __swhatbuf_r
0000263a g     F .text	00000056 ADC_Init
0000306a g     F .text	00000008 USART_SendData
00002566  w      .text	00000000 DMA2_Channel10_IRQHandler
000024c8  w      .text	00000000 EXTI1_IRQHandler
000021ee g     F .text	000000a2 USART2_Init
00000216 g     F .text	0000001a .hidden __riscv_save_5
000020e8 g     F .text	0000003e _write
200000b8 g       .data	00000000 _edata
0000097a g     F .text	00000028 RC522_Init
200002b8 g       .bss	00000000 _end
0000084e g     F .text	0000001c SetBitMask
0000250c  w      .text	00000000 RTCAlarm_IRQHandler
00007834 g       .dlalign	00000000 _data_lma
00002558  w      .text	00000000 TIM10_UP_IRQHandler
00002552  w      .text	00000000 TIM9_TRG_COM_IRQHandler
0000254a  w      .text	00000000 UART7_IRQHandler
00002290 g     F .text	0000003a USART2_IRQHandler
00002548  w      .text	00000000 UART6_IRQHandler
00005478 g     F .text	00000048 __swrite
00002456 g     F .text	00000056 Clear_Buffer
00004dec g     F .text	00000288 _vfiprintf_r
00004ab2 g     F .text	0000006a _fwalk_reent
0000404a g     F .text	000000ce .hidden __floatunsisf
00000794 g     F .text	00000056 SPI_RC522_ReadByte
000024fe  w      .text	00000000 I2C2_ER_IRQHandler
000024d2  w      .text	00000000 DMA1_Channel2_IRQHandler
000077d8 g     O .text	00000020 __sf_fake_stdout
0000023c g     F .text	00000024 .hidden __riscv_restore_12
00002510  w      .text	00000000 TIM8_BRK_IRQHandler
00005642 g     F .text	0000000c _read
0000256a  w      .text	00000000 handle_reset
000024e6  w      .text	00000000 CAN1_SCE_IRQHandler
00003ff4 g     F .text	00000056 .hidden __fixunssfsi
000024c2  w      .text	00000000 FLASH_IRQHandler
00000230 g     F .text	0000000c .hidden __riscv_save_0
00001b38 g     F .text	00000038 LCD_ShowString
20000094 g     O .data	00000004 card_1
000012f4 g     F .text	00000074 DHT11_Read_Bit
200000dc g     O .bss	00000004 gyrox
000023c0 g     F .text	00000060 USART1_IRQHandler
00004b74 g     F .text	00000092 __smakebuf_r
00002bea g     F .text	0000001a I2C_AcknowledgeConfig
00002540  w      .text	00000000 OTG_FS_IRQHandler
00005180 g     F .text	000002a2 _printf_i
00002520  w      .text	00000000 SPI3_IRQHandler
200000c8 g     O .bss	00000005 HR
20000110 g     O .bss	00000004 __malloc_sbrk_start
00002c22 g     F .text	00000016 I2C_CheckEvent
00002eda g     F .text	0000001e RCC_APB2PeriphResetCmd
00002bd0 g     F .text	0000001a I2C_GenerateSTOP
000024fa  w      .text	00000000 I2C1_ER_IRQHandler
00002ef8 g     F .text	0000003e SPI_Init
00002c6a g     F .text	00000006 NVIC_PriorityGroupConfig
2000010c g     O .bss	00000004 __malloc_free_list
00000254 g     F .text	0000000c .hidden __riscv_restore_1
200000c4 g     O .bss	00000001 card4_bit
00003626 g     F .text	0000073e .hidden __subdf3
00004dec g     F .text	00000288 _vfprintf_r
000029c4 g     F .text	0000000a GPIO_ReadInputDataBit
200000c5 g     O .bss	00000001 status
000012b4 g     F .text	0000003a BEEP_Init
0000250e  w      .text	00000000 USBWakeUp_IRQHandler
00005612 g     F .text	0000000c _close
0000252e  w      .text	00000000 DMA2_Channel3_IRQHandler
200000e0 g     O .bss	00000004 gyroy



Disassembly of section .init:

00000000 <_sinit>:
   0:	56a0206f          	j	256a <handle_reset>
   4:	00000013          	nop
   8:	00000013          	nop
   c:	00000013          	nop
  10:	00000013          	nop
  14:	00000013          	nop
  18:	00000013          	nop
  1c:	00000013          	nop
  20:	00000013          	nop
  24:	00000013          	nop
  28:	00000013          	nop
  2c:	00000013          	nop
  30:	00000013          	nop
  34:	00100073          	ebreak

Disassembly of section .vector:

00000038 <_vector_base>:
	...
  40:	12ee                	slli	t0,t0,0x3b
  42:	0000                	unimp
  44:	12f2                	slli	t0,t0,0x3c
  46:	0000                	unimp
  48:	0000                	unimp
  4a:	0000                	unimp
  4c:	24b0                	lbu	a2,10(s1)
	...
  56:	0000                	unimp
  58:	24b2                	lhu	a2,10(s1)
  5a:	0000                	unimp
  5c:	24b4                	lbu	a3,10(s1)
	...
  66:	0000                	unimp
  68:	24b6                	lhu	a3,10(s1)
  6a:	0000                	unimp
  6c:	0000                	unimp
  6e:	0000                	unimp
  70:	24b8                	lbu	a4,10(s1)
  72:	0000                	unimp
  74:	0000                	unimp
  76:	0000                	unimp
  78:	24ba                	lhu	a4,10(s1)
  7a:	0000                	unimp
  7c:	24bc                	lbu	a5,10(s1)
  7e:	0000                	unimp
  80:	24be                	lhu	a5,10(s1)
  82:	0000                	unimp
  84:	24c0                	lbu	s0,12(s1)
  86:	0000                	unimp
  88:	24c2                	lhu	s0,12(s1)
  8a:	0000                	unimp
  8c:	24c4                	lbu	s1,12(s1)
  8e:	0000                	unimp
  90:	24c6                	lhu	s1,12(s1)
  92:	0000                	unimp
  94:	24c8                	lbu	a0,12(s1)
  96:	0000                	unimp
  98:	24ca                	lhu	a0,12(s1)
  9a:	0000                	unimp
  9c:	24cc                	lbu	a1,12(s1)
  9e:	0000                	unimp
  a0:	24ce                	lhu	a1,12(s1)
  a2:	0000                	unimp
  a4:	24d0                	lbu	a2,12(s1)
  a6:	0000                	unimp
  a8:	24d2                	lhu	a2,12(s1)
  aa:	0000                	unimp
  ac:	24d4                	lbu	a3,12(s1)
  ae:	0000                	unimp
  b0:	24d6                	lhu	a3,12(s1)
  b2:	0000                	unimp
  b4:	24d8                	lbu	a4,12(s1)
  b6:	0000                	unimp
  b8:	24da                	lhu	a4,12(s1)
  ba:	0000                	unimp
  bc:	24dc                	lbu	a5,12(s1)
  be:	0000                	unimp
  c0:	24de                	lhu	a5,12(s1)
  c2:	0000                	unimp
  c4:	24e0                	lbu	s0,14(s1)
  c6:	0000                	unimp
  c8:	24e2                	lhu	s0,14(s1)
  ca:	0000                	unimp
  cc:	24e4                	lbu	s1,14(s1)
  ce:	0000                	unimp
  d0:	24e6                	lhu	s1,14(s1)
  d2:	0000                	unimp
  d4:	24e8                	lbu	a0,14(s1)
  d6:	0000                	unimp
  d8:	24ea                	lhu	a0,14(s1)
  da:	0000                	unimp
  dc:	24ec                	lbu	a1,14(s1)
  de:	0000                	unimp
  e0:	24ee                	lhu	a1,14(s1)
  e2:	0000                	unimp
  e4:	24f0                	lbu	a2,14(s1)
  e6:	0000                	unimp
  e8:	24f2                	lhu	a2,14(s1)
  ea:	0000                	unimp
  ec:	24f4                	lbu	a3,14(s1)
  ee:	0000                	unimp
  f0:	24f6                	lhu	a3,14(s1)
  f2:	0000                	unimp
  f4:	24f8                	lbu	a4,14(s1)
  f6:	0000                	unimp
  f8:	24fa                	lhu	a4,14(s1)
  fa:	0000                	unimp
  fc:	24fc                	lbu	a5,14(s1)
  fe:	0000                	unimp
 100:	24fe                	lhu	a5,14(s1)
 102:	0000                	unimp
 104:	2500                	lbu	s0,8(a0)
 106:	0000                	unimp
 108:	2502                	lhu	s0,8(a0)
 10a:	0000                	unimp
 10c:	23c0                	lbu	s0,4(a5)
 10e:	0000                	unimp
 110:	2290                	lbu	a2,0(a3)
 112:	0000                	unimp
 114:	2386                	lhu	s1,0(a5)
 116:	0000                	unimp
 118:	250a                	lhu	a0,8(a0)
 11a:	0000                	unimp
 11c:	250c                	lbu	a1,8(a0)
 11e:	0000                	unimp
 120:	250e                	lhu	a1,8(a0)
 122:	0000                	unimp
 124:	2510                	lbu	a2,8(a0)
 126:	0000                	unimp
 128:	2512                	lhu	a2,8(a0)
 12a:	0000                	unimp
 12c:	2514                	lbu	a3,8(a0)
 12e:	0000                	unimp
 130:	2516                	lhu	a3,8(a0)
 132:	0000                	unimp
 134:	2518                	lbu	a4,8(a0)
 136:	0000                	unimp
 138:	251a                	lhu	a4,8(a0)
 13a:	0000                	unimp
 13c:	251c                	lbu	a5,8(a0)
 13e:	0000                	unimp
 140:	251e                	lhu	a5,8(a0)
 142:	0000                	unimp
 144:	2520                	lbu	s0,10(a0)
 146:	0000                	unimp
 148:	2522                	lhu	s0,10(a0)
 14a:	0000                	unimp
 14c:	2524                	lbu	s1,10(a0)
 14e:	0000                	unimp
 150:	2526                	lhu	s1,10(a0)
 152:	0000                	unimp
 154:	2528                	lbu	a0,10(a0)
 156:	0000                	unimp
 158:	252a                	lhu	a0,10(a0)
 15a:	0000                	unimp
 15c:	252c                	lbu	a1,10(a0)
 15e:	0000                	unimp
 160:	252e                	lhu	a1,10(a0)
 162:	0000                	unimp
 164:	2530                	lbu	a2,10(a0)
 166:	0000                	unimp
 168:	2532                	lhu	a2,10(a0)
 16a:	0000                	unimp
 16c:	2534                	lbu	a3,10(a0)
 16e:	0000                	unimp
 170:	2536                	lhu	a3,10(a0)
 172:	0000                	unimp
 174:	2538                	lbu	a4,10(a0)
 176:	0000                	unimp
 178:	253a                	lhu	a4,10(a0)
 17a:	0000                	unimp
 17c:	253c                	lbu	a5,10(a0)
 17e:	0000                	unimp
 180:	253e                	lhu	a5,10(a0)
 182:	0000                	unimp
 184:	2540                	lbu	s0,12(a0)
 186:	0000                	unimp
 188:	2542                	lhu	s0,12(a0)
 18a:	0000                	unimp
 18c:	2544                	lbu	s1,12(a0)
 18e:	0000                	unimp
 190:	2546                	lhu	s1,12(a0)
 192:	0000                	unimp
 194:	2548                	lbu	a0,12(a0)
 196:	0000                	unimp
 198:	254a                	lhu	a0,12(a0)
 19a:	0000                	unimp
 19c:	254c                	lbu	a1,12(a0)
 19e:	0000                	unimp
 1a0:	254e                	lhu	a1,12(a0)
 1a2:	0000                	unimp
 1a4:	2550                	lbu	a2,12(a0)
 1a6:	0000                	unimp
 1a8:	2552                	lhu	a2,12(a0)
 1aa:	0000                	unimp
 1ac:	2554                	lbu	a3,12(a0)
 1ae:	0000                	unimp
 1b0:	2556                	lhu	a3,12(a0)
 1b2:	0000                	unimp
 1b4:	2558                	lbu	a4,12(a0)
 1b6:	0000                	unimp
 1b8:	255a                	lhu	a4,12(a0)
 1ba:	0000                	unimp
 1bc:	255c                	lbu	a5,12(a0)
 1be:	0000                	unimp
 1c0:	255e                	lhu	a5,12(a0)
 1c2:	0000                	unimp
 1c4:	2560                	lbu	s0,14(a0)
 1c6:	0000                	unimp
 1c8:	2562                	lhu	s0,14(a0)
 1ca:	0000                	unimp
 1cc:	2564                	lbu	s1,14(a0)
 1ce:	0000                	unimp
 1d0:	2566                	lhu	s1,14(a0)
 1d2:	0000                	unimp
 1d4:	2568                	lbu	a0,14(a0)
	...

Disassembly of section .text:

00000200 <__riscv_save_12>:
     200:	7139                	addi	sp,sp,-64
     202:	4301                	li	t1,0
     204:	c66e                	sw	s11,12(sp)
     206:	a019                	j	20c <__riscv_save_10+0x4>

00000208 <__riscv_save_10>:
     208:	7139                	addi	sp,sp,-64
     20a:	5341                	li	t1,-16
     20c:	c86a                	sw	s10,16(sp)
     20e:	ca66                	sw	s9,20(sp)
     210:	cc62                	sw	s8,24(sp)
     212:	ce5e                	sw	s7,28(sp)
     214:	a019                	j	21a <__riscv_save_4+0x4>

00000216 <__riscv_save_4>:
     216:	7139                	addi	sp,sp,-64
     218:	5301                	li	t1,-32
     21a:	d05a                	sw	s6,32(sp)
     21c:	d256                	sw	s5,36(sp)
     21e:	d452                	sw	s4,40(sp)
     220:	d64e                	sw	s3,44(sp)
     222:	d84a                	sw	s2,48(sp)
     224:	da26                	sw	s1,52(sp)
     226:	dc22                	sw	s0,56(sp)
     228:	de06                	sw	ra,60(sp)
     22a:	40610133          	sub	sp,sp,t1
     22e:	8282                	jr	t0

00000230 <__riscv_save_0>:
     230:	1141                	addi	sp,sp,-16
     232:	c04a                	sw	s2,0(sp)
     234:	c226                	sw	s1,4(sp)
     236:	c422                	sw	s0,8(sp)
     238:	c606                	sw	ra,12(sp)
     23a:	8282                	jr	t0

0000023c <__riscv_restore_12>:
     23c:	4db2                	lw	s11,12(sp)
     23e:	0141                	addi	sp,sp,16

00000240 <__riscv_restore_10>:
     240:	4d02                	lw	s10,0(sp)
     242:	4c92                	lw	s9,4(sp)
     244:	4c22                	lw	s8,8(sp)
     246:	4bb2                	lw	s7,12(sp)
     248:	0141                	addi	sp,sp,16

0000024a <__riscv_restore_4>:
     24a:	4b02                	lw	s6,0(sp)
     24c:	4a92                	lw	s5,4(sp)
     24e:	4a22                	lw	s4,8(sp)
     250:	49b2                	lw	s3,12(sp)
     252:	0141                	addi	sp,sp,16

00000254 <__riscv_restore_0>:
     254:	4902                	lw	s2,0(sp)
     256:	4492                	lw	s1,4(sp)
     258:	4422                	lw	s0,8(sp)
     25a:	40b2                	lw	ra,12(sp)
     25c:	0141                	addi	sp,sp,16
     25e:	8082                	ret

00000260 <memset>:
     260:	433d                	li	t1,15
     262:	872a                	mv	a4,a0
     264:	02c37363          	bgeu	t1,a2,28a <memset+0x2a>
     268:	00f77793          	andi	a5,a4,15
     26c:	efbd                	bnez	a5,2ea <memset+0x8a>
     26e:	e5ad                	bnez	a1,2d8 <memset+0x78>
     270:	ff067693          	andi	a3,a2,-16
     274:	8a3d                	andi	a2,a2,15
     276:	96ba                	add	a3,a3,a4
     278:	c30c                	sw	a1,0(a4)
     27a:	c34c                	sw	a1,4(a4)
     27c:	c70c                	sw	a1,8(a4)
     27e:	c74c                	sw	a1,12(a4)
     280:	0741                	addi	a4,a4,16
     282:	fed76be3          	bltu	a4,a3,278 <memset+0x18>
     286:	e211                	bnez	a2,28a <memset+0x2a>
     288:	8082                	ret
     28a:	40c306b3          	sub	a3,t1,a2
     28e:	068a                	slli	a3,a3,0x2
     290:	00000297          	auipc	t0,0x0
     294:	9696                	add	a3,a3,t0
     296:	00a68067          	jr	10(a3)
     29a:	00b70723          	sb	a1,14(a4)
     29e:	00b706a3          	sb	a1,13(a4)
     2a2:	00b70623          	sb	a1,12(a4)
     2a6:	00b705a3          	sb	a1,11(a4)
     2aa:	00b70523          	sb	a1,10(a4)
     2ae:	00b704a3          	sb	a1,9(a4)
     2b2:	00b70423          	sb	a1,8(a4)
     2b6:	00b703a3          	sb	a1,7(a4)
     2ba:	00b70323          	sb	a1,6(a4)
     2be:	00b702a3          	sb	a1,5(a4)
     2c2:	00b70223          	sb	a1,4(a4)
     2c6:	00b701a3          	sb	a1,3(a4)
     2ca:	00b70123          	sb	a1,2(a4)
     2ce:	00b700a3          	sb	a1,1(a4)
     2d2:	00b70023          	sb	a1,0(a4)
     2d6:	8082                	ret
     2d8:	0ff5f593          	andi	a1,a1,255
     2dc:	00859693          	slli	a3,a1,0x8
     2e0:	8dd5                	or	a1,a1,a3
     2e2:	01059693          	slli	a3,a1,0x10
     2e6:	8dd5                	or	a1,a1,a3
     2e8:	b761                	j	270 <memset+0x10>
     2ea:	00279693          	slli	a3,a5,0x2
     2ee:	00000297          	auipc	t0,0x0
     2f2:	9696                	add	a3,a3,t0
     2f4:	8286                	mv	t0,ra
     2f6:	fa8680e7          	jalr	-88(a3)
     2fa:	8096                	mv	ra,t0
     2fc:	17c1                	addi	a5,a5,-16
     2fe:	8f1d                	sub	a4,a4,a5
     300:	963e                	add	a2,a2,a5
     302:	f8c374e3          	bgeu	t1,a2,28a <memset+0x2a>
     306:	b7a5                	j	26e <memset+0xe>

00000308 <IIC_Init>:
     308:	f0fff2ef          	jal	t0,216 <__riscv_save_4>
     30c:	1101                	addi	sp,sp,-32
     30e:	8aaa                	mv	s5,a0
     310:	8a2e                	mv	s4,a1
     312:	4521                	li	a0,8
     314:	4585                	li	a1,1
     316:	389020ef          	jal	ra,2e9e <RCC_APB2PeriphClockCmd>
     31a:	4585                	li	a1,1
     31c:	00400537          	lui	a0,0x400
     320:	39d020ef          	jal	ra,2ebc <RCC_APB1PeriphClockCmd>
     324:	400114b7          	lui	s1,0x40011
     328:	40000413          	li	s0,1024
     32c:	49f1                	li	s3,28
     32e:	490d                	li	s2,3
     330:	004c                	addi	a1,sp,4
     332:	c0048513          	addi	a0,s1,-1024 # 40010c00 <_eusrstack+0x20008c00>
     336:	8260                	sh	s0,4(sp)
     338:	c64e                	sw	s3,12(sp)
     33a:	c44a                	sw	s2,8(sp)
     33c:	5c8020ef          	jal	ra,2904 <GPIO_Init>
     340:	6785                	lui	a5,0x1
     342:	80078793          	addi	a5,a5,-2048 # 800 <__stack_size>
     346:	004c                	addi	a1,sp,4
     348:	c0048513          	addi	a0,s1,-1024
     34c:	827c                	sh	a5,4(sp)
     34e:	c64e                	sw	s3,12(sp)
     350:	c44a                	sw	s2,8(sp)
     352:	5b2020ef          	jal	ra,2904 <GPIO_Init>
     356:	400007b7          	lui	a5,0x40000
     35a:	85e0                	sh	s0,26(sp)
     35c:	40006437          	lui	s0,0x40006
     360:	ca3e                	sw	a5,20(sp)
     362:	080c                	addi	a1,sp,16
     364:	6791                	lui	a5,0x4
     366:	80040513          	addi	a0,s0,-2048 # 40005800 <_eusrstack+0x1fffd800>
     36a:	86fc                	sh	a5,28(sp)
     36c:	c856                	sw	s5,16(sp)
     36e:	01411c23          	sh	s4,24(sp)
     372:	73a020ef          	jal	ra,2aac <I2C_Init>
     376:	80040513          	addi	a0,s0,-2048
     37a:	4585                	li	a1,1
     37c:	023020ef          	jal	ra,2b9e <I2C_Cmd>
     380:	4585                	li	a1,1
     382:	80040513          	addi	a0,s0,-2048
     386:	065020ef          	jal	ra,2bea <I2C_AcknowledgeConfig>
     38a:	6105                	addi	sp,sp,32
     38c:	bd7d                	j	24a <__riscv_restore_4>

0000038e <MPU_Read_Len>:
     38e:	e7bff2ef          	jal	t0,208 <__riscv_save_10>
     392:	400064b7          	lui	s1,0x40006
     396:	842a                	mv	s0,a0
     398:	89ae                	mv	s3,a1
     39a:	80048513          	addi	a0,s1,-2048 # 40005800 <_eusrstack+0x1fffd800>
     39e:	4585                	li	a1,1
     3a0:	8a32                	mv	s4,a2
     3a2:	8ab6                	mv	s5,a3
     3a4:	047020ef          	jal	ra,2bea <I2C_AcknowledgeConfig>
     3a8:	80048513          	addi	a0,s1,-2048
     3ac:	4585                	li	a1,1
     3ae:	000304b7          	lui	s1,0x30
     3b2:	40006937          	lui	s2,0x40006
     3b6:	001020ef          	jal	ra,2bb6 <I2C_GenerateSTART>
     3ba:	0485                	addi	s1,s1,1
     3bc:	80090b13          	addi	s6,s2,-2048 # 40005800 <_eusrstack+0x1fffd800>
     3c0:	85a6                	mv	a1,s1
     3c2:	855a                	mv	a0,s6
     3c4:	05f020ef          	jal	ra,2c22 <I2C_CheckEvent>
     3c8:	dd65                	beqz	a0,3c0 <MPU_Read_Len+0x32>
     3ca:	0406                	slli	s0,s0,0x1
     3cc:	80090513          	addi	a0,s2,-2048
     3d0:	4601                	li	a2,0
     3d2:	0fe47593          	andi	a1,s0,254
     3d6:	00070937          	lui	s2,0x70
     3da:	400064b7          	lui	s1,0x40006
     3de:	033020ef          	jal	ra,2c10 <I2C_Send7bitAddress>
     3e2:	08290913          	addi	s2,s2,130 # 70082 <_data_lma+0x6884e>
     3e6:	80048b13          	addi	s6,s1,-2048 # 40005800 <_eusrstack+0x1fffd800>
     3ea:	85ca                	mv	a1,s2
     3ec:	855a                	mv	a0,s6
     3ee:	035020ef          	jal	ra,2c22 <I2C_CheckEvent>
     3f2:	dd65                	beqz	a0,3ea <MPU_Read_Len+0x5c>
     3f4:	85ce                	mv	a1,s3
     3f6:	80048513          	addi	a0,s1,-2048
     3fa:	00b020ef          	jal	ra,2c04 <I2C_SendData>
     3fe:	80048513          	addi	a0,s1,-2048
     402:	4585                	li	a1,1
     404:	000304b7          	lui	s1,0x30
     408:	40006937          	lui	s2,0x40006
     40c:	7aa020ef          	jal	ra,2bb6 <I2C_GenerateSTART>
     410:	0485                	addi	s1,s1,1
     412:	80090993          	addi	s3,s2,-2048 # 40005800 <_eusrstack+0x1fffd800>
     416:	85a6                	mv	a1,s1
     418:	854e                	mv	a0,s3
     41a:	009020ef          	jal	ra,2c22 <I2C_CheckEvent>
     41e:	dd65                	beqz	a0,416 <MPU_Read_Len+0x88>
     420:	00146593          	ori	a1,s0,1
     424:	4605                	li	a2,1
     426:	0ff5f593          	andi	a1,a1,255
     42a:	80090513          	addi	a0,s2,-2048
     42e:	000304b7          	lui	s1,0x30
     432:	40006437          	lui	s0,0x40006
     436:	7da020ef          	jal	ra,2c10 <I2C_Send7bitAddress>
     43a:	0489                	addi	s1,s1,2
     43c:	80040413          	addi	s0,s0,-2048 # 40005800 <_eusrstack+0x1fffd800>
     440:	85a6                	mv	a1,s1
     442:	8522                	mv	a0,s0
     444:	7de020ef          	jal	ra,2c22 <I2C_CheckEvent>
     448:	dd65                	beqz	a0,440 <MPU_Read_Len+0xb2>
     44a:	400064b7          	lui	s1,0x40006
     44e:	10000937          	lui	s2,0x10000
     452:	80048493          	addi	s1,s1,-2048 # 40005800 <_eusrstack+0x1fffd800>
     456:	4401                	li	s0,0
     458:	04090913          	addi	s2,s2,64 # 10000040 <_data_lma+0xfff880c>
     45c:	ffea0b93          	addi	s7,s4,-2
     460:	89a6                	mv	s3,s1
     462:	01441b63          	bne	s0,s4,478 <MPU_Read_Len+0xea>
     466:	40006537          	lui	a0,0x40006
     46a:	4585                	li	a1,1
     46c:	80050513          	addi	a0,a0,-2048 # 40005800 <_eusrstack+0x1fffd800>
     470:	760020ef          	jal	ra,2bd0 <I2C_GenerateSTOP>
     474:	4501                	li	a0,0
     476:	b3e9                	j	240 <__riscv_restore_10>
     478:	85ca                	mv	a1,s2
     47a:	8526                	mv	a0,s1
     47c:	7bc020ef          	jal	ra,2c38 <I2C_GetFlagStatus>
     480:	d16d                	beqz	a0,462 <MPU_Read_Len+0xd4>
     482:	008a8b33          	add	s6,s5,s0
     486:	01741663          	bne	s0,s7,492 <MPU_Read_Len+0x104>
     48a:	4581                	li	a1,0
     48c:	854e                	mv	a0,s3
     48e:	75c020ef          	jal	ra,2bea <I2C_AcknowledgeConfig>
     492:	854e                	mv	a0,s3
     494:	774020ef          	jal	ra,2c08 <I2C_ReceiveData>
     498:	00ab0023          	sb	a0,0(s6)
     49c:	0405                	addi	s0,s0,1
     49e:	b7d1                	j	462 <MPU_Read_Len+0xd4>

000004a0 <MPU_Get_Gyroscope>:
     4a0:	d91ff2ef          	jal	t0,230 <__riscv_save_0>
     4a4:	1141                	addi	sp,sp,-16
     4a6:	892a                	mv	s2,a0
     4a8:	84ae                	mv	s1,a1
     4aa:	8432                	mv	s0,a2
     4ac:	0034                	addi	a3,sp,8
     4ae:	4619                	li	a2,6
     4b0:	04300593          	li	a1,67
     4b4:	06800513          	li	a0,104
     4b8:	3dd9                	jal	38e <MPU_Read_Len>
     4ba:	e10d                	bnez	a0,4dc <MPU_Get_Gyroscope+0x3c>
     4bc:	841c                	lbu	a5,8(sp)
     4be:	8498                	lbu	a4,9(sp)
     4c0:	07a2                	slli	a5,a5,0x8
     4c2:	8fd9                	or	a5,a5,a4
     4c4:	00f91023          	sh	a5,0(s2)
     4c8:	851c                	lbu	a5,10(sp)
     4ca:	8598                	lbu	a4,11(sp)
     4cc:	07a2                	slli	a5,a5,0x8
     4ce:	8fd9                	or	a5,a5,a4
     4d0:	a09e                	sh	a5,0(s1)
     4d2:	861c                	lbu	a5,12(sp)
     4d4:	8698                	lbu	a4,13(sp)
     4d6:	07a2                	slli	a5,a5,0x8
     4d8:	8fd9                	or	a5,a5,a4
     4da:	a01e                	sh	a5,0(s0)
     4dc:	0141                	addi	sp,sp,16
     4de:	bb9d                	j	254 <__riscv_restore_0>

000004e0 <MPU_Write_Byte>:
     4e0:	d37ff2ef          	jal	t0,216 <__riscv_save_4>
     4e4:	40006437          	lui	s0,0x40006
     4e8:	89aa                	mv	s3,a0
     4ea:	892e                	mv	s2,a1
     4ec:	80040513          	addi	a0,s0,-2048 # 40005800 <_eusrstack+0x1fffd800>
     4f0:	4585                	li	a1,1
     4f2:	6f8020ef          	jal	ra,2bea <I2C_AcknowledgeConfig>
     4f6:	80040513          	addi	a0,s0,-2048
     4fa:	4585                	li	a1,1
     4fc:	00030437          	lui	s0,0x30
     500:	400064b7          	lui	s1,0x40006
     504:	6b2020ef          	jal	ra,2bb6 <I2C_GenerateSTART>
     508:	0405                	addi	s0,s0,1
     50a:	80048a13          	addi	s4,s1,-2048 # 40005800 <_eusrstack+0x1fffd800>
     50e:	85a2                	mv	a1,s0
     510:	8552                	mv	a0,s4
     512:	710020ef          	jal	ra,2c22 <I2C_CheckEvent>
     516:	dd65                	beqz	a0,50e <MPU_Write_Byte+0x2e>
     518:	80048513          	addi	a0,s1,-2048
     51c:	4601                	li	a2,0
     51e:	0d000593          	li	a1,208
     522:	000704b7          	lui	s1,0x70
     526:	40006437          	lui	s0,0x40006
     52a:	6e6020ef          	jal	ra,2c10 <I2C_Send7bitAddress>
     52e:	08248493          	addi	s1,s1,130 # 70082 <_data_lma+0x6884e>
     532:	80040413          	addi	s0,s0,-2048 # 40005800 <_eusrstack+0x1fffd800>
     536:	85a6                	mv	a1,s1
     538:	8522                	mv	a0,s0
     53a:	6e8020ef          	jal	ra,2c22 <I2C_CheckEvent>
     53e:	dd65                	beqz	a0,536 <MPU_Write_Byte+0x56>
     540:	10000437          	lui	s0,0x10000
     544:	400064b7          	lui	s1,0x40006
     548:	08040413          	addi	s0,s0,128 # 10000080 <_data_lma+0xfff884c>
     54c:	80048a13          	addi	s4,s1,-2048 # 40005800 <_eusrstack+0x1fffd800>
     550:	85a2                	mv	a1,s0
     552:	8552                	mv	a0,s4
     554:	6e4020ef          	jal	ra,2c38 <I2C_GetFlagStatus>
     558:	dd65                	beqz	a0,550 <MPU_Write_Byte+0x70>
     55a:	80048513          	addi	a0,s1,-2048
     55e:	85ce                	mv	a1,s3
     560:	000704b7          	lui	s1,0x70
     564:	40006437          	lui	s0,0x40006
     568:	69c020ef          	jal	ra,2c04 <I2C_SendData>
     56c:	08448493          	addi	s1,s1,132 # 70084 <_data_lma+0x68850>
     570:	80040413          	addi	s0,s0,-2048 # 40005800 <_eusrstack+0x1fffd800>
     574:	85a6                	mv	a1,s1
     576:	8522                	mv	a0,s0
     578:	6aa020ef          	jal	ra,2c22 <I2C_CheckEvent>
     57c:	dd65                	beqz	a0,574 <MPU_Write_Byte+0x94>
     57e:	100004b7          	lui	s1,0x10000
     582:	40006437          	lui	s0,0x40006
     586:	08048493          	addi	s1,s1,128 # 10000080 <_data_lma+0xfff884c>
     58a:	80040993          	addi	s3,s0,-2048 # 40005800 <_eusrstack+0x1fffd800>
     58e:	85a6                	mv	a1,s1
     590:	854e                	mv	a0,s3
     592:	6a6020ef          	jal	ra,2c38 <I2C_GetFlagStatus>
     596:	dd65                	beqz	a0,58e <MPU_Write_Byte+0xae>
     598:	85ca                	mv	a1,s2
     59a:	80040513          	addi	a0,s0,-2048
     59e:	666020ef          	jal	ra,2c04 <I2C_SendData>
     5a2:	80040513          	addi	a0,s0,-2048
     5a6:	4585                	li	a1,1
     5a8:	628020ef          	jal	ra,2bd0 <I2C_GenerateSTOP>
     5ac:	4501                	li	a0,0
     5ae:	b971                	j	24a <__riscv_restore_4>

000005b0 <MPU_Read_Byte>:
     5b0:	c67ff2ef          	jal	t0,216 <__riscv_save_4>
     5b4:	40006437          	lui	s0,0x40006
     5b8:	4585                	li	a1,1
     5ba:	892a                	mv	s2,a0
     5bc:	80040513          	addi	a0,s0,-2048 # 40005800 <_eusrstack+0x1fffd800>
     5c0:	62a020ef          	jal	ra,2bea <I2C_AcknowledgeConfig>
     5c4:	80040513          	addi	a0,s0,-2048
     5c8:	4585                	li	a1,1
     5ca:	00030437          	lui	s0,0x30
     5ce:	400064b7          	lui	s1,0x40006
     5d2:	5e4020ef          	jal	ra,2bb6 <I2C_GenerateSTART>
     5d6:	0405                	addi	s0,s0,1
     5d8:	80048993          	addi	s3,s1,-2048 # 40005800 <_eusrstack+0x1fffd800>
     5dc:	85a2                	mv	a1,s0
     5de:	854e                	mv	a0,s3
     5e0:	642020ef          	jal	ra,2c22 <I2C_CheckEvent>
     5e4:	dd65                	beqz	a0,5dc <MPU_Read_Byte+0x2c>
     5e6:	80048513          	addi	a0,s1,-2048
     5ea:	4601                	li	a2,0
     5ec:	0d000593          	li	a1,208
     5f0:	00070437          	lui	s0,0x70
     5f4:	400064b7          	lui	s1,0x40006
     5f8:	618020ef          	jal	ra,2c10 <I2C_Send7bitAddress>
     5fc:	08240413          	addi	s0,s0,130 # 70082 <_data_lma+0x6884e>
     600:	80048993          	addi	s3,s1,-2048 # 40005800 <_eusrstack+0x1fffd800>
     604:	85a2                	mv	a1,s0
     606:	854e                	mv	a0,s3
     608:	61a020ef          	jal	ra,2c22 <I2C_CheckEvent>
     60c:	dd65                	beqz	a0,604 <MPU_Read_Byte+0x54>
     60e:	85ca                	mv	a1,s2
     610:	80048513          	addi	a0,s1,-2048
     614:	00070437          	lui	s0,0x70
     618:	400064b7          	lui	s1,0x40006
     61c:	5e8020ef          	jal	ra,2c04 <I2C_SendData>
     620:	08440413          	addi	s0,s0,132 # 70084 <_data_lma+0x68850>
     624:	80048913          	addi	s2,s1,-2048 # 40005800 <_eusrstack+0x1fffd800>
     628:	85a2                	mv	a1,s0
     62a:	854a                	mv	a0,s2
     62c:	5f6020ef          	jal	ra,2c22 <I2C_CheckEvent>
     630:	dd65                	beqz	a0,628 <MPU_Read_Byte+0x78>
     632:	80048513          	addi	a0,s1,-2048
     636:	4585                	li	a1,1
     638:	00030437          	lui	s0,0x30
     63c:	400064b7          	lui	s1,0x40006
     640:	576020ef          	jal	ra,2bb6 <I2C_GenerateSTART>
     644:	0405                	addi	s0,s0,1
     646:	80048913          	addi	s2,s1,-2048 # 40005800 <_eusrstack+0x1fffd800>
     64a:	85a2                	mv	a1,s0
     64c:	854a                	mv	a0,s2
     64e:	5d4020ef          	jal	ra,2c22 <I2C_CheckEvent>
     652:	dd65                	beqz	a0,64a <MPU_Read_Byte+0x9a>
     654:	80048513          	addi	a0,s1,-2048
     658:	4605                	li	a2,1
     65a:	0d100593          	li	a1,209
     65e:	000304b7          	lui	s1,0x30
     662:	40006437          	lui	s0,0x40006
     666:	5aa020ef          	jal	ra,2c10 <I2C_Send7bitAddress>
     66a:	0489                	addi	s1,s1,2
     66c:	80040413          	addi	s0,s0,-2048 # 40005800 <_eusrstack+0x1fffd800>
     670:	85a6                	mv	a1,s1
     672:	8522                	mv	a0,s0
     674:	5ae020ef          	jal	ra,2c22 <I2C_CheckEvent>
     678:	dd65                	beqz	a0,670 <MPU_Read_Byte+0xc0>
     67a:	100004b7          	lui	s1,0x10000
     67e:	40006437          	lui	s0,0x40006
     682:	04048493          	addi	s1,s1,64 # 10000040 <_data_lma+0xfff880c>
     686:	80040913          	addi	s2,s0,-2048 # 40005800 <_eusrstack+0x1fffd800>
     68a:	85a6                	mv	a1,s1
     68c:	854a                	mv	a0,s2
     68e:	5aa020ef          	jal	ra,2c38 <I2C_GetFlagStatus>
     692:	dd65                	beqz	a0,68a <MPU_Read_Byte+0xda>
     694:	80040513          	addi	a0,s0,-2048
     698:	570020ef          	jal	ra,2c08 <I2C_ReceiveData>
     69c:	84aa                	mv	s1,a0
     69e:	4585                	li	a1,1
     6a0:	80040513          	addi	a0,s0,-2048
     6a4:	52c020ef          	jal	ra,2bd0 <I2C_GenerateSTOP>
     6a8:	8526                	mv	a0,s1
     6aa:	b645                	j	24a <__riscv_restore_4>

000006ac <MPU_Init>:
     6ac:	b85ff2ef          	jal	t0,230 <__riscv_save_0>
     6b0:	6561                	lui	a0,0x18
     6b2:	4589                	li	a1,2
     6b4:	6a050513          	addi	a0,a0,1696 # 186a0 <_data_lma+0x10e6c>
     6b8:	3981                	jal	308 <IIC_Init>
     6ba:	08000593          	li	a1,128
     6be:	06b00513          	li	a0,107
     6c2:	3d39                	jal	4e0 <MPU_Write_Byte>
     6c4:	0c800513          	li	a0,200
     6c8:	26d020ef          	jal	ra,3134 <Delay_Ms>
     6cc:	4581                	li	a1,0
     6ce:	06b00513          	li	a0,107
     6d2:	3539                	jal	4e0 <MPU_Write_Byte>
     6d4:	459d                	li	a1,7
     6d6:	4565                	li	a0,25
     6d8:	3521                	jal	4e0 <MPU_Write_Byte>
     6da:	4599                	li	a1,6
     6dc:	4569                	li	a0,26
     6de:	3509                	jal	4e0 <MPU_Write_Byte>
     6e0:	4585                	li	a1,1
     6e2:	4571                	li	a0,28
     6e4:	3bf5                	jal	4e0 <MPU_Write_Byte>
     6e6:	45e1                	li	a1,24
     6e8:	456d                	li	a0,27
     6ea:	3bdd                	jal	4e0 <MPU_Write_Byte>
     6ec:	4581                	li	a1,0
     6ee:	03800513          	li	a0,56
     6f2:	33fd                	jal	4e0 <MPU_Write_Byte>
     6f4:	4581                	li	a1,0
     6f6:	06a00513          	li	a0,106
     6fa:	33dd                	jal	4e0 <MPU_Write_Byte>
     6fc:	4581                	li	a1,0
     6fe:	02300513          	li	a0,35
     702:	3bf9                	jal	4e0 <MPU_Write_Byte>
     704:	08000593          	li	a1,128
     708:	03700513          	li	a0,55
     70c:	3bd1                	jal	4e0 <MPU_Write_Byte>
     70e:	07500513          	li	a0,117
     712:	3d79                	jal	5b0 <MPU_Read_Byte>
     714:	06800713          	li	a4,104
     718:	4785                	li	a5,1
     71a:	00e51e63          	bne	a0,a4,736 <MPU_Init+0x8a>
     71e:	4585                	li	a1,1
     720:	06b00513          	li	a0,107
     724:	3b75                	jal	4e0 <MPU_Write_Byte>
     726:	4581                	li	a1,0
     728:	06c00513          	li	a0,108
     72c:	3b55                	jal	4e0 <MPU_Write_Byte>
     72e:	459d                	li	a1,7
     730:	4565                	li	a0,25
     732:	337d                	jal	4e0 <MPU_Write_Byte>
     734:	4781                	li	a5,0
     736:	853e                	mv	a0,a5
     738:	be31                	j	254 <__riscv_restore_0>

0000073a <SPI_RC522_SendByte>:
     73a:	af7ff2ef          	jal	t0,230 <__riscv_save_0>
     73e:	40011437          	lui	s0,0x40011
     742:	892a                	mv	s2,a0
     744:	44a1                	li	s1,8
     746:	c0040413          	addi	s0,s0,-1024 # 40010c00 <_eusrstack+0x20008c00>
     74a:	01891793          	slli	a5,s2,0x18
     74e:	87e1                	srai	a5,a5,0x18
     750:	6591                	lui	a1,0x4
     752:	8522                	mv	a0,s0
     754:	0207dd63          	bgez	a5,78e <SPI_RC522_SendByte+0x54>
     758:	276020ef          	jal	ra,29ce <GPIO_SetBits>
     75c:	4551                	li	a0,20
     75e:	1cb020ef          	jal	ra,3128 <Delay_Us>
     762:	6589                	lui	a1,0x2
     764:	8522                	mv	a0,s0
     766:	26c020ef          	jal	ra,29d2 <GPIO_ResetBits>
     76a:	4551                	li	a0,20
     76c:	1bd020ef          	jal	ra,3128 <Delay_Us>
     770:	6589                	lui	a1,0x2
     772:	8522                	mv	a0,s0
     774:	25a020ef          	jal	ra,29ce <GPIO_SetBits>
     778:	14fd                	addi	s1,s1,-1
     77a:	4551                	li	a0,20
     77c:	0906                	slli	s2,s2,0x1
     77e:	0ff4f493          	andi	s1,s1,255
     782:	1a7020ef          	jal	ra,3128 <Delay_Us>
     786:	0ff97913          	andi	s2,s2,255
     78a:	f0e1                	bnez	s1,74a <SPI_RC522_SendByte+0x10>
     78c:	b4e1                	j	254 <__riscv_restore_0>
     78e:	244020ef          	jal	ra,29d2 <GPIO_ResetBits>
     792:	b7e9                	j	75c <SPI_RC522_SendByte+0x22>

00000794 <SPI_RC522_ReadByte>:
     794:	a83ff2ef          	jal	t0,216 <__riscv_save_4>
     798:	40011937          	lui	s2,0x40011
     79c:	44a1                	li	s1,8
     79e:	4401                	li	s0,0
     7a0:	c0090913          	addi	s2,s2,-1024 # 40010c00 <_eusrstack+0x20008c00>
     7a4:	4985                	li	s3,1
     7a6:	6589                	lui	a1,0x2
     7a8:	854a                	mv	a0,s2
     7aa:	228020ef          	jal	ra,29d2 <GPIO_ResetBits>
     7ae:	4551                	li	a0,20
     7b0:	179020ef          	jal	ra,3128 <Delay_Us>
     7b4:	0406                	slli	s0,s0,0x1
     7b6:	65a1                	lui	a1,0x8
     7b8:	854a                	mv	a0,s2
     7ba:	0ff47413          	andi	s0,s0,255
     7be:	206020ef          	jal	ra,29c4 <GPIO_ReadInputDataBit>
     7c2:	01351463          	bne	a0,s3,7ca <SPI_RC522_ReadByte+0x36>
     7c6:	00146413          	ori	s0,s0,1
     7ca:	4551                	li	a0,20
     7cc:	15d020ef          	jal	ra,3128 <Delay_Us>
     7d0:	6589                	lui	a1,0x2
     7d2:	854a                	mv	a0,s2
     7d4:	1fa020ef          	jal	ra,29ce <GPIO_SetBits>
     7d8:	14fd                	addi	s1,s1,-1
     7da:	4551                	li	a0,20
     7dc:	0ff4f493          	andi	s1,s1,255
     7e0:	149020ef          	jal	ra,3128 <Delay_Us>
     7e4:	f0e9                	bnez	s1,7a6 <SPI_RC522_ReadByte+0x12>
     7e6:	8522                	mv	a0,s0
     7e8:	b48d                	j	24a <__riscv_restore_4>

000007ea <ReadRawRC>:
     7ea:	a47ff2ef          	jal	t0,230 <__riscv_save_0>
     7ee:	400114b7          	lui	s1,0x40011
     7f2:	6585                	lui	a1,0x1
     7f4:	842a                	mv	s0,a0
     7f6:	c0048513          	addi	a0,s1,-1024 # 40010c00 <_eusrstack+0x20008c00>
     7fa:	1d8020ef          	jal	ra,29d2 <GPIO_ResetBits>
     7fe:	00141513          	slli	a0,s0,0x1
     802:	07e57513          	andi	a0,a0,126
     806:	08056513          	ori	a0,a0,128
     80a:	3f05                	jal	73a <SPI_RC522_SendByte>
     80c:	3761                	jal	794 <SPI_RC522_ReadByte>
     80e:	842a                	mv	s0,a0
     810:	6585                	lui	a1,0x1
     812:	c0048513          	addi	a0,s1,-1024
     816:	1b8020ef          	jal	ra,29ce <GPIO_SetBits>
     81a:	8522                	mv	a0,s0
     81c:	bc25                	j	254 <__riscv_restore_0>

0000081e <WriteRawRC>:
     81e:	a13ff2ef          	jal	t0,230 <__riscv_save_0>
     822:	400114b7          	lui	s1,0x40011
     826:	842a                	mv	s0,a0
     828:	892e                	mv	s2,a1
     82a:	c0048513          	addi	a0,s1,-1024 # 40010c00 <_eusrstack+0x20008c00>
     82e:	6585                	lui	a1,0x1
     830:	1a2020ef          	jal	ra,29d2 <GPIO_ResetBits>
     834:	00141513          	slli	a0,s0,0x1
     838:	07e57513          	andi	a0,a0,126
     83c:	3dfd                	jal	73a <SPI_RC522_SendByte>
     83e:	854a                	mv	a0,s2
     840:	3ded                	jal	73a <SPI_RC522_SendByte>
     842:	6585                	lui	a1,0x1
     844:	c0048513          	addi	a0,s1,-1024
     848:	186020ef          	jal	ra,29ce <GPIO_SetBits>
     84c:	b421                	j	254 <__riscv_restore_0>

0000084e <SetBitMask>:
     84e:	9e3ff2ef          	jal	t0,230 <__riscv_save_0>
     852:	1141                	addi	sp,sp,-16
     854:	842a                	mv	s0,a0
     856:	c62e                	sw	a1,12(sp)
     858:	3f49                	jal	7ea <ReadRawRC>
     85a:	45b2                	lw	a1,12(sp)
     85c:	8dc9                	or	a1,a1,a0
     85e:	0ff5f593          	andi	a1,a1,255
     862:	8522                	mv	a0,s0
     864:	3f6d                	jal	81e <WriteRawRC>
     866:	0141                	addi	sp,sp,16
     868:	b2f5                	j	254 <__riscv_restore_0>

0000086a <ClearBitMask>:
     86a:	9c7ff2ef          	jal	t0,230 <__riscv_save_0>
     86e:	1141                	addi	sp,sp,-16
     870:	842a                	mv	s0,a0
     872:	c62e                	sw	a1,12(sp)
     874:	3f9d                	jal	7ea <ReadRawRC>
     876:	45b2                	lw	a1,12(sp)
     878:	fff5c593          	not	a1,a1
     87c:	8de9                	and	a1,a1,a0
     87e:	0ff5f593          	andi	a1,a1,255
     882:	8522                	mv	a0,s0
     884:	3f69                	jal	81e <WriteRawRC>
     886:	0141                	addi	sp,sp,16
     888:	9cdff06f          	j	254 <__riscv_restore_0>

0000088c <PcdAntennaOn>:
     88c:	9a5ff2ef          	jal	t0,230 <__riscv_save_0>
     890:	4551                	li	a0,20
     892:	3fa1                	jal	7ea <ReadRawRC>
     894:	890d                	andi	a0,a0,3
     896:	e501                	bnez	a0,89e <PcdAntennaOn+0x12>
     898:	458d                	li	a1,3
     89a:	4551                	li	a0,20
     89c:	3f4d                	jal	84e <SetBitMask>
     89e:	9b7ff06f          	j	254 <__riscv_restore_0>

000008a2 <M500PcdConfigISOType.part.1>:
     8a2:	98fff2ef          	jal	t0,230 <__riscv_save_0>
     8a6:	45a1                	li	a1,8
     8a8:	4521                	li	a0,8
     8aa:	37c1                	jal	86a <ClearBitMask>
     8ac:	03d00593          	li	a1,61
     8b0:	4545                	li	a0,17
     8b2:	37b5                	jal	81e <WriteRawRC>
     8b4:	08600593          	li	a1,134
     8b8:	455d                	li	a0,23
     8ba:	3795                	jal	81e <WriteRawRC>
     8bc:	07f00593          	li	a1,127
     8c0:	02600513          	li	a0,38
     8c4:	3fa9                	jal	81e <WriteRawRC>
     8c6:	45f9                	li	a1,30
     8c8:	02d00513          	li	a0,45
     8cc:	3f89                	jal	81e <WriteRawRC>
     8ce:	4581                	li	a1,0
     8d0:	02c00513          	li	a0,44
     8d4:	37a9                	jal	81e <WriteRawRC>
     8d6:	08d00593          	li	a1,141
     8da:	02a00513          	li	a0,42
     8de:	3781                	jal	81e <WriteRawRC>
     8e0:	03e00593          	li	a1,62
     8e4:	02b00513          	li	a0,43
     8e8:	3f1d                	jal	81e <WriteRawRC>
     8ea:	4509                	li	a0,2
     8ec:	03d020ef          	jal	ra,3128 <Delay_Us>
     8f0:	3f71                	jal	88c <PcdAntennaOn>
     8f2:	963ff06f          	j	254 <__riscv_restore_0>

000008f6 <PcdReset>:
     8f6:	93bff2ef          	jal	t0,230 <__riscv_save_0>
     8fa:	40011437          	lui	s0,0x40011
     8fe:	4585                	li	a1,1
     900:	80040513          	addi	a0,s0,-2048 # 40010800 <_eusrstack+0x20008800>
     904:	0ca020ef          	jal	ra,29ce <GPIO_SetBits>
     908:	4505                	li	a0,1
     90a:	01f020ef          	jal	ra,3128 <Delay_Us>
     90e:	4585                	li	a1,1
     910:	80040513          	addi	a0,s0,-2048
     914:	0be020ef          	jal	ra,29d2 <GPIO_ResetBits>
     918:	4505                	li	a0,1
     91a:	00f020ef          	jal	ra,3128 <Delay_Us>
     91e:	4585                	li	a1,1
     920:	80040513          	addi	a0,s0,-2048
     924:	0aa020ef          	jal	ra,29ce <GPIO_SetBits>
     928:	4505                	li	a0,1
     92a:	7fe020ef          	jal	ra,3128 <Delay_Us>
     92e:	45bd                	li	a1,15
     930:	4505                	li	a0,1
     932:	35f5                	jal	81e <WriteRawRC>
     934:	4505                	li	a0,1
     936:	3d55                	jal	7ea <ReadRawRC>
     938:	8941                	andi	a0,a0,16
     93a:	fd6d                	bnez	a0,934 <PcdReset+0x3e>
     93c:	4505                	li	a0,1
     93e:	7ea020ef          	jal	ra,3128 <Delay_Us>
     942:	03d00593          	li	a1,61
     946:	4545                	li	a0,17
     948:	3dd9                	jal	81e <WriteRawRC>
     94a:	45f9                	li	a1,30
     94c:	02d00513          	li	a0,45
     950:	35f9                	jal	81e <WriteRawRC>
     952:	4581                	li	a1,0
     954:	02c00513          	li	a0,44
     958:	35d9                	jal	81e <WriteRawRC>
     95a:	08d00593          	li	a1,141
     95e:	02a00513          	li	a0,42
     962:	3d75                	jal	81e <WriteRawRC>
     964:	03e00593          	li	a1,62
     968:	02b00513          	li	a0,43
     96c:	3d4d                	jal	81e <WriteRawRC>
     96e:	04000593          	li	a1,64
     972:	4555                	li	a0,21
     974:	356d                	jal	81e <WriteRawRC>
     976:	8dfff06f          	j	254 <__riscv_restore_0>

0000097a <RC522_Init>:
     97a:	8b7ff2ef          	jal	t0,230 <__riscv_save_0>
     97e:	76e000ef          	jal	ra,10ec <SPI2_Init>
     982:	40011437          	lui	s0,0x40011
     986:	80040513          	addi	a0,s0,-2048 # 40010800 <_eusrstack+0x20008800>
     98a:	4585                	li	a1,1
     98c:	042020ef          	jal	ra,29ce <GPIO_SetBits>
     990:	6585                	lui	a1,0x1
     992:	c0040513          	addi	a0,s0,-1024
     996:	038020ef          	jal	ra,29ce <GPIO_SetBits>
     99a:	3fb1                	jal	8f6 <PcdReset>
     99c:	3719                	jal	8a2 <M500PcdConfigISOType.part.1>
     99e:	8b7ff06f          	j	254 <__riscv_restore_0>

000009a2 <PcdComMF522>:
     9a2:	867ff2ef          	jal	t0,208 <__riscv_save_10>
     9a6:	47b1                	li	a5,12
     9a8:	84aa                	mv	s1,a0
     9aa:	8bae                	mv	s7,a1
     9ac:	8b32                	mv	s6,a2
     9ae:	89b6                	mv	s3,a3
     9b0:	8a3a                	mv	s4,a4
     9b2:	0cf50b63          	beq	a0,a5,a88 <PcdComMF522+0xe6>
     9b6:	47b9                	li	a5,14
     9b8:	0cf50d63          	beq	a0,a5,a92 <PcdComMF522+0xf0>
     9bc:	4901                	li	s2,0
     9be:	4401                	li	s0,0
     9c0:	08046593          	ori	a1,s0,128
     9c4:	4509                	li	a0,2
     9c6:	3da1                	jal	81e <WriteRawRC>
     9c8:	08000593          	li	a1,128
     9cc:	4511                	li	a0,4
     9ce:	3d71                	jal	86a <ClearBitMask>
     9d0:	4581                	li	a1,0
     9d2:	4505                	li	a0,1
     9d4:	35a9                	jal	81e <WriteRawRC>
     9d6:	08000593          	li	a1,128
     9da:	4529                	li	a0,10
     9dc:	3d8d                	jal	84e <SetBitMask>
     9de:	4a81                	li	s5,0
     9e0:	0b6aec63          	bltu	s5,s6,a98 <PcdComMF522+0xf6>
     9e4:	85a6                	mv	a1,s1
     9e6:	4505                	li	a0,1
     9e8:	3d1d                	jal	81e <WriteRawRC>
     9ea:	47b1                	li	a5,12
     9ec:	00f49663          	bne	s1,a5,9f8 <PcdComMF522+0x56>
     9f0:	08000593          	li	a1,128
     9f4:	4535                	li	a0,13
     9f6:	3da1                	jal	84e <SetBitMask>
     9f8:	3e800a93          	li	s5,1000
     9fc:	00196913          	ori	s2,s2,1
     a00:	4511                	li	a0,4
     a02:	33e5                	jal	7ea <ReadRawRC>
     a04:	1afd                	addi	s5,s5,-1
     a06:	8b2a                	mv	s6,a0
     a08:	000a8563          	beqz	s5,a12 <PcdComMF522+0x70>
     a0c:	012577b3          	and	a5,a0,s2
     a10:	dbe5                	beqz	a5,a00 <PcdComMF522+0x5e>
     a12:	08000593          	li	a1,128
     a16:	4535                	li	a0,13
     a18:	3d89                	jal	86a <ClearBitMask>
     a1a:	080a8663          	beqz	s5,aa6 <PcdComMF522+0x104>
     a1e:	4519                	li	a0,6
     a20:	33e9                	jal	7ea <ReadRawRC>
     a22:	896d                	andi	a0,a0,27
     a24:	e149                	bnez	a0,aa6 <PcdComMF522+0x104>
     a26:	01647433          	and	s0,s0,s6
     a2a:	47b1                	li	a5,12
     a2c:	8805                	andi	s0,s0,1
     a2e:	04f49363          	bne	s1,a5,a74 <PcdComMF522+0xd2>
     a32:	4529                	li	a0,10
     a34:	3b5d                	jal	7ea <ReadRawRC>
     a36:	892a                	mv	s2,a0
     a38:	4531                	li	a0,12
     a3a:	3b45                	jal	7ea <ReadRawRC>
     a3c:	891d                	andi	a0,a0,7
     a3e:	00391793          	slli	a5,s2,0x3
     a42:	c509                	beqz	a0,a4c <PcdComMF522+0xaa>
     a44:	fff90793          	addi	a5,s2,-1
     a48:	078e                	slli	a5,a5,0x3
     a4a:	97aa                	add	a5,a5,a0
     a4c:	00fa2023          	sw	a5,0(s4)
     a50:	4485                	li	s1,1
     a52:	00090863          	beqz	s2,a62 <PcdComMF522+0xc0>
     a56:	47c9                	li	a5,18
     a58:	0ff97493          	andi	s1,s2,255
     a5c:	0127f363          	bgeu	a5,s2,a62 <PcdComMF522+0xc0>
     a60:	44c9                	li	s1,18
     a62:	4901                	li	s2,0
     a64:	4525                	li	a0,9
     a66:	3351                	jal	7ea <ReadRawRC>
     a68:	012987b3          	add	a5,s3,s2
     a6c:	a388                	sb	a0,0(a5)
     a6e:	0905                	addi	s2,s2,1
     a70:	fe996ae3          	bltu	s2,s1,a64 <PcdComMF522+0xc2>
     a74:	08000593          	li	a1,128
     a78:	4531                	li	a0,12
     a7a:	3bd1                	jal	84e <SetBitMask>
     a7c:	4581                	li	a1,0
     a7e:	4505                	li	a0,1
     a80:	3b79                	jal	81e <WriteRawRC>
     a82:	8522                	mv	a0,s0
     a84:	fbcff06f          	j	240 <__riscv_restore_10>
     a88:	03000913          	li	s2,48
     a8c:	07700413          	li	s0,119
     a90:	bf05                	j	9c0 <PcdComMF522+0x1e>
     a92:	4941                	li	s2,16
     a94:	4449                	li	s0,18
     a96:	b72d                	j	9c0 <PcdComMF522+0x1e>
     a98:	015b87b3          	add	a5,s7,s5
     a9c:	238c                	lbu	a1,0(a5)
     a9e:	4525                	li	a0,9
     aa0:	0a85                	addi	s5,s5,1
     aa2:	3bb5                	jal	81e <WriteRawRC>
     aa4:	bf35                	j	9e0 <PcdComMF522+0x3e>
     aa6:	4409                	li	s0,2
     aa8:	b7f1                	j	a74 <PcdComMF522+0xd2>

00000aaa <PcdRequest>:
     aaa:	f86ff2ef          	jal	t0,230 <__riscv_save_0>
     aae:	1101                	addi	sp,sp,-32
     ab0:	84aa                	mv	s1,a0
     ab2:	842e                	mv	s0,a1
     ab4:	4521                	li	a0,8
     ab6:	45a1                	li	a1,8
     ab8:	3b4d                	jal	86a <ClearBitMask>
     aba:	459d                	li	a1,7
     abc:	4535                	li	a0,13
     abe:	3385                	jal	81e <WriteRawRC>
     ac0:	458d                	li	a1,3
     ac2:	4551                	li	a0,20
     ac4:	3369                	jal	84e <SetBitMask>
     ac6:	0074                	addi	a3,sp,12
     ac8:	0038                	addi	a4,sp,8
     aca:	4605                	li	a2,1
     acc:	85b6                	mv	a1,a3
     ace:	4531                	li	a0,12
     ad0:	8644                	sb	s1,12(sp)
     ad2:	3dc1                	jal	9a2 <PcdComMF522>
     ad4:	ed01                	bnez	a0,aec <PcdRequest+0x42>
     ad6:	4722                	lw	a4,8(sp)
     ad8:	47c1                	li	a5,16
     ada:	00f71963          	bne	a4,a5,aec <PcdRequest+0x42>
     ade:	861c                	lbu	a5,12(sp)
     ae0:	a01c                	sb	a5,0(s0)
     ae2:	869c                	lbu	a5,13(sp)
     ae4:	b01c                	sb	a5,1(s0)
     ae6:	6105                	addi	sp,sp,32
     ae8:	f6cff06f          	j	254 <__riscv_restore_0>
     aec:	4509                	li	a0,2
     aee:	bfe5                	j	ae6 <PcdRequest+0x3c>

00000af0 <PcdAnticoll>:
     af0:	f40ff2ef          	jal	t0,230 <__riscv_save_0>
     af4:	1101                	addi	sp,sp,-32
     af6:	45a1                	li	a1,8
     af8:	84aa                	mv	s1,a0
     afa:	4521                	li	a0,8
     afc:	33bd                	jal	86a <ClearBitMask>
     afe:	4581                	li	a1,0
     b00:	4535                	li	a0,13
     b02:	3b31                	jal	81e <WriteRawRC>
     b04:	08000593          	li	a1,128
     b08:	4539                	li	a0,14
     b0a:	3385                	jal	86a <ClearBitMask>
     b0c:	0074                	addi	a3,sp,12
     b0e:	6789                	lui	a5,0x2
     b10:	09378793          	addi	a5,a5,147 # 2093 <SystemInit+0xa5>
     b14:	0038                	addi	a4,sp,8
     b16:	4609                	li	a2,2
     b18:	85b6                	mv	a1,a3
     b1a:	4531                	li	a0,12
     b1c:	867c                	sh	a5,12(sp)
     b1e:	3551                	jal	9a2 <PcdComMF522>
     b20:	842a                	mv	s0,a0
     b22:	e11d                	bnez	a0,b48 <PcdAnticoll+0x58>
     b24:	4781                	li	a5,0
     b26:	4701                	li	a4,0
     b28:	4611                	li	a2,4
     b2a:	0074                	addi	a3,sp,12
     b2c:	96be                	add	a3,a3,a5
     b2e:	2294                	lbu	a3,0(a3)
     b30:	00f485b3          	add	a1,s1,a5
     b34:	0785                	addi	a5,a5,1
     b36:	a194                	sb	a3,0(a1)
     b38:	8f35                	xor	a4,a4,a3
     b3a:	fec798e3          	bne	a5,a2,b2a <PcdAnticoll+0x3a>
     b3e:	01014783          	lbu	a5,16(sp)
     b42:	00e78363          	beq	a5,a4,b48 <PcdAnticoll+0x58>
     b46:	4409                	li	s0,2
     b48:	08000593          	li	a1,128
     b4c:	4539                	li	a0,14
     b4e:	3301                	jal	84e <SetBitMask>
     b50:	8522                	mv	a0,s0
     b52:	6105                	addi	sp,sp,32
     b54:	f00ff06f          	j	254 <__riscv_restore_0>

00000b58 <CalulateCRC>:
     b58:	ed8ff2ef          	jal	t0,230 <__riscv_save_0>
     b5c:	842a                	mv	s0,a0
     b5e:	84ae                	mv	s1,a1
     b60:	4515                	li	a0,5
     b62:	4591                	li	a1,4
     b64:	8932                	mv	s2,a2
     b66:	3311                	jal	86a <ClearBitMask>
     b68:	4581                	li	a1,0
     b6a:	4505                	li	a0,1
     b6c:	394d                	jal	81e <WriteRawRC>
     b6e:	08000593          	li	a1,128
     b72:	4529                	li	a0,10
     b74:	39e9                	jal	84e <SetBitMask>
     b76:	94a2                	add	s1,s1,s0
     b78:	02941b63          	bne	s0,s1,bae <CalulateCRC+0x56>
     b7c:	458d                	li	a1,3
     b7e:	4505                	li	a0,1
     b80:	3979                	jal	81e <WriteRawRC>
     b82:	0ff00413          	li	s0,255
     b86:	147d                	addi	s0,s0,-1
     b88:	4515                	li	a0,5
     b8a:	0ff47413          	andi	s0,s0,255
     b8e:	39b1                	jal	7ea <ReadRawRC>
     b90:	c019                	beqz	s0,b96 <CalulateCRC+0x3e>
     b92:	8911                	andi	a0,a0,4
     b94:	d96d                	beqz	a0,b86 <CalulateCRC+0x2e>
     b96:	02200513          	li	a0,34
     b9a:	3981                	jal	7ea <ReadRawRC>
     b9c:	00a90023          	sb	a0,0(s2)
     ba0:	02100513          	li	a0,33
     ba4:	3199                	jal	7ea <ReadRawRC>
     ba6:	00a900a3          	sb	a0,1(s2)
     baa:	eaaff06f          	j	254 <__riscv_restore_0>
     bae:	200c                	lbu	a1,0(s0)
     bb0:	4525                	li	a0,9
     bb2:	0405                	addi	s0,s0,1
     bb4:	31ad                	jal	81e <WriteRawRC>
     bb6:	b7c9                	j	b78 <CalulateCRC+0x20>

00000bb8 <PcdSelect>:
     bb8:	e78ff2ef          	jal	t0,230 <__riscv_save_0>
     bbc:	1101                	addi	sp,sp,-32
     bbe:	679d                	lui	a5,0x7
     bc0:	09378793          	addi	a5,a5,147 # 7093 <ascii_3216+0x129f>
     bc4:	0078                	addi	a4,sp,12
     bc6:	867c                	sh	a5,12(sp)
     bc8:	00010923          	sb	zero,18(sp)
     bcc:	4781                	li	a5,0
     bce:	86ba                	mv	a3,a4
     bd0:	4591                	li	a1,4
     bd2:	00f50633          	add	a2,a0,a5
     bd6:	2210                	lbu	a2,0(a2)
     bd8:	0785                	addi	a5,a5,1
     bda:	0705                	addi	a4,a4,1
     bdc:	b310                	sb	a2,1(a4)
     bde:	01214803          	lbu	a6,18(sp)
     be2:	01064633          	xor	a2,a2,a6
     be6:	00c10923          	sb	a2,18(sp)
     bea:	feb794e3          	bne	a5,a1,bd2 <PcdSelect+0x1a>
     bee:	8536                	mv	a0,a3
     bf0:	01310613          	addi	a2,sp,19
     bf4:	459d                	li	a1,7
     bf6:	378d                	jal	b58 <CalulateCRC>
     bf8:	45a1                	li	a1,8
     bfa:	4521                	li	a0,8
     bfc:	31bd                	jal	86a <ClearBitMask>
     bfe:	0074                	addi	a3,sp,12
     c00:	0038                	addi	a4,sp,8
     c02:	4625                	li	a2,9
     c04:	85b6                	mv	a1,a3
     c06:	4531                	li	a0,12
     c08:	3b69                	jal	9a2 <PcdComMF522>
     c0a:	e901                	bnez	a0,c1a <PcdSelect+0x62>
     c0c:	4722                	lw	a4,8(sp)
     c0e:	47e1                	li	a5,24
     c10:	00f71563          	bne	a4,a5,c1a <PcdSelect+0x62>
     c14:	6105                	addi	sp,sp,32
     c16:	e3eff06f          	j	254 <__riscv_restore_0>
     c1a:	4509                	li	a0,2
     c1c:	bfe5                	j	c14 <PcdSelect+0x5c>

00000c1e <PcdAuthState>:
     c1e:	e12ff2ef          	jal	t0,230 <__riscv_save_0>
     c22:	1101                	addi	sp,sp,-32
     c24:	007c                	addi	a5,sp,12
     c26:	8836                	mv	a6,a3
     c28:	8648                	sb	a0,12(sp)
     c2a:	86cc                	sb	a1,13(sp)
     c2c:	4701                	li	a4,0
     c2e:	85be                	mv	a1,a5
     c30:	86be                	mv	a3,a5
     c32:	4519                	li	a0,6
     c34:	00e608b3          	add	a7,a2,a4
     c38:	0008c883          	lbu	a7,0(a7)
     c3c:	0705                	addi	a4,a4,1
     c3e:	0585                	addi	a1,a1,1
     c40:	011580a3          	sb	a7,1(a1) # 1001 <RC522_Handle+0x24d>
     c44:	fea718e3          	bne	a4,a0,c34 <PcdAuthState+0x16>
     c48:	4701                	li	a4,0
     c4a:	4619                	li	a2,6
     c4c:	00e805b3          	add	a1,a6,a4
     c50:	218c                	lbu	a1,0(a1)
     c52:	0705                	addi	a4,a4,1
     c54:	0785                	addi	a5,a5,1
     c56:	b3ec                	sb	a1,7(a5)
     c58:	fec71ae3          	bne	a4,a2,c4c <PcdAuthState+0x2e>
     c5c:	0038                	addi	a4,sp,8
     c5e:	4631                	li	a2,12
     c60:	85b6                	mv	a1,a3
     c62:	4539                	li	a0,14
     c64:	3b3d                	jal	9a2 <PcdComMF522>
     c66:	842a                	mv	s0,a0
     c68:	e511                	bnez	a0,c74 <PcdAuthState+0x56>
     c6a:	4521                	li	a0,8
     c6c:	b7fff0ef          	jal	ra,7ea <ReadRawRC>
     c70:	8921                	andi	a0,a0,8
     c72:	e111                	bnez	a0,c76 <PcdAuthState+0x58>
     c74:	4409                	li	s0,2
     c76:	8522                	mv	a0,s0
     c78:	6105                	addi	sp,sp,32
     c7a:	ddaff06f          	j	254 <__riscv_restore_0>

00000c7e <PcdWrite>:
     c7e:	db2ff2ef          	jal	t0,230 <__riscv_save_0>
     c82:	1101                	addi	sp,sp,-32
     c84:	fa000793          	li	a5,-96
     c88:	86c8                	sb	a0,13(sp)
     c8a:	00e10613          	addi	a2,sp,14
     c8e:	0068                	addi	a0,sp,12
     c90:	842e                	mv	s0,a1
     c92:	4589                	li	a1,2
     c94:	865c                	sb	a5,12(sp)
     c96:	35c9                	jal	b58 <CalulateCRC>
     c98:	0074                	addi	a3,sp,12
     c9a:	0038                	addi	a4,sp,8
     c9c:	4611                	li	a2,4
     c9e:	85b6                	mv	a1,a3
     ca0:	4531                	li	a0,12
     ca2:	3301                	jal	9a2 <PcdComMF522>
     ca4:	ed31                	bnez	a0,d00 <PcdWrite+0x82>
     ca6:	4722                	lw	a4,8(sp)
     ca8:	4791                	li	a5,4
     caa:	04f71b63          	bne	a4,a5,d00 <PcdWrite+0x82>
     cae:	861c                	lbu	a5,12(sp)
     cb0:	4729                	li	a4,10
     cb2:	8bbd                	andi	a5,a5,15
     cb4:	04e79663          	bne	a5,a4,d00 <PcdWrite+0x82>
     cb8:	4641                	li	a2,16
     cba:	85a2                	mv	a1,s0
     cbc:	0068                	addi	a0,sp,12
     cbe:	6de030ef          	jal	ra,439c <memcpy>
     cc2:	4781                	li	a5,0
     cc4:	4741                	li	a4,16
     cc6:	00f40633          	add	a2,s0,a5
     cca:	2210                	lbu	a2,0(a2)
     ccc:	0074                	addi	a3,sp,12
     cce:	96be                	add	a3,a3,a5
     cd0:	a290                	sb	a2,0(a3)
     cd2:	0785                	addi	a5,a5,1
     cd4:	fee799e3          	bne	a5,a4,cc6 <PcdWrite+0x48>
     cd8:	0870                	addi	a2,sp,28
     cda:	45c1                	li	a1,16
     cdc:	0068                	addi	a0,sp,12
     cde:	3dad                	jal	b58 <CalulateCRC>
     ce0:	0074                	addi	a3,sp,12
     ce2:	0038                	addi	a4,sp,8
     ce4:	4649                	li	a2,18
     ce6:	85b6                	mv	a1,a3
     ce8:	4531                	li	a0,12
     cea:	3965                	jal	9a2 <PcdComMF522>
     cec:	e911                	bnez	a0,d00 <PcdWrite+0x82>
     cee:	4722                	lw	a4,8(sp)
     cf0:	4791                	li	a5,4
     cf2:	00f71763          	bne	a4,a5,d00 <PcdWrite+0x82>
     cf6:	861c                	lbu	a5,12(sp)
     cf8:	4729                	li	a4,10
     cfa:	8bbd                	andi	a5,a5,15
     cfc:	00e78363          	beq	a5,a4,d02 <PcdWrite+0x84>
     d00:	4509                	li	a0,2
     d02:	6105                	addi	sp,sp,32
     d04:	d50ff06f          	j	254 <__riscv_restore_0>

00000d08 <PcdRead>:
     d08:	d28ff2ef          	jal	t0,230 <__riscv_save_0>
     d0c:	1101                	addi	sp,sp,-32
     d0e:	03000793          	li	a5,48
     d12:	86c8                	sb	a0,13(sp)
     d14:	00e10613          	addi	a2,sp,14
     d18:	0068                	addi	a0,sp,12
     d1a:	842e                	mv	s0,a1
     d1c:	4589                	li	a1,2
     d1e:	865c                	sb	a5,12(sp)
     d20:	3d25                	jal	b58 <CalulateCRC>
     d22:	0074                	addi	a3,sp,12
     d24:	0038                	addi	a4,sp,8
     d26:	4611                	li	a2,4
     d28:	85b6                	mv	a1,a3
     d2a:	4531                	li	a0,12
     d2c:	399d                	jal	9a2 <PcdComMF522>
     d2e:	e505                	bnez	a0,d56 <PcdRead+0x4e>
     d30:	4722                	lw	a4,8(sp)
     d32:	09000793          	li	a5,144
     d36:	02f71063          	bne	a4,a5,d56 <PcdRead+0x4e>
     d3a:	4781                	li	a5,0
     d3c:	4741                	li	a4,16
     d3e:	0070                	addi	a2,sp,12
     d40:	963e                	add	a2,a2,a5
     d42:	2210                	lbu	a2,0(a2)
     d44:	00f406b3          	add	a3,s0,a5
     d48:	0785                	addi	a5,a5,1
     d4a:	a290                	sb	a2,0(a3)
     d4c:	fee799e3          	bne	a5,a4,d3e <PcdRead+0x36>
     d50:	6105                	addi	sp,sp,32
     d52:	d02ff06f          	j	254 <__riscv_restore_0>
     d56:	4509                	li	a0,2
     d58:	bfe5                	j	d50 <PcdRead+0x48>

00000d5a <ShowID>:
     d5a:	cd6ff2ef          	jal	t0,230 <__riscv_save_0>
     d5e:	1141                	addi	sp,sp,-16
     d60:	0058                	addi	a4,sp,4
     d62:	4681                	li	a3,0
     d64:	85ba                	mv	a1,a4
     d66:	09f00313          	li	t1,159
     d6a:	4e25                	li	t3,9
     d6c:	4891                	li	a7,4
     d6e:	00d507b3          	add	a5,a0,a3
     d72:	239c                	lbu	a5,0(a5)
     d74:	0047d813          	srli	a6,a5,0x4
     d78:	03080613          	addi	a2,a6,48
     d7c:	00f37463          	bgeu	t1,a5,d84 <ShowID+0x2a>
     d80:	03780613          	addi	a2,a6,55
     d84:	a310                	sb	a2,0(a4)
     d86:	8bbd                	andi	a5,a5,15
     d88:	03078613          	addi	a2,a5,48
     d8c:	00fe7463          	bgeu	t3,a5,d94 <ShowID+0x3a>
     d90:	03778613          	addi	a2,a5,55
     d94:	b310                	sb	a2,1(a4)
     d96:	0685                	addi	a3,a3,1
     d98:	0709                	addi	a4,a4,2
     d9a:	fd169ae3          	bne	a3,a7,d6e <ShowID+0x14>
     d9e:	00005537          	lui	a0,0x5
     da2:	7f850513          	addi	a0,a0,2040 # 57f8 <_read+0x1b6>
     da6:	00010623          	sb	zero,12(sp)
     daa:	6a4030ef          	jal	ra,444e <iprintf>
     dae:	0141                	addi	sp,sp,16
     db0:	ca4ff06f          	j	254 <__riscv_restore_0>

00000db4 <RC522_Handle>:
     db4:	c62ff2ef          	jal	t0,216 <__riscv_save_4>
     db8:	83818593          	addi	a1,gp,-1992 # 200000b8 <_edata>
     dbc:	05200513          	li	a0,82
     dc0:	31ed                	jal	aaa <PcdRequest>
     dc2:	0ff57513          	andi	a0,a0,255
     dc6:	84518413          	addi	s0,gp,-1979 # 200000c5 <status>
     dca:	16051a63          	bnez	a0,f3e <RC522_Handle+0x18a>
     dce:	4789                	li	a5,2
     dd0:	83c18513          	addi	a0,gp,-1988 # 200000bc <SN>
     dd4:	a01c                	sb	a5,0(s0)
     dd6:	3b29                	jal	af0 <PcdAnticoll>
     dd8:	0ff57513          	andi	a0,a0,255
     ddc:	a008                	sb	a0,0(s0)
     dde:	2c051563          	bnez	a0,10a8 <RC522_Handle+0x2f4>
     de2:	400129b7          	lui	s3,0x40012
     de6:	0c800493          	li	s1,200
     dea:	80098993          	addi	s3,s3,-2048 # 40011800 <_eusrstack+0x20009800>
     dee:	4585                	li	a1,1
     df0:	854e                	mv	a0,s3
     df2:	3dd010ef          	jal	ra,29ce <GPIO_SetBits>
     df6:	4505                	li	a0,1
     df8:	36a020ef          	jal	ra,3162 <delay_ms>
     dfc:	4585                	li	a1,1
     dfe:	854e                	mv	a0,s3
     e00:	3d3010ef          	jal	ra,29d2 <GPIO_ResetBits>
     e04:	14fd                	addi	s1,s1,-1
     e06:	4505                	li	a0,1
     e08:	0ff4f493          	andi	s1,s1,255
     e0c:	356020ef          	jal	ra,3162 <delay_ms>
     e10:	fcf9                	bnez	s1,dee <RC522_Handle+0x3a>
     e12:	4789                	li	a5,2
     e14:	83c18513          	addi	a0,gp,-1988 # 200000bc <SN>
     e18:	a01c                	sb	a5,0(s0)
     e1a:	3781                	jal	d5a <ShowID>
     e1c:	83c18493          	addi	s1,gp,-1988 # 200000bc <SN>
     e20:	81018793          	addi	a5,gp,-2032 # 20000090 <card_0>
     e24:	2094                	lbu	a3,0(s1)
     e26:	2398                	lbu	a4,0(a5)
     e28:	83c18493          	addi	s1,gp,-1988 # 200000bc <SN>
     e2c:	02e69763          	bne	a3,a4,e5a <RC522_Handle+0xa6>
     e30:	3094                	lbu	a3,1(s1)
     e32:	3398                	lbu	a4,1(a5)
     e34:	02e69363          	bne	a3,a4,e5a <RC522_Handle+0xa6>
     e38:	20b4                	lbu	a3,2(s1)
     e3a:	23b8                	lbu	a4,2(a5)
     e3c:	00e69f63          	bne	a3,a4,e5a <RC522_Handle+0xa6>
     e40:	30b8                	lbu	a4,3(s1)
     e42:	33bc                	lbu	a5,3(a5)
     e44:	00f71b63          	bne	a4,a5,e5a <RC522_Handle+0xa6>
     e48:	00005537          	lui	a0,0x5
     e4c:	4705                	li	a4,1
     e4e:	65050513          	addi	a0,a0,1616 # 5650 <_read+0xe>
     e52:	84e18023          	sb	a4,-1984(gp) # 200000c0 <card0_bit>
     e56:	70c030ef          	jal	ra,4562 <puts>
     e5a:	81418793          	addi	a5,gp,-2028 # 20000094 <card_1>
     e5e:	2094                	lbu	a3,0(s1)
     e60:	2398                	lbu	a4,0(a5)
     e62:	02e69763          	bne	a3,a4,e90 <RC522_Handle+0xdc>
     e66:	3094                	lbu	a3,1(s1)
     e68:	3398                	lbu	a4,1(a5)
     e6a:	02e69363          	bne	a3,a4,e90 <RC522_Handle+0xdc>
     e6e:	20b4                	lbu	a3,2(s1)
     e70:	23b8                	lbu	a4,2(a5)
     e72:	00e69f63          	bne	a3,a4,e90 <RC522_Handle+0xdc>
     e76:	30b8                	lbu	a4,3(s1)
     e78:	33bc                	lbu	a5,3(a5)
     e7a:	00f71b63          	bne	a4,a5,e90 <RC522_Handle+0xdc>
     e7e:	00005537          	lui	a0,0x5
     e82:	4705                	li	a4,1
     e84:	66850513          	addi	a0,a0,1640 # 5668 <_read+0x26>
     e88:	84e180a3          	sb	a4,-1983(gp) # 200000c1 <card1_bit>
     e8c:	6d6030ef          	jal	ra,4562 <puts>
     e90:	81818793          	addi	a5,gp,-2024 # 20000098 <card_2>
     e94:	2094                	lbu	a3,0(s1)
     e96:	2398                	lbu	a4,0(a5)
     e98:	02e69763          	bne	a3,a4,ec6 <RC522_Handle+0x112>
     e9c:	3094                	lbu	a3,1(s1)
     e9e:	3398                	lbu	a4,1(a5)
     ea0:	02e69363          	bne	a3,a4,ec6 <RC522_Handle+0x112>
     ea4:	20b4                	lbu	a3,2(s1)
     ea6:	23b8                	lbu	a4,2(a5)
     ea8:	00e69f63          	bne	a3,a4,ec6 <RC522_Handle+0x112>
     eac:	30b8                	lbu	a4,3(s1)
     eae:	33bc                	lbu	a5,3(a5)
     eb0:	00f71b63          	bne	a4,a5,ec6 <RC522_Handle+0x112>
     eb4:	00005537          	lui	a0,0x5
     eb8:	4705                	li	a4,1
     eba:	68050513          	addi	a0,a0,1664 # 5680 <_read+0x3e>
     ebe:	84e18123          	sb	a4,-1982(gp) # 200000c2 <card2_bit>
     ec2:	6a0030ef          	jal	ra,4562 <puts>
     ec6:	81c18793          	addi	a5,gp,-2020 # 2000009c <card_3>
     eca:	2094                	lbu	a3,0(s1)
     ecc:	2398                	lbu	a4,0(a5)
     ece:	02e69763          	bne	a3,a4,efc <RC522_Handle+0x148>
     ed2:	3094                	lbu	a3,1(s1)
     ed4:	3398                	lbu	a4,1(a5)
     ed6:	02e69363          	bne	a3,a4,efc <RC522_Handle+0x148>
     eda:	20b4                	lbu	a3,2(s1)
     edc:	23b8                	lbu	a4,2(a5)
     ede:	00e69f63          	bne	a3,a4,efc <RC522_Handle+0x148>
     ee2:	30b8                	lbu	a4,3(s1)
     ee4:	33bc                	lbu	a5,3(a5)
     ee6:	00f71b63          	bne	a4,a5,efc <RC522_Handle+0x148>
     eea:	00005537          	lui	a0,0x5
     eee:	4705                	li	a4,1
     ef0:	69850513          	addi	a0,a0,1688 # 5698 <_read+0x56>
     ef4:	84e181a3          	sb	a4,-1981(gp) # 200000c3 <card3_bit>
     ef8:	66a030ef          	jal	ra,4562 <puts>
     efc:	82018793          	addi	a5,gp,-2016 # 200000a0 <card_4>
     f00:	2094                	lbu	a3,0(s1)
     f02:	2398                	lbu	a4,0(a5)
     f04:	02e69763          	bne	a3,a4,f32 <RC522_Handle+0x17e>
     f08:	3094                	lbu	a3,1(s1)
     f0a:	3398                	lbu	a4,1(a5)
     f0c:	02e69363          	bne	a3,a4,f32 <RC522_Handle+0x17e>
     f10:	20b4                	lbu	a3,2(s1)
     f12:	23b8                	lbu	a4,2(a5)
     f14:	00e69f63          	bne	a3,a4,f32 <RC522_Handle+0x17e>
     f18:	30b8                	lbu	a4,3(s1)
     f1a:	33bc                	lbu	a5,3(a5)
     f1c:	00f71b63          	bne	a4,a5,f32 <RC522_Handle+0x17e>
     f20:	00005537          	lui	a0,0x5
     f24:	4705                	li	a4,1
     f26:	6b050513          	addi	a0,a0,1712 # 56b0 <_read+0x6e>
     f2a:	84e18223          	sb	a4,-1980(gp) # 200000c4 <card4_bit>
     f2e:	634030ef          	jal	ra,4562 <puts>
     f32:	83c18513          	addi	a0,gp,-1988 # 200000bc <SN>
     f36:	3149                	jal	bb8 <PcdSelect>
     f38:	0ff57513          	andi	a0,a0,255
     f3c:	c119                	beqz	a0,f42 <RC522_Handle+0x18e>
     f3e:	a008                	sb	a0,0(s0)
     f40:	a2a5                	j	10a8 <RC522_Handle+0x2f4>
     f42:	20000637          	lui	a2,0x20000
     f46:	4789                	li	a5,2
     f48:	83c18693          	addi	a3,gp,-1988 # 200000bc <SN>
     f4c:	08060613          	addi	a2,a2,128 # 20000080 <KEY_A>
     f50:	45ad                	li	a1,11
     f52:	06000513          	li	a0,96
     f56:	a01c                	sb	a5,0(s0)
     f58:	31d9                	jal	c1e <PcdAuthState>
     f5a:	0ff57513          	andi	a0,a0,255
     f5e:	a008                	sb	a0,0(s0)
     f60:	14051663          	bnez	a0,10ac <RC522_Handle+0x2f8>
     f64:	00005537          	lui	a0,0x5
     f68:	6c850513          	addi	a0,a0,1736 # 56c8 <_read+0x86>
     f6c:	5f6030ef          	jal	ra,4562 <puts>
     f70:	83c18693          	addi	a3,gp,-1988 # 200000bc <SN>
     f74:	80818613          	addi	a2,gp,-2040 # 20000088 <KEY_B>
     f78:	45ad                	li	a1,11
     f7a:	06100513          	li	a0,97
     f7e:	3145                	jal	c1e <PcdAuthState>
     f80:	0ff57513          	andi	a0,a0,255
     f84:	a008                	sb	a0,0(s0)
     f86:	12051863          	bnez	a0,10b6 <RC522_Handle+0x302>
     f8a:	00005537          	lui	a0,0x5
     f8e:	6fc50513          	addi	a0,a0,1788 # 56fc <_read+0xba>
     f92:	5d0030ef          	jal	ra,4562 <puts>
     f96:	201c                	lbu	a5,0(s0)
     f98:	10079863          	bnez	a5,10a8 <RC522_Handle+0x2f4>
     f9c:	80e1c503          	lbu	a0,-2034(gp) # 2000008e <addr>
     fa0:	4789                	li	a5,2
     fa2:	89418593          	addi	a1,gp,-1900 # 20000114 <DATA>
     fa6:	a01c                	sb	a5,0(s0)
     fa8:	3385                	jal	d08 <PcdRead>
     faa:	0ff57513          	andi	a0,a0,255
     fae:	a008                	sb	a0,0(s0)
     fb0:	80e18913          	addi	s2,gp,-2034 # 2000008e <addr>
     fb4:	10051663          	bnez	a0,10c0 <RC522_Handle+0x30c>
     fb8:	00005537          	lui	a0,0x5
     fbc:	73050513          	addi	a0,a0,1840 # 5730 <_read+0xee>
     fc0:	48e030ef          	jal	ra,444e <iprintf>
     fc4:	4981                	li	s3,0
     fc6:	89418b13          	addi	s6,gp,-1900 # 20000114 <DATA>
     fca:	00005ab7          	lui	s5,0x5
     fce:	4a41                	li	s4,16
     fd0:	013b07b3          	add	a5,s6,s3
     fd4:	238c                	lbu	a1,0(a5)
     fd6:	738a8513          	addi	a0,s5,1848 # 5738 <_read+0xf6>
     fda:	0985                	addi	s3,s3,1
     fdc:	472030ef          	jal	ra,444e <iprintf>
     fe0:	ff4998e3          	bne	s3,s4,fd0 <RC522_Handle+0x21c>
     fe4:	00005537          	lui	a0,0x5
     fe8:	66450513          	addi	a0,a0,1636 # 5664 <_read+0x22>
     fec:	576030ef          	jal	ra,4562 <puts>
     ff0:	00005537          	lui	a0,0x5
     ff4:	74050513          	addi	a0,a0,1856 # 5740 <_read+0xfe>
     ff8:	56a030ef          	jal	ra,4562 <puts>
     ffc:	201c                	lbu	a5,0(s0)
     ffe:	e7cd                	bnez	a5,10a8 <RC522_Handle+0x2f4>
    1000:	00005537          	lui	a0,0x5
    1004:	4789                	li	a5,2
    1006:	76850513          	addi	a0,a0,1896 # 5768 <_read+0x126>
    100a:	a01c                	sb	a5,0(s0)
    100c:	556030ef          	jal	ra,4562 <puts>
    1010:	3e800513          	li	a0,1000
    1014:	120020ef          	jal	ra,3134 <Delay_Ms>
    1018:	00094503          	lbu	a0,0(s2)
    101c:	200005b7          	lui	a1,0x20000
    1020:	00058593          	mv	a1,a1
    1024:	39a9                	jal	c7e <PcdWrite>
    1026:	0ff57513          	andi	a0,a0,255
    102a:	a008                	sb	a0,0(s0)
    102c:	ed59                	bnez	a0,10ca <RC522_Handle+0x316>
    102e:	00005537          	lui	a0,0x5
    1032:	7a050513          	addi	a0,a0,1952 # 57a0 <_read+0x15e>
    1036:	52c030ef          	jal	ra,4562 <puts>
    103a:	201c                	lbu	a5,0(s0)
    103c:	e7b5                	bnez	a5,10a8 <RC522_Handle+0x2f4>
    103e:	00094503          	lbu	a0,0(s2)
    1042:	4789                	li	a5,2
    1044:	89418593          	addi	a1,gp,-1900 # 20000114 <DATA>
    1048:	a01c                	sb	a5,0(s0)
    104a:	397d                	jal	d08 <PcdRead>
    104c:	0ff57513          	andi	a0,a0,255
    1050:	a008                	sb	a0,0(s0)
    1052:	e941                	bnez	a0,10e2 <RC522_Handle+0x32e>
    1054:	00005537          	lui	a0,0x5
    1058:	73050513          	addi	a0,a0,1840 # 5730 <_read+0xee>
    105c:	3f2030ef          	jal	ra,444e <iprintf>
    1060:	4901                	li	s2,0
    1062:	89418493          	addi	s1,gp,-1900 # 20000114 <DATA>
    1066:	00005a37          	lui	s4,0x5
    106a:	49c1                	li	s3,16
    106c:	012487b3          	add	a5,s1,s2
    1070:	238c                	lbu	a1,0(a5)
    1072:	738a0513          	addi	a0,s4,1848 # 5738 <_read+0xf6>
    1076:	0905                	addi	s2,s2,1
    1078:	3d6030ef          	jal	ra,444e <iprintf>
    107c:	ff3918e3          	bne	s2,s3,106c <RC522_Handle+0x2b8>
    1080:	00005537          	lui	a0,0x5
    1084:	66450513          	addi	a0,a0,1636 # 5664 <_read+0x22>
    1088:	4da030ef          	jal	ra,4562 <puts>
    108c:	201c                	lbu	a5,0(s0)
    108e:	ef89                	bnez	a5,10a8 <RC522_Handle+0x2f4>
    1090:	00005537          	lui	a0,0x5
    1094:	4789                	li	a5,2
    1096:	7c850513          	addi	a0,a0,1992 # 57c8 <_read+0x186>
    109a:	a01c                	sb	a5,0(s0)
    109c:	4c6030ef          	jal	ra,4562 <puts>
    10a0:	3e800513          	li	a0,1000
    10a4:	090020ef          	jal	ra,3134 <Delay_Ms>
    10a8:	9a2ff06f          	j	24a <__riscv_restore_4>
    10ac:	00005537          	lui	a0,0x5
    10b0:	6e450513          	addi	a0,a0,1764 # 56e4 <_read+0xa2>
    10b4:	bd65                	j	f6c <RC522_Handle+0x1b8>
    10b6:	00005537          	lui	a0,0x5
    10ba:	71850513          	addi	a0,a0,1816 # 5718 <_read+0xd6>
    10be:	bdd1                	j	f92 <RC522_Handle+0x1de>
    10c0:	00005537          	lui	a0,0x5
    10c4:	75450513          	addi	a0,a0,1876 # 5754 <_read+0x112>
    10c8:	bf05                	j	ff8 <RC522_Handle+0x244>
    10ca:	00005537          	lui	a0,0x5
    10ce:	7b450513          	addi	a0,a0,1972 # 57b4 <_read+0x172>
    10d2:	490030ef          	jal	ra,4562 <puts>
    10d6:	6505                	lui	a0,0x1
    10d8:	bb850513          	addi	a0,a0,-1096 # bb8 <PcdSelect>
    10dc:	058020ef          	jal	ra,3134 <Delay_Ms>
    10e0:	bfa9                	j	103a <RC522_Handle+0x286>
    10e2:	00005537          	lui	a0,0x5
    10e6:	75450513          	addi	a0,a0,1876 # 5754 <_read+0x112>
    10ea:	bf79                	j	1088 <RC522_Handle+0x2d4>

000010ec <SPI2_Init>:
    10ec:	944ff2ef          	jal	t0,230 <__riscv_save_0>
    10f0:	1101                	addi	sp,sp,-32
    10f2:	4585                	li	a1,1
    10f4:	4531                	li	a0,12
    10f6:	5a9010ef          	jal	ra,2e9e <RCC_APB2PeriphClockCmd>
    10fa:	4585                	li	a1,1
    10fc:	6511                	lui	a0,0x4
    10fe:	5bf010ef          	jal	ra,2ebc <RCC_APB1PeriphClockCmd>
    1102:	40011437          	lui	s0,0x40011
    1106:	448d                	li	s1,3
    1108:	4941                	li	s2,16
    110a:	6785                	lui	a5,0x1
    110c:	858a                	mv	a1,sp
    110e:	c0040513          	addi	a0,s0,-1024 # 40010c00 <_eusrstack+0x20008c00>
    1112:	807c                	sh	a5,0(sp)
    1114:	c44a                	sw	s2,8(sp)
    1116:	c226                	sw	s1,4(sp)
    1118:	7ec010ef          	jal	ra,2904 <GPIO_Init>
    111c:	6789                	lui	a5,0x2
    111e:	858a                	mv	a1,sp
    1120:	c0040513          	addi	a0,s0,-1024
    1124:	807c                	sh	a5,0(sp)
    1126:	c44a                	sw	s2,8(sp)
    1128:	c226                	sw	s1,4(sp)
    112a:	7da010ef          	jal	ra,2904 <GPIO_Init>
    112e:	6791                	lui	a5,0x4
    1130:	858a                	mv	a1,sp
    1132:	c0040513          	addi	a0,s0,-1024
    1136:	807c                	sh	a5,0(sp)
    1138:	c44a                	sw	s2,8(sp)
    113a:	c226                	sw	s1,4(sp)
    113c:	7c8010ef          	jal	ra,2904 <GPIO_Init>
    1140:	77e1                	lui	a5,0xffff8
    1142:	807c                	sh	a5,0(sp)
    1144:	858a                	mv	a1,sp
    1146:	4791                	li	a5,4
    1148:	c0040513          	addi	a0,s0,-1024
    114c:	c43e                	sw	a5,8(sp)
    114e:	c226                	sw	s1,4(sp)
    1150:	7b4010ef          	jal	ra,2904 <GPIO_Init>
    1154:	4785                	li	a5,1
    1156:	858a                	mv	a1,sp
    1158:	80040513          	addi	a0,s0,-2048
    115c:	807c                	sh	a5,0(sp)
    115e:	c44a                	sw	s2,8(sp)
    1160:	c226                	sw	s1,4(sp)
    1162:	7a2010ef          	jal	ra,2904 <GPIO_Init>
    1166:	010407b7          	lui	a5,0x1040
    116a:	c63e                	sw	a5,12(sp)
    116c:	000207b7          	lui	a5,0x20
    1170:	c83e                	sw	a5,16(sp)
    1172:	020007b7          	lui	a5,0x2000
    1176:	0785                	addi	a5,a5,1
    1178:	40004437          	lui	s0,0x40004
    117c:	ca3e                	sw	a5,20(sp)
    117e:	03800793          	li	a5,56
    1182:	cc3e                	sw	a5,24(sp)
    1184:	006c                	addi	a1,sp,12
    1186:	479d                	li	a5,7
    1188:	80040513          	addi	a0,s0,-2048 # 40003800 <_eusrstack+0x1fffb800>
    118c:	86fc                	sh	a5,28(sp)
    118e:	56b010ef          	jal	ra,2ef8 <SPI_Init>
    1192:	4585                	li	a1,1
    1194:	80040513          	addi	a0,s0,-2048
    1198:	59f010ef          	jal	ra,2f36 <SPI_Cmd>
    119c:	6105                	addi	sp,sp,32
    119e:	8b6ff06f          	j	254 <__riscv_restore_0>

000011a2 <ADC_Function_Init>:
    11a2:	88eff2ef          	jal	t0,230 <__riscv_save_0>
    11a6:	7179                	addi	sp,sp,-48
    11a8:	02000613          	li	a2,32
    11ac:	4581                	li	a1,0
    11ae:	0808                	addi	a0,sp,16
    11b0:	8b0ff0ef          	jal	ra,260 <memset>
    11b4:	4585                	li	a1,1
    11b6:	4511                	li	a0,4
    11b8:	c202                	sw	zero,4(sp)
    11ba:	c402                	sw	zero,8(sp)
    11bc:	c602                	sw	zero,12(sp)
    11be:	4e1010ef          	jal	ra,2e9e <RCC_APB2PeriphClockCmd>
    11c2:	4585                	li	a1,1
    11c4:	20000513          	li	a0,512
    11c8:	4d7010ef          	jal	ra,2e9e <RCC_APB2PeriphClockCmd>
    11cc:	6531                	lui	a0,0xc
    11ce:	349010ef          	jal	ra,2d16 <RCC_ADCCLKConfig>
    11d2:	40011537          	lui	a0,0x40011
    11d6:	47c1                	li	a5,16
    11d8:	004c                	addi	a1,sp,4
    11da:	80050513          	addi	a0,a0,-2048 # 40010800 <_eusrstack+0x20008800>
    11de:	40012437          	lui	s0,0x40012
    11e2:	827c                	sh	a5,4(sp)
    11e4:	c602                	sw	zero,12(sp)
    11e6:	71e010ef          	jal	ra,2904 <GPIO_Init>
    11ea:	40040513          	addi	a0,s0,1024 # 40012400 <_eusrstack+0x2000a400>
    11ee:	406010ef          	jal	ra,25f4 <ADC_DeInit>
    11f2:	000e07b7          	lui	a5,0xe0
    11f6:	ce3e                	sw	a5,28(sp)
    11f8:	080c                	addi	a1,sp,16
    11fa:	4785                	li	a5,1
    11fc:	40040513          	addi	a0,s0,1024
    1200:	02f10223          	sb	a5,36(sp)
    1204:	c802                	sw	zero,16(sp)
    1206:	ca02                	sw	zero,20(sp)
    1208:	cc02                	sw	zero,24(sp)
    120a:	d002                	sw	zero,32(sp)
    120c:	42e010ef          	jal	ra,263a <ADC_Init>
    1210:	469d                	li	a3,7
    1212:	4605                	li	a2,1
    1214:	4591                	li	a1,4
    1216:	40040513          	addi	a0,s0,1024
    121a:	4c2010ef          	jal	ra,26dc <ADC_RegularChannelConfig>
    121e:	4585                	li	a1,1
    1220:	40040513          	addi	a0,s0,1024
    1224:	578010ef          	jal	ra,279c <ADC_AutoInjectedConvCmd>
    1228:	4585                	li	a1,1
    122a:	40040513          	addi	a0,s0,1024
    122e:	462010ef          	jal	ra,2690 <ADC_Cmd>
    1232:	4581                	li	a1,0
    1234:	40040513          	addi	a0,s0,1024
    1238:	580010ef          	jal	ra,27b8 <ADC_BufferCmd>
    123c:	40040513          	addi	a0,s0,1024
    1240:	460010ef          	jal	ra,26a0 <ADC_ResetCalibration>
    1244:	40040493          	addi	s1,s0,1024
    1248:	8526                	mv	a0,s1
    124a:	460010ef          	jal	ra,26aa <ADC_GetResetCalibrationStatus>
    124e:	fd6d                	bnez	a0,1248 <ADC_Function_Init+0xa6>
    1250:	40040513          	addi	a0,s0,1024
    1254:	40012437          	lui	s0,0x40012
    1258:	45a010ef          	jal	ra,26b2 <ADC_StartCalibration>
    125c:	40040493          	addi	s1,s0,1024 # 40012400 <_eusrstack+0x2000a400>
    1260:	8526                	mv	a0,s1
    1262:	45a010ef          	jal	ra,26bc <ADC_GetCalibrationStatus>
    1266:	fd6d                	bnez	a0,1260 <ADC_Function_Init+0xbe>
    1268:	40040513          	addi	a0,s0,1024
    126c:	564010ef          	jal	ra,27d0 <Get_CalibrationValue>
    1270:	84a19323          	sh	a0,-1978(gp) # 200000c6 <Calibrattion_Val>
    1274:	4585                	li	a1,1
    1276:	40040513          	addi	a0,s0,1024
    127a:	53e010ef          	jal	ra,27b8 <ADC_BufferCmd>
    127e:	6145                	addi	sp,sp,48
    1280:	fd5fe06f          	j	254 <__riscv_restore_0>

00001284 <Get_ADC_Val>:
    1284:	fadfe2ef          	jal	t0,230 <__riscv_save_0>
    1288:	40012537          	lui	a0,0x40012
    128c:	4585                	li	a1,1
    128e:	40050513          	addi	a0,a0,1024 # 40012400 <_eusrstack+0x2000a400>
    1292:	40012437          	lui	s0,0x40012
    1296:	42e010ef          	jal	ra,26c4 <ADC_SoftwareStartConvCmd>
    129a:	40040493          	addi	s1,s0,1024 # 40012400 <_eusrstack+0x2000a400>
    129e:	4589                	li	a1,2
    12a0:	8526                	mv	a0,s1
    12a2:	50c010ef          	jal	ra,27ae <ADC_GetFlagStatus>
    12a6:	dd65                	beqz	a0,129e <Get_ADC_Val+0x1a>
    12a8:	40040513          	addi	a0,s0,1024
    12ac:	4e8010ef          	jal	ra,2794 <ADC_GetConversionValue>
    12b0:	fa5fe06f          	j	254 <__riscv_restore_0>

000012b4 <BEEP_Init>:
    12b4:	f7dfe2ef          	jal	t0,230 <__riscv_save_0>
    12b8:	1141                	addi	sp,sp,-16
    12ba:	4585                	li	a1,1
    12bc:	04000513          	li	a0,64
    12c0:	3df010ef          	jal	ra,2e9e <RCC_APB2PeriphClockCmd>
    12c4:	4785                	li	a5,1
    12c6:	40012437          	lui	s0,0x40012
    12ca:	827c                	sh	a5,4(sp)
    12cc:	47c1                	li	a5,16
    12ce:	c63e                	sw	a5,12(sp)
    12d0:	004c                	addi	a1,sp,4
    12d2:	478d                	li	a5,3
    12d4:	80040513          	addi	a0,s0,-2048 # 40011800 <_eusrstack+0x20009800>
    12d8:	c43e                	sw	a5,8(sp)
    12da:	62a010ef          	jal	ra,2904 <GPIO_Init>
    12de:	4585                	li	a1,1
    12e0:	80040513          	addi	a0,s0,-2048
    12e4:	6ee010ef          	jal	ra,29d2 <GPIO_ResetBits>
    12e8:	0141                	addi	sp,sp,16
    12ea:	f6bfe06f          	j	254 <__riscv_restore_0>

000012ee <NMI_Handler>:
    12ee:	30200073          	mret

000012f2 <HardFault_Handler>:
    12f2:	a001                	j	12f2 <HardFault_Handler>

000012f4 <DHT11_Read_Bit>:
    12f4:	f3dfe2ef          	jal	t0,230 <__riscv_save_0>
    12f8:	400114b7          	lui	s1,0x40011
    12fc:	06500413          	li	s0,101
    1300:	40048493          	addi	s1,s1,1024 # 40011400 <_eusrstack+0x20009400>
    1304:	40000593          	li	a1,1024
    1308:	8526                	mv	a0,s1
    130a:	6ba010ef          	jal	ra,29c4 <GPIO_ReadInputDataBit>
    130e:	c509                	beqz	a0,1318 <DHT11_Read_Bit+0x24>
    1310:	147d                	addi	s0,s0,-1
    1312:	0ff47413          	andi	s0,s0,255
    1316:	e801                	bnez	s0,1326 <DHT11_Read_Bit+0x32>
    1318:	400114b7          	lui	s1,0x40011
    131c:	06500413          	li	s0,101
    1320:	40048493          	addi	s1,s1,1024 # 40011400 <_eusrstack+0x20009400>
    1324:	a801                	j	1334 <DHT11_Read_Bit+0x40>
    1326:	4505                	li	a0,1
    1328:	5d3010ef          	jal	ra,30fa <delay_us>
    132c:	bfe1                	j	1304 <DHT11_Read_Bit+0x10>
    132e:	4505                	li	a0,1
    1330:	5cb010ef          	jal	ra,30fa <delay_us>
    1334:	40000593          	li	a1,1024
    1338:	8526                	mv	a0,s1
    133a:	68a010ef          	jal	ra,29c4 <GPIO_ReadInputDataBit>
    133e:	e509                	bnez	a0,1348 <DHT11_Read_Bit+0x54>
    1340:	147d                	addi	s0,s0,-1
    1342:	0ff47413          	andi	s0,s0,255
    1346:	f465                	bnez	s0,132e <DHT11_Read_Bit+0x3a>
    1348:	02800513          	li	a0,40
    134c:	5af010ef          	jal	ra,30fa <delay_us>
    1350:	40011537          	lui	a0,0x40011
    1354:	40000593          	li	a1,1024
    1358:	40050513          	addi	a0,a0,1024 # 40011400 <_eusrstack+0x20009400>
    135c:	668010ef          	jal	ra,29c4 <GPIO_ReadInputDataBit>
    1360:	00a03533          	snez	a0,a0
    1364:	ef1fe06f          	j	254 <__riscv_restore_0>

00001368 <DHT11_Read_Byte>:
    1368:	ec9fe2ef          	jal	t0,230 <__riscv_save_0>
    136c:	44a1                	li	s1,8
    136e:	4501                	li	a0,0
    1370:	0506                	slli	a0,a0,0x1
    1372:	0ff57413          	andi	s0,a0,255
    1376:	14fd                	addi	s1,s1,-1
    1378:	3fb5                	jal	12f4 <DHT11_Read_Bit>
    137a:	8d41                	or	a0,a0,s0
    137c:	0ff4f493          	andi	s1,s1,255
    1380:	0ff57513          	andi	a0,a0,255
    1384:	f4f5                	bnez	s1,1370 <DHT11_Read_Byte+0x8>
    1386:	ecffe06f          	j	254 <__riscv_restore_0>

0000138a <DHT11_IO_IN>:
    138a:	ea7fe2ef          	jal	t0,230 <__riscv_save_0>
    138e:	1141                	addi	sp,sp,-16
    1390:	4585                	li	a1,1
    1392:	02000513          	li	a0,32
    1396:	309010ef          	jal	ra,2e9e <RCC_APB2PeriphClockCmd>
    139a:	40000793          	li	a5,1024
    139e:	40011537          	lui	a0,0x40011
    13a2:	827c                	sh	a5,4(sp)
    13a4:	004c                	addi	a1,sp,4
    13a6:	4791                	li	a5,4
    13a8:	40050513          	addi	a0,a0,1024 # 40011400 <_eusrstack+0x20009400>
    13ac:	c63e                	sw	a5,12(sp)
    13ae:	556010ef          	jal	ra,2904 <GPIO_Init>
    13b2:	0141                	addi	sp,sp,16
    13b4:	ea1fe06f          	j	254 <__riscv_restore_0>

000013b8 <DHT11_Check>:
    13b8:	e79fe2ef          	jal	t0,230 <__riscv_save_0>
    13bc:	400114b7          	lui	s1,0x40011
    13c0:	37e9                	jal	138a <DHT11_IO_IN>
    13c2:	4401                	li	s0,0
    13c4:	40048493          	addi	s1,s1,1024 # 40011400 <_eusrstack+0x20009400>
    13c8:	06400913          	li	s2,100
    13cc:	40000593          	li	a1,1024
    13d0:	8526                	mv	a0,s1
    13d2:	5f2010ef          	jal	ra,29c4 <GPIO_ReadInputDataBit>
    13d6:	cd09                	beqz	a0,13f0 <DHT11_Check+0x38>
    13d8:	01241563          	bne	s0,s2,13e2 <DHT11_Check+0x2a>
    13dc:	4505                	li	a0,1
    13de:	e77fe06f          	j	254 <__riscv_restore_0>
    13e2:	0405                	addi	s0,s0,1
    13e4:	4505                	li	a0,1
    13e6:	0ff47413          	andi	s0,s0,255
    13ea:	511010ef          	jal	ra,30fa <delay_us>
    13ee:	bff9                	j	13cc <DHT11_Check+0x14>
    13f0:	06400793          	li	a5,100
    13f4:	fef404e3          	beq	s0,a5,13dc <DHT11_Check+0x24>
    13f8:	400114b7          	lui	s1,0x40011
    13fc:	4401                	li	s0,0
    13fe:	40048493          	addi	s1,s1,1024 # 40011400 <_eusrstack+0x20009400>
    1402:	06400913          	li	s2,100
    1406:	40000593          	li	a1,1024
    140a:	8526                	mv	a0,s1
    140c:	5b8010ef          	jal	ra,29c4 <GPIO_ReadInputDataBit>
    1410:	e911                	bnez	a0,1424 <DHT11_Check+0x6c>
    1412:	fd2405e3          	beq	s0,s2,13dc <DHT11_Check+0x24>
    1416:	0405                	addi	s0,s0,1
    1418:	4505                	li	a0,1
    141a:	0ff47413          	andi	s0,s0,255
    141e:	4dd010ef          	jal	ra,30fa <delay_us>
    1422:	b7d5                	j	1406 <DHT11_Check+0x4e>
    1424:	f9c40513          	addi	a0,s0,-100
    1428:	00153513          	seqz	a0,a0
    142c:	bf4d                	j	13de <DHT11_Check+0x26>

0000142e <DHT11_IO_OUT>:
    142e:	e03fe2ef          	jal	t0,230 <__riscv_save_0>
    1432:	1141                	addi	sp,sp,-16
    1434:	4585                	li	a1,1
    1436:	02000513          	li	a0,32
    143a:	265010ef          	jal	ra,2e9e <RCC_APB2PeriphClockCmd>
    143e:	40000793          	li	a5,1024
    1442:	827c                	sh	a5,4(sp)
    1444:	40011537          	lui	a0,0x40011
    1448:	47c1                	li	a5,16
    144a:	c63e                	sw	a5,12(sp)
    144c:	004c                	addi	a1,sp,4
    144e:	478d                	li	a5,3
    1450:	40050513          	addi	a0,a0,1024 # 40011400 <_eusrstack+0x20009400>
    1454:	c43e                	sw	a5,8(sp)
    1456:	4ae010ef          	jal	ra,2904 <GPIO_Init>
    145a:	0141                	addi	sp,sp,16
    145c:	df9fe06f          	j	254 <__riscv_restore_0>

00001460 <DHT11_Rst>:
    1460:	dd1fe2ef          	jal	t0,230 <__riscv_save_0>
    1464:	37e9                	jal	142e <DHT11_IO_OUT>
    1466:	40011437          	lui	s0,0x40011
    146a:	40000593          	li	a1,1024
    146e:	40040513          	addi	a0,s0,1024 # 40011400 <_eusrstack+0x20009400>
    1472:	560010ef          	jal	ra,29d2 <GPIO_ResetBits>
    1476:	4551                	li	a0,20
    1478:	4eb010ef          	jal	ra,3162 <delay_ms>
    147c:	40000593          	li	a1,1024
    1480:	40040513          	addi	a0,s0,1024
    1484:	54a010ef          	jal	ra,29ce <GPIO_SetBits>
    1488:	4579                	li	a0,30
    148a:	471010ef          	jal	ra,30fa <delay_us>
    148e:	dc7fe06f          	j	254 <__riscv_restore_0>

00001492 <DHT11_Read_Data>:
    1492:	d85fe2ef          	jal	t0,216 <__riscv_save_4>
    1496:	1141                	addi	sp,sp,-16
    1498:	892a                	mv	s2,a0
    149a:	89ae                	mv	s3,a1
    149c:	37d1                	jal	1460 <DHT11_Rst>
    149e:	3f29                	jal	13b8 <DHT11_Check>
    14a0:	4485                	li	s1,1
    14a2:	e90d                	bnez	a0,14d4 <DHT11_Read_Data+0x42>
    14a4:	84aa                	mv	s1,a0
    14a6:	4401                	li	s0,0
    14a8:	4a15                	li	s4,5
    14aa:	3d7d                	jal	1368 <DHT11_Read_Byte>
    14ac:	003c                	addi	a5,sp,8
    14ae:	97a2                	add	a5,a5,s0
    14b0:	a388                	sb	a0,0(a5)
    14b2:	0405                	addi	s0,s0,1
    14b4:	ff441be3          	bne	s0,s4,14aa <DHT11_Read_Data+0x18>
    14b8:	8414                	lbu	a3,8(sp)
    14ba:	849c                	lbu	a5,9(sp)
    14bc:	8518                	lbu	a4,10(sp)
    14be:	8590                	lbu	a2,11(sp)
    14c0:	97b6                	add	a5,a5,a3
    14c2:	97ba                	add	a5,a5,a4
    14c4:	97b2                	add	a5,a5,a2
    14c6:	8610                	lbu	a2,12(sp)
    14c8:	00c79663          	bne	a5,a2,14d4 <DHT11_Read_Data+0x42>
    14cc:	00d98023          	sb	a3,0(s3)
    14d0:	00e90023          	sb	a4,0(s2)
    14d4:	8526                	mv	a0,s1
    14d6:	0141                	addi	sp,sp,16
    14d8:	d73fe06f          	j	24a <__riscv_restore_4>

000014dc <DHT11_Init>:
    14dc:	d55fe2ef          	jal	t0,230 <__riscv_save_0>
    14e0:	1141                	addi	sp,sp,-16
    14e2:	4585                	li	a1,1
    14e4:	02000513          	li	a0,32
    14e8:	1b7010ef          	jal	ra,2e9e <RCC_APB2PeriphClockCmd>
    14ec:	40000793          	li	a5,1024
    14f0:	827c                	sh	a5,4(sp)
    14f2:	40011537          	lui	a0,0x40011
    14f6:	47c1                	li	a5,16
    14f8:	004c                	addi	a1,sp,4
    14fa:	c63e                	sw	a5,12(sp)
    14fc:	40050513          	addi	a0,a0,1024 # 40011400 <_eusrstack+0x20009400>
    1500:	478d                	li	a5,3
    1502:	c43e                	sw	a5,8(sp)
    1504:	400010ef          	jal	ra,2904 <GPIO_Init>
    1508:	3fa1                	jal	1460 <DHT11_Rst>
    150a:	357d                	jal	13b8 <DHT11_Check>
    150c:	0141                	addi	sp,sp,16
    150e:	d47fe06f          	j	254 <__riscv_restore_0>

00001512 <SPI_LCD_Init>:
    1512:	d05fe2ef          	jal	t0,216 <__riscv_save_4>
    1516:	1101                	addi	sp,sp,-32
    1518:	4585                	li	a1,1
    151a:	02c00513          	li	a0,44
    151e:	181010ef          	jal	ra,2e9e <RCC_APB2PeriphClockCmd>
    1522:	4585                	li	a1,1
    1524:	6521                	lui	a0,0x8
    1526:	40011437          	lui	s0,0x40011
    152a:	193010ef          	jal	ra,2ebc <RCC_APB1PeriphClockCmd>
    152e:	03800793          	li	a5,56
    1532:	4941                	li	s2,16
    1534:	448d                	li	s1,3
    1536:	858a                	mv	a1,sp
    1538:	40040513          	addi	a0,s0,1024 # 40011400 <_eusrstack+0x20009400>
    153c:	807c                	sh	a5,0(sp)
    153e:	c44a                	sw	s2,8(sp)
    1540:	c226                	sw	s1,4(sp)
    1542:	3c2010ef          	jal	ra,2904 <GPIO_Init>
    1546:	40040513          	addi	a0,s0,1024
    154a:	45a1                	li	a1,8
    154c:	482010ef          	jal	ra,29ce <GPIO_SetBits>
    1550:	40040513          	addi	a0,s0,1024
    1554:	45c1                	li	a1,16
    1556:	478010ef          	jal	ra,29ce <GPIO_SetBits>
    155a:	40040513          	addi	a0,s0,1024
    155e:	02000593          	li	a1,32
    1562:	46c010ef          	jal	ra,29ce <GPIO_SetBits>
    1566:	77e1                	lui	a5,0xffff8
    1568:	858a                	mv	a1,sp
    156a:	80040513          	addi	a0,s0,-2048
    156e:	807c                	sh	a5,0(sp)
    1570:	c44a                	sw	s2,8(sp)
    1572:	c226                	sw	s1,4(sp)
    1574:	390010ef          	jal	ra,2904 <GPIO_Init>
    1578:	80040513          	addi	a0,s0,-2048
    157c:	65a1                	lui	a1,0x8
    157e:	450010ef          	jal	ra,29ce <GPIO_SetBits>
    1582:	47a1                	li	a5,8
    1584:	49e1                	li	s3,24
    1586:	858a                	mv	a1,sp
    1588:	c0040513          	addi	a0,s0,-1024
    158c:	807c                	sh	a5,0(sp)
    158e:	c44e                	sw	s3,8(sp)
    1590:	c226                	sw	s1,4(sp)
    1592:	372010ef          	jal	ra,2904 <GPIO_Init>
    1596:	858a                	mv	a1,sp
    1598:	c0040513          	addi	a0,s0,-1024
    159c:	01211023          	sh	s2,0(sp)
    15a0:	c44a                	sw	s2,8(sp)
    15a2:	362010ef          	jal	ra,2904 <GPIO_Init>
    15a6:	02000793          	li	a5,32
    15aa:	858a                	mv	a1,sp
    15ac:	c0040513          	addi	a0,s0,-1024
    15b0:	807c                	sh	a5,0(sp)
    15b2:	c44e                	sw	s3,8(sp)
    15b4:	c226                	sw	s1,4(sp)
    15b6:	34e010ef          	jal	ra,2904 <GPIO_Init>
    15ba:	010407b7          	lui	a5,0x1040
    15be:	c63e                	sw	a5,12(sp)
    15c0:	020007b7          	lui	a5,0x2000
    15c4:	40004437          	lui	s0,0x40004
    15c8:	ca3e                	sw	a5,20(sp)
    15ca:	47a1                	li	a5,8
    15cc:	cc3e                	sw	a5,24(sp)
    15ce:	006c                	addi	a1,sp,12
    15d0:	479d                	li	a5,7
    15d2:	c0040513          	addi	a0,s0,-1024 # 40003c00 <_eusrstack+0x1fffbc00>
    15d6:	86fc                	sh	a5,28(sp)
    15d8:	c802                	sw	zero,16(sp)
    15da:	11f010ef          	jal	ra,2ef8 <SPI_Init>
    15de:	4585                	li	a1,1
    15e0:	c0040513          	addi	a0,s0,-1024
    15e4:	153010ef          	jal	ra,2f36 <SPI_Cmd>
    15e8:	6105                	addi	sp,sp,32
    15ea:	c61fe06f          	j	24a <__riscv_restore_4>

000015ee <spi_readwrite>:
    15ee:	c29fe2ef          	jal	t0,216 <__riscv_save_4>
    15f2:	400044b7          	lui	s1,0x40004
    15f6:	892a                	mv	s2,a0
    15f8:	0c900413          	li	s0,201
    15fc:	c0048993          	addi	s3,s1,-1024 # 40003c00 <_eusrstack+0x1fffbc00>
    1600:	4589                	li	a1,2
    1602:	854e                	mv	a0,s3
    1604:	155010ef          	jal	ra,2f58 <SPI_I2S_GetFlagStatus>
    1608:	c905                	beqz	a0,1638 <spi_readwrite+0x4a>
    160a:	85ca                	mv	a1,s2
    160c:	c0048513          	addi	a0,s1,-1024
    1610:	400044b7          	lui	s1,0x40004
    1614:	13d010ef          	jal	ra,2f50 <SPI_I2S_SendData>
    1618:	0c900413          	li	s0,201
    161c:	c0048913          	addi	s2,s1,-1024 # 40003c00 <_eusrstack+0x1fffbc00>
    1620:	4585                	li	a1,1
    1622:	854a                	mv	a0,s2
    1624:	135010ef          	jal	ra,2f58 <SPI_I2S_GetFlagStatus>
    1628:	cd19                	beqz	a0,1646 <spi_readwrite+0x58>
    162a:	c0048513          	addi	a0,s1,-1024
    162e:	127010ef          	jal	ra,2f54 <SPI_I2S_ReceiveData>
    1632:	0ff57513          	andi	a0,a0,255
    1636:	a031                	j	1642 <spi_readwrite+0x54>
    1638:	147d                	addi	s0,s0,-1
    163a:	0ff47413          	andi	s0,s0,255
    163e:	f069                	bnez	s0,1600 <spi_readwrite+0x12>
    1640:	4501                	li	a0,0
    1642:	c09fe06f          	j	24a <__riscv_restore_4>
    1646:	147d                	addi	s0,s0,-1
    1648:	0ff47413          	andi	s0,s0,255
    164c:	f871                	bnez	s0,1620 <spi_readwrite+0x32>
    164e:	bfcd                	j	1640 <spi_readwrite+0x52>

00001650 <LCD_WR_DATA8>:
    1650:	be1fe2ef          	jal	t0,230 <__riscv_save_0>
    1654:	40011437          	lui	s0,0x40011
    1658:	84aa                	mv	s1,a0
    165a:	45c1                	li	a1,16
    165c:	40040513          	addi	a0,s0,1024 # 40011400 <_eusrstack+0x20009400>
    1660:	372010ef          	jal	ra,29d2 <GPIO_ResetBits>
    1664:	45a1                	li	a1,8
    1666:	40040513          	addi	a0,s0,1024
    166a:	364010ef          	jal	ra,29ce <GPIO_SetBits>
    166e:	8526                	mv	a0,s1
    1670:	3fbd                	jal	15ee <spi_readwrite>
    1672:	45c1                	li	a1,16
    1674:	40040513          	addi	a0,s0,1024
    1678:	356010ef          	jal	ra,29ce <GPIO_SetBits>
    167c:	bd9fe06f          	j	254 <__riscv_restore_0>

00001680 <LCD_WR_DATA>:
    1680:	bb1fe2ef          	jal	t0,230 <__riscv_save_0>
    1684:	40011437          	lui	s0,0x40011
    1688:	84aa                	mv	s1,a0
    168a:	45c1                	li	a1,16
    168c:	40040513          	addi	a0,s0,1024 # 40011400 <_eusrstack+0x20009400>
    1690:	342010ef          	jal	ra,29d2 <GPIO_ResetBits>
    1694:	45a1                	li	a1,8
    1696:	40040513          	addi	a0,s0,1024
    169a:	334010ef          	jal	ra,29ce <GPIO_SetBits>
    169e:	0084d513          	srli	a0,s1,0x8
    16a2:	37b1                	jal	15ee <spi_readwrite>
    16a4:	0ff4f513          	andi	a0,s1,255
    16a8:	3799                	jal	15ee <spi_readwrite>
    16aa:	45c1                	li	a1,16
    16ac:	40040513          	addi	a0,s0,1024
    16b0:	31e010ef          	jal	ra,29ce <GPIO_SetBits>
    16b4:	ba1fe06f          	j	254 <__riscv_restore_0>

000016b8 <LCD_WR_REG>:
    16b8:	b79fe2ef          	jal	t0,230 <__riscv_save_0>
    16bc:	40011437          	lui	s0,0x40011
    16c0:	84aa                	mv	s1,a0
    16c2:	45c1                	li	a1,16
    16c4:	40040513          	addi	a0,s0,1024 # 40011400 <_eusrstack+0x20009400>
    16c8:	30a010ef          	jal	ra,29d2 <GPIO_ResetBits>
    16cc:	45a1                	li	a1,8
    16ce:	40040513          	addi	a0,s0,1024
    16d2:	300010ef          	jal	ra,29d2 <GPIO_ResetBits>
    16d6:	8526                	mv	a0,s1
    16d8:	3f19                	jal	15ee <spi_readwrite>
    16da:	45c1                	li	a1,16
    16dc:	40040513          	addi	a0,s0,1024
    16e0:	2ee010ef          	jal	ra,29ce <GPIO_SetBits>
    16e4:	b71fe06f          	j	254 <__riscv_restore_0>

000016e8 <LCD_Address_Set>:
    16e8:	b49fe2ef          	jal	t0,230 <__riscv_save_0>
    16ec:	1141                	addi	sp,sp,-16
    16ee:	842a                	mv	s0,a0
    16f0:	02a00513          	li	a0,42
    16f4:	c236                	sw	a3,4(sp)
    16f6:	c62e                	sw	a1,12(sp)
    16f8:	c432                	sw	a2,8(sp)
    16fa:	3f7d                	jal	16b8 <LCD_WR_REG>
    16fc:	00240513          	addi	a0,s0,2
    1700:	0542                	slli	a0,a0,0x10
    1702:	8141                	srli	a0,a0,0x10
    1704:	3fb5                	jal	1680 <LCD_WR_DATA>
    1706:	4622                	lw	a2,8(sp)
    1708:	0609                	addi	a2,a2,2
    170a:	01061513          	slli	a0,a2,0x10
    170e:	8141                	srli	a0,a0,0x10
    1710:	3f85                	jal	1680 <LCD_WR_DATA>
    1712:	02b00513          	li	a0,43
    1716:	374d                	jal	16b8 <LCD_WR_REG>
    1718:	45b2                	lw	a1,12(sp)
    171a:	058d                	addi	a1,a1,3
    171c:	01059513          	slli	a0,a1,0x10
    1720:	8141                	srli	a0,a0,0x10
    1722:	3fb9                	jal	1680 <LCD_WR_DATA>
    1724:	4692                	lw	a3,4(sp)
    1726:	068d                	addi	a3,a3,3
    1728:	01069513          	slli	a0,a3,0x10
    172c:	8141                	srli	a0,a0,0x10
    172e:	3f89                	jal	1680 <LCD_WR_DATA>
    1730:	02c00513          	li	a0,44
    1734:	3751                	jal	16b8 <LCD_WR_REG>
    1736:	0141                	addi	sp,sp,16
    1738:	b1dfe06f          	j	254 <__riscv_restore_0>

0000173c <LCD_Init>:
    173c:	af5fe2ef          	jal	t0,230 <__riscv_save_0>
    1740:	dd3ff0ef          	jal	ra,1512 <SPI_LCD_Init>
    1744:	40011437          	lui	s0,0x40011
    1748:	45c1                	li	a1,16
    174a:	c0040513          	addi	a0,s0,-1024 # 40010c00 <_eusrstack+0x20008c00>
    174e:	284010ef          	jal	ra,29d2 <GPIO_ResetBits>
    1752:	06400513          	li	a0,100
    1756:	1df010ef          	jal	ra,3134 <Delay_Ms>
    175a:	45c1                	li	a1,16
    175c:	c0040513          	addi	a0,s0,-1024
    1760:	26e010ef          	jal	ra,29ce <GPIO_SetBits>
    1764:	06400513          	li	a0,100
    1768:	1cd010ef          	jal	ra,3134 <Delay_Ms>
    176c:	02000593          	li	a1,32
    1770:	40040513          	addi	a0,s0,1024
    1774:	25a010ef          	jal	ra,29ce <GPIO_SetBits>
    1778:	06400513          	li	a0,100
    177c:	1b9010ef          	jal	ra,3134 <Delay_Ms>
    1780:	4545                	li	a0,17
    1782:	f37ff0ef          	jal	ra,16b8 <LCD_WR_REG>
    1786:	07800513          	li	a0,120
    178a:	1ab010ef          	jal	ra,3134 <Delay_Ms>
    178e:	0b100513          	li	a0,177
    1792:	f27ff0ef          	jal	ra,16b8 <LCD_WR_REG>
    1796:	4515                	li	a0,5
    1798:	eb9ff0ef          	jal	ra,1650 <LCD_WR_DATA8>
    179c:	03c00513          	li	a0,60
    17a0:	eb1ff0ef          	jal	ra,1650 <LCD_WR_DATA8>
    17a4:	03c00513          	li	a0,60
    17a8:	ea9ff0ef          	jal	ra,1650 <LCD_WR_DATA8>
    17ac:	0b200513          	li	a0,178
    17b0:	f09ff0ef          	jal	ra,16b8 <LCD_WR_REG>
    17b4:	4515                	li	a0,5
    17b6:	e9bff0ef          	jal	ra,1650 <LCD_WR_DATA8>
    17ba:	03c00513          	li	a0,60
    17be:	e93ff0ef          	jal	ra,1650 <LCD_WR_DATA8>
    17c2:	03c00513          	li	a0,60
    17c6:	e8bff0ef          	jal	ra,1650 <LCD_WR_DATA8>
    17ca:	0b300513          	li	a0,179
    17ce:	eebff0ef          	jal	ra,16b8 <LCD_WR_REG>
    17d2:	4515                	li	a0,5
    17d4:	e7dff0ef          	jal	ra,1650 <LCD_WR_DATA8>
    17d8:	03c00513          	li	a0,60
    17dc:	e75ff0ef          	jal	ra,1650 <LCD_WR_DATA8>
    17e0:	03c00513          	li	a0,60
    17e4:	e6dff0ef          	jal	ra,1650 <LCD_WR_DATA8>
    17e8:	4515                	li	a0,5
    17ea:	e67ff0ef          	jal	ra,1650 <LCD_WR_DATA8>
    17ee:	03c00513          	li	a0,60
    17f2:	e5fff0ef          	jal	ra,1650 <LCD_WR_DATA8>
    17f6:	03c00513          	li	a0,60
    17fa:	e57ff0ef          	jal	ra,1650 <LCD_WR_DATA8>
    17fe:	0b400513          	li	a0,180
    1802:	eb7ff0ef          	jal	ra,16b8 <LCD_WR_REG>
    1806:	450d                	li	a0,3
    1808:	e49ff0ef          	jal	ra,1650 <LCD_WR_DATA8>
    180c:	03a00513          	li	a0,58
    1810:	ea9ff0ef          	jal	ra,16b8 <LCD_WR_REG>
    1814:	4515                	li	a0,5
    1816:	e3bff0ef          	jal	ra,1650 <LCD_WR_DATA8>
    181a:	0c000513          	li	a0,192
    181e:	e9bff0ef          	jal	ra,16b8 <LCD_WR_REG>
    1822:	0a200513          	li	a0,162
    1826:	e2bff0ef          	jal	ra,1650 <LCD_WR_DATA8>
    182a:	4509                	li	a0,2
    182c:	e25ff0ef          	jal	ra,1650 <LCD_WR_DATA8>
    1830:	08400513          	li	a0,132
    1834:	e1dff0ef          	jal	ra,1650 <LCD_WR_DATA8>
    1838:	0c100513          	li	a0,193
    183c:	e7dff0ef          	jal	ra,16b8 <LCD_WR_REG>
    1840:	0c500513          	li	a0,197
    1844:	e0dff0ef          	jal	ra,1650 <LCD_WR_DATA8>
    1848:	0c200513          	li	a0,194
    184c:	e6dff0ef          	jal	ra,16b8 <LCD_WR_REG>
    1850:	4535                	li	a0,13
    1852:	dffff0ef          	jal	ra,1650 <LCD_WR_DATA8>
    1856:	4501                	li	a0,0
    1858:	df9ff0ef          	jal	ra,1650 <LCD_WR_DATA8>
    185c:	0c300513          	li	a0,195
    1860:	e59ff0ef          	jal	ra,16b8 <LCD_WR_REG>
    1864:	08d00513          	li	a0,141
    1868:	de9ff0ef          	jal	ra,1650 <LCD_WR_DATA8>
    186c:	02a00513          	li	a0,42
    1870:	de1ff0ef          	jal	ra,1650 <LCD_WR_DATA8>
    1874:	0c400513          	li	a0,196
    1878:	e41ff0ef          	jal	ra,16b8 <LCD_WR_REG>
    187c:	08d00513          	li	a0,141
    1880:	dd1ff0ef          	jal	ra,1650 <LCD_WR_DATA8>
    1884:	0ee00513          	li	a0,238
    1888:	dc9ff0ef          	jal	ra,1650 <LCD_WR_DATA8>
    188c:	0c500513          	li	a0,197
    1890:	e29ff0ef          	jal	ra,16b8 <LCD_WR_REG>
    1894:	4529                	li	a0,10
    1896:	dbbff0ef          	jal	ra,1650 <LCD_WR_DATA8>
    189a:	03600513          	li	a0,54
    189e:	e1bff0ef          	jal	ra,16b8 <LCD_WR_REG>
    18a2:	0c800513          	li	a0,200
    18a6:	dabff0ef          	jal	ra,1650 <LCD_WR_DATA8>
    18aa:	0e000513          	li	a0,224
    18ae:	e0bff0ef          	jal	ra,16b8 <LCD_WR_REG>
    18b2:	4549                	li	a0,18
    18b4:	d9dff0ef          	jal	ra,1650 <LCD_WR_DATA8>
    18b8:	4571                	li	a0,28
    18ba:	d97ff0ef          	jal	ra,1650 <LCD_WR_DATA8>
    18be:	4541                	li	a0,16
    18c0:	d91ff0ef          	jal	ra,1650 <LCD_WR_DATA8>
    18c4:	4561                	li	a0,24
    18c6:	d8bff0ef          	jal	ra,1650 <LCD_WR_DATA8>
    18ca:	03300513          	li	a0,51
    18ce:	d83ff0ef          	jal	ra,1650 <LCD_WR_DATA8>
    18d2:	02c00513          	li	a0,44
    18d6:	d7bff0ef          	jal	ra,1650 <LCD_WR_DATA8>
    18da:	02500513          	li	a0,37
    18de:	d73ff0ef          	jal	ra,1650 <LCD_WR_DATA8>
    18e2:	02800513          	li	a0,40
    18e6:	d6bff0ef          	jal	ra,1650 <LCD_WR_DATA8>
    18ea:	02800513          	li	a0,40
    18ee:	d63ff0ef          	jal	ra,1650 <LCD_WR_DATA8>
    18f2:	02700513          	li	a0,39
    18f6:	d5bff0ef          	jal	ra,1650 <LCD_WR_DATA8>
    18fa:	02f00513          	li	a0,47
    18fe:	d53ff0ef          	jal	ra,1650 <LCD_WR_DATA8>
    1902:	03c00513          	li	a0,60
    1906:	d4bff0ef          	jal	ra,1650 <LCD_WR_DATA8>
    190a:	4501                	li	a0,0
    190c:	d45ff0ef          	jal	ra,1650 <LCD_WR_DATA8>
    1910:	450d                	li	a0,3
    1912:	d3fff0ef          	jal	ra,1650 <LCD_WR_DATA8>
    1916:	450d                	li	a0,3
    1918:	d39ff0ef          	jal	ra,1650 <LCD_WR_DATA8>
    191c:	4541                	li	a0,16
    191e:	d33ff0ef          	jal	ra,1650 <LCD_WR_DATA8>
    1922:	0e100513          	li	a0,225
    1926:	d93ff0ef          	jal	ra,16b8 <LCD_WR_REG>
    192a:	4549                	li	a0,18
    192c:	d25ff0ef          	jal	ra,1650 <LCD_WR_DATA8>
    1930:	4571                	li	a0,28
    1932:	d1fff0ef          	jal	ra,1650 <LCD_WR_DATA8>
    1936:	4541                	li	a0,16
    1938:	d19ff0ef          	jal	ra,1650 <LCD_WR_DATA8>
    193c:	4561                	li	a0,24
    193e:	d13ff0ef          	jal	ra,1650 <LCD_WR_DATA8>
    1942:	02d00513          	li	a0,45
    1946:	d0bff0ef          	jal	ra,1650 <LCD_WR_DATA8>
    194a:	02800513          	li	a0,40
    194e:	d03ff0ef          	jal	ra,1650 <LCD_WR_DATA8>
    1952:	02300513          	li	a0,35
    1956:	cfbff0ef          	jal	ra,1650 <LCD_WR_DATA8>
    195a:	02800513          	li	a0,40
    195e:	cf3ff0ef          	jal	ra,1650 <LCD_WR_DATA8>
    1962:	02800513          	li	a0,40
    1966:	cebff0ef          	jal	ra,1650 <LCD_WR_DATA8>
    196a:	02600513          	li	a0,38
    196e:	ce3ff0ef          	jal	ra,1650 <LCD_WR_DATA8>
    1972:	02f00513          	li	a0,47
    1976:	cdbff0ef          	jal	ra,1650 <LCD_WR_DATA8>
    197a:	03b00513          	li	a0,59
    197e:	cd3ff0ef          	jal	ra,1650 <LCD_WR_DATA8>
    1982:	4501                	li	a0,0
    1984:	ccdff0ef          	jal	ra,1650 <LCD_WR_DATA8>
    1988:	450d                	li	a0,3
    198a:	cc7ff0ef          	jal	ra,1650 <LCD_WR_DATA8>
    198e:	450d                	li	a0,3
    1990:	cc1ff0ef          	jal	ra,1650 <LCD_WR_DATA8>
    1994:	4541                	li	a0,16
    1996:	cbbff0ef          	jal	ra,1650 <LCD_WR_DATA8>
    199a:	02000513          	li	a0,32
    199e:	d1bff0ef          	jal	ra,16b8 <LCD_WR_REG>
    19a2:	454d                	li	a0,19
    19a4:	d15ff0ef          	jal	ra,16b8 <LCD_WR_REG>
    19a8:	02a00513          	li	a0,42
    19ac:	d0dff0ef          	jal	ra,16b8 <LCD_WR_REG>
    19b0:	4501                	li	a0,0
    19b2:	c9fff0ef          	jal	ra,1650 <LCD_WR_DATA8>
    19b6:	4501                	li	a0,0
    19b8:	c99ff0ef          	jal	ra,1650 <LCD_WR_DATA8>
    19bc:	4501                	li	a0,0
    19be:	c93ff0ef          	jal	ra,1650 <LCD_WR_DATA8>
    19c2:	07f00513          	li	a0,127
    19c6:	c8bff0ef          	jal	ra,1650 <LCD_WR_DATA8>
    19ca:	02b00513          	li	a0,43
    19ce:	cebff0ef          	jal	ra,16b8 <LCD_WR_REG>
    19d2:	4501                	li	a0,0
    19d4:	c7dff0ef          	jal	ra,1650 <LCD_WR_DATA8>
    19d8:	4501                	li	a0,0
    19da:	c77ff0ef          	jal	ra,1650 <LCD_WR_DATA8>
    19de:	4501                	li	a0,0
    19e0:	c71ff0ef          	jal	ra,1650 <LCD_WR_DATA8>
    19e4:	07f00513          	li	a0,127
    19e8:	c69ff0ef          	jal	ra,1650 <LCD_WR_DATA8>
    19ec:	02900513          	li	a0,41
    19f0:	cc9ff0ef          	jal	ra,16b8 <LCD_WR_REG>
    19f4:	861fe06f          	j	254 <__riscv_restore_0>

000019f8 <LCD_Fill>:
    19f8:	81ffe2ef          	jal	t0,216 <__riscv_save_4>
    19fc:	89b2                	mv	s3,a2
    19fe:	8936                	mv	s2,a3
    1a00:	167d                	addi	a2,a2,-1
    1a02:	16fd                	addi	a3,a3,-1
    1a04:	06c2                	slli	a3,a3,0x10
    1a06:	0642                	slli	a2,a2,0x10
    1a08:	82c1                	srli	a3,a3,0x10
    1a0a:	8241                	srli	a2,a2,0x10
    1a0c:	8a2a                	mv	s4,a0
    1a0e:	842e                	mv	s0,a1
    1a10:	8aba                	mv	s5,a4
    1a12:	cd7ff0ef          	jal	ra,16e8 <LCD_Address_Set>
    1a16:	03246063          	bltu	s0,s2,1a36 <LCD_Fill+0x3e>
    1a1a:	831fe06f          	j	24a <__riscv_restore_4>
    1a1e:	0485                	addi	s1,s1,1
    1a20:	8556                	mv	a0,s5
    1a22:	04c2                	slli	s1,s1,0x10
    1a24:	c5dff0ef          	jal	ra,1680 <LCD_WR_DATA>
    1a28:	80c1                	srli	s1,s1,0x10
    1a2a:	ff34eae3          	bltu	s1,s3,1a1e <LCD_Fill+0x26>
    1a2e:	0405                	addi	s0,s0,1
    1a30:	0442                	slli	s0,s0,0x10
    1a32:	8041                	srli	s0,s0,0x10
    1a34:	b7cd                	j	1a16 <LCD_Fill+0x1e>
    1a36:	84d2                	mv	s1,s4
    1a38:	bfcd                	j	1a2a <LCD_Fill+0x32>

00001a3a <LCD_DrawPoint>:
    1a3a:	ff6fe2ef          	jal	t0,230 <__riscv_save_0>
    1a3e:	8432                	mv	s0,a2
    1a40:	86ae                	mv	a3,a1
    1a42:	862a                	mv	a2,a0
    1a44:	ca5ff0ef          	jal	ra,16e8 <LCD_Address_Set>
    1a48:	8522                	mv	a0,s0
    1a4a:	c37ff0ef          	jal	ra,1680 <LCD_WR_DATA>
    1a4e:	807fe06f          	j	254 <__riscv_restore_0>

00001a52 <LCD_ShowChar>:
    1a52:	faefe2ef          	jal	t0,200 <__riscv_save_12>
    1a56:	1101                	addi	sp,sp,-32
    1a58:	8b36                	mv	s6,a3
    1a5a:	01079693          	slli	a3,a5,0x10
    1a5e:	cc3a                	sw	a4,24(sp)
    1a60:	82c1                	srli	a3,a3,0x10
    1a62:	0047d713          	srli	a4,a5,0x4
    1a66:	0017da93          	srli	s5,a5,0x1
    1a6a:	8d3e                	mv	s10,a5
    1a6c:	02e687b3          	mul	a5,a3,a4
    1a70:	8932                	mv	s2,a2
    1a72:	fff58713          	addi	a4,a1,-1 # 7fff <_data_lma+0x7cb>
    1a76:	fff50613          	addi	a2,a0,-1 # 7fff <_data_lma+0x7cb>
    1a7a:	96ba                	add	a3,a3,a4
    1a7c:	9656                	add	a2,a2,s5
    1a7e:	06c2                	slli	a3,a3,0x10
    1a80:	0642                	slli	a2,a2,0x10
    1a82:	8241                	srli	a2,a2,0x10
    1a84:	82c1                	srli	a3,a3,0x10
    1a86:	84aa                	mv	s1,a0
    1a88:	ca3e                	sw	a5,20(sp)
    1a8a:	842e                	mv	s0,a1
    1a8c:	ce42                	sw	a6,28(sp)
    1a8e:	c5bff0ef          	jal	ra,16e8 <LCD_Address_Set>
    1a92:	fe090613          	addi	a2,s2,-32
    1a96:	0ff67613          	andi	a2,a2,255
    1a9a:	00661793          	slli	a5,a2,0x6
    1a9e:	c63e                	sw	a5,12(sp)
    1aa0:	6999                	lui	s3,0x6
    1aa2:	00461793          	slli	a5,a2,0x4
    1aa6:	6a19                	lui	s4,0x6
    1aa8:	c83e                	sw	a5,16(sp)
    1aaa:	8ca6                	mv	s9,s1
    1aac:	4c01                	li	s8,0
    1aae:	df498993          	addi	s3,s3,-524 # 5df4 <ascii_3216>
    1ab2:	804a0a13          	addi	s4,s4,-2044 # 5804 <ascii_1608>
    1ab6:	4da1                	li	s11,8
    1ab8:	47d2                	lw	a5,20(sp)
    1aba:	010c1613          	slli	a2,s8,0x10
    1abe:	8241                	srli	a2,a2,0x10
    1ac0:	00f66563          	bltu	a2,a5,1aca <LCD_ShowChar+0x78>
    1ac4:	6105                	addi	sp,sp,32
    1ac6:	f76fe06f          	j	23c <__riscv_restore_12>
    1aca:	47c1                	li	a5,16
    1acc:	02fd1763          	bne	s10,a5,1afa <LCD_ShowChar+0xa8>
    1ad0:	47c2                	lw	a5,16(sp)
    1ad2:	01878633          	add	a2,a5,s8
    1ad6:	9652                	add	a2,a2,s4
    1ad8:	00064b83          	lbu	s7,0(a2)
    1adc:	4901                	li	s2,0
    1ade:	47f2                	lw	a5,28(sp)
    1ae0:	412bd633          	sra	a2,s7,s2
    1ae4:	8a05                	andi	a2,a2,1
    1ae6:	e39d                	bnez	a5,1b0c <LCD_ShowChar+0xba>
    1ae8:	855a                	mv	a0,s6
    1aea:	e211                	bnez	a2,1aee <LCD_ShowChar+0x9c>
    1aec:	4562                	lw	a0,24(sp)
    1aee:	b93ff0ef          	jal	ra,1680 <LCD_WR_DATA>
    1af2:	0905                	addi	s2,s2,1
    1af4:	ffb915e3          	bne	s2,s11,1ade <LCD_ShowChar+0x8c>
    1af8:	a835                	j	1b34 <LCD_ShowChar+0xe2>
    1afa:	02000793          	li	a5,32
    1afe:	fcfd13e3          	bne	s10,a5,1ac4 <LCD_ShowChar+0x72>
    1b02:	47b2                	lw	a5,12(sp)
    1b04:	01878633          	add	a2,a5,s8
    1b08:	964e                	add	a2,a2,s3
    1b0a:	b7f9                	j	1ad8 <LCD_ShowChar+0x86>
    1b0c:	c611                	beqz	a2,1b18 <LCD_ShowChar+0xc6>
    1b0e:	865a                	mv	a2,s6
    1b10:	85a2                	mv	a1,s0
    1b12:	8566                	mv	a0,s9
    1b14:	f27ff0ef          	jal	ra,1a3a <LCD_DrawPoint>
    1b18:	001c8713          	addi	a4,s9,1
    1b1c:	01071c93          	slli	s9,a4,0x10
    1b20:	010cdc93          	srli	s9,s9,0x10
    1b24:	409c8633          	sub	a2,s9,s1
    1b28:	fd5615e3          	bne	a2,s5,1af2 <LCD_ShowChar+0xa0>
    1b2c:	0405                	addi	s0,s0,1
    1b2e:	0442                	slli	s0,s0,0x10
    1b30:	8041                	srli	s0,s0,0x10
    1b32:	8ca6                	mv	s9,s1
    1b34:	0c05                	addi	s8,s8,1
    1b36:	b749                	j	1ab8 <LCD_ShowChar+0x66>

00001b38 <LCD_ShowString>:
    1b38:	ed0fe2ef          	jal	t0,208 <__riscv_save_10>
    1b3c:	842a                	mv	s0,a0
    1b3e:	8a2e                	mv	s4,a1
    1b40:	84b2                	mv	s1,a2
    1b42:	8ab6                	mv	s5,a3
    1b44:	8b3a                	mv	s6,a4
    1b46:	8bc2                	mv	s7,a6
    1b48:	893e                	mv	s2,a5
    1b4a:	0017d993          	srli	s3,a5,0x1
    1b4e:	2090                	lbu	a2,0(s1)
    1b50:	e219                	bnez	a2,1b56 <LCD_ShowString+0x1e>
    1b52:	eeefe06f          	j	240 <__riscv_restore_10>
    1b56:	8522                	mv	a0,s0
    1b58:	944e                	add	s0,s0,s3
    1b5a:	885e                	mv	a6,s7
    1b5c:	87ca                	mv	a5,s2
    1b5e:	875a                	mv	a4,s6
    1b60:	86d6                	mv	a3,s5
    1b62:	85d2                	mv	a1,s4
    1b64:	0442                	slli	s0,s0,0x10
    1b66:	eedff0ef          	jal	ra,1a52 <LCD_ShowChar>
    1b6a:	8041                	srli	s0,s0,0x10
    1b6c:	0485                	addi	s1,s1,1
    1b6e:	b7c5                	j	1b4e <LCD_ShowString+0x16>

00001b70 <LCD_ShowIntNum>:
    1b70:	e90fe2ef          	jal	t0,200 <__riscv_save_12>
    1b74:	1141                	addi	sp,sp,-16
    1b76:	8a3e                	mv	s4,a5
    1b78:	fff68a93          	addi	s5,a3,-1
    1b7c:	00185793          	srli	a5,a6,0x1
    1b80:	8d2a                	mv	s10,a0
    1b82:	892e                	mv	s2,a1
    1b84:	8c32                	mv	s8,a2
    1b86:	89ba                	mv	s3,a4
    1b88:	8bc2                	mv	s7,a6
    1b8a:	c63e                	sw	a5,12(sp)
    1b8c:	0ffafc93          	andi	s9,s5,255
    1b90:	4d81                	li	s11,0
    1b92:	4481                	li	s1,0
    1b94:	0ff00413          	li	s0,255
    1b98:	4b29                	li	s6,10
    1b9a:	008c9563          	bne	s9,s0,1ba4 <LCD_ShowIntNum+0x34>
    1b9e:	0141                	addi	sp,sp,16
    1ba0:	e9cfe06f          	j	23c <__riscv_restore_12>
    1ba4:	8766                	mv	a4,s9
    1ba6:	4785                	li	a5,1
    1ba8:	177d                	addi	a4,a4,-1
    1baa:	0ff77713          	andi	a4,a4,255
    1bae:	04871063          	bne	a4,s0,1bee <LCD_ShowIntNum+0x7e>
    1bb2:	02fc57b3          	divu	a5,s8,a5
    1bb6:	0367f7b3          	remu	a5,a5,s6
    1bba:	0ff7f613          	andi	a2,a5,255
    1bbe:	ec85                	bnez	s1,1bf6 <LCD_ShowIntNum+0x86>
    1bc0:	035ddb63          	bge	s11,s5,1bf6 <LCD_ShowIntNum+0x86>
    1bc4:	eb85                	bnez	a5,1bf4 <LCD_ShowIntNum+0x84>
    1bc6:	4801                	li	a6,0
    1bc8:	87de                	mv	a5,s7
    1bca:	8752                	mv	a4,s4
    1bcc:	86ce                	mv	a3,s3
    1bce:	02000613          	li	a2,32
    1bd2:	856a                	mv	a0,s10
    1bd4:	85ca                	mv	a1,s2
    1bd6:	e7dff0ef          	jal	ra,1a52 <LCD_ShowChar>
    1bda:	47b2                	lw	a5,12(sp)
    1bdc:	1cfd                	addi	s9,s9,-1
    1bde:	0d85                	addi	s11,s11,1
    1be0:	9d3e                	add	s10,s10,a5
    1be2:	0d42                	slli	s10,s10,0x10
    1be4:	010d5d13          	srli	s10,s10,0x10
    1be8:	0ffcfc93          	andi	s9,s9,255
    1bec:	b77d                	j	1b9a <LCD_ShowIntNum+0x2a>
    1bee:	036787b3          	mul	a5,a5,s6
    1bf2:	bf5d                	j	1ba8 <LCD_ShowIntNum+0x38>
    1bf4:	4485                	li	s1,1
    1bf6:	4801                	li	a6,0
    1bf8:	87de                	mv	a5,s7
    1bfa:	8752                	mv	a4,s4
    1bfc:	86ce                	mv	a3,s3
    1bfe:	03060613          	addi	a2,a2,48
    1c02:	bfc1                	j	1bd2 <LCD_ShowIntNum+0x62>

00001c04 <max30102_Init>:
    1c04:	e12fe2ef          	jal	t0,216 <__riscv_save_4>
    1c08:	00007437          	lui	s0,0x7
    1c0c:	5f440513          	addi	a0,s0,1524 # 75f4 <ascii_3216+0x1800>
    1c10:	011000ef          	jal	ra,2420 <Uart3_SendStr>
    1c14:	00007937          	lui	s2,0x7
    1c18:	c099                	beqz	s1,1c1e <max30102_Init+0x1a>
    1c1a:	e30fe06f          	j	24a <__riscv_restore_4>
    1c1e:	5f440513          	addi	a0,s0,1524
    1c22:	7fe000ef          	jal	ra,2420 <Uart3_SendStr>
    1c26:	2bc00513          	li	a0,700
    1c2a:	538010ef          	jal	ra,3162 <delay_ms>
    1c2e:	5fc90593          	addi	a1,s2,1532 # 75fc <ascii_3216+0x1808>
    1c32:	96c18513          	addi	a0,gp,-1684 # 200001ec <RxBuffer3>
    1c36:	139020ef          	jal	ra,456e <strstr>
    1c3a:	84aa                	mv	s1,a0
    1c3c:	bff1                	j	1c18 <max30102_Init+0x14>

00001c3e <read_max30102>:
    1c3e:	dd8fe2ef          	jal	t0,216 <__riscv_save_4>
    1c42:	8a2a                	mv	s4,a0
    1c44:	450d                	li	a0,3
    1c46:	89ae                	mv	s3,a1
    1c48:	00007437          	lui	s0,0x7
    1c4c:	00b000ef          	jal	ra,2456 <Clear_Buffer>
    1c50:	60040513          	addi	a0,s0,1536 # 7600 <ascii_3216+0x180c>
    1c54:	7cc000ef          	jal	ra,2420 <Uart3_SendStr>
    1c58:	06400513          	li	a0,100
    1c5c:	506010ef          	jal	ra,3162 <delay_ms>
    1c60:	00007937          	lui	s2,0x7
    1c64:	5fc90593          	addi	a1,s2,1532 # 75fc <ascii_3216+0x1808>
    1c68:	96c18513          	addi	a0,gp,-1684 # 200001ec <RxBuffer3>
    1c6c:	103020ef          	jal	ra,456e <strstr>
    1c70:	8aaa                	mv	s5,a0
    1c72:	06400513          	li	a0,100
    1c76:	4ec010ef          	jal	ra,3162 <delay_ms>
    1c7a:	080a8263          	beqz	s5,1cfe <read_max30102+0xc0>
    1c7e:	96c18793          	addi	a5,gp,-1684 # 200001ec <RxBuffer3>
    1c82:	33f8                	lbu	a4,7(a5)
    1c84:	04e00793          	li	a5,78
    1c88:	96c18413          	addi	s0,gp,-1684 # 200001ec <RxBuffer3>
    1c8c:	02f70063          	beq	a4,a5,1cac <read_max30102+0x6e>
    1c90:	000a0123          	sb	zero,2(s4)
    1c94:	307c                	lbu	a5,7(s0)
    1c96:	4735                	li	a4,13
    1c98:	00fa0023          	sb	a5,0(s4)
    1c9c:	241c                	lbu	a5,8(s0)
    1c9e:	00fa00a3          	sb	a5,1(s4)
    1ca2:	341c                	lbu	a5,9(s0)
    1ca4:	00e78463          	beq	a5,a4,1cac <read_max30102+0x6e>
    1ca8:	00fa0123          	sb	a5,2(s4)
    1cac:	450d                	li	a0,3
    1cae:	7a8000ef          	jal	ra,2456 <Clear_Buffer>
    1cb2:	00007a37          	lui	s4,0x7
    1cb6:	60ca0513          	addi	a0,s4,1548 # 760c <ascii_3216+0x1818>
    1cba:	766000ef          	jal	ra,2420 <Uart3_SendStr>
    1cbe:	06400513          	li	a0,100
    1cc2:	4a0010ef          	jal	ra,3162 <delay_ms>
    1cc6:	5fc90593          	addi	a1,s2,1532
    1cca:	96c18513          	addi	a0,gp,-1684 # 200001ec <RxBuffer3>
    1cce:	0a1020ef          	jal	ra,456e <strstr>
    1cd2:	d175                	beqz	a0,1cb6 <read_max30102+0x78>
    1cd4:	2078                	lbu	a4,6(s0)
    1cd6:	04e00793          	li	a5,78
    1cda:	02f70063          	beq	a4,a5,1cfa <read_max30102+0xbc>
    1cde:	00098123          	sb	zero,2(s3)
    1ce2:	207c                	lbu	a5,6(s0)
    1ce4:	4735                	li	a4,13
    1ce6:	00f98023          	sb	a5,0(s3)
    1cea:	307c                	lbu	a5,7(s0)
    1cec:	00f980a3          	sb	a5,1(s3)
    1cf0:	241c                	lbu	a5,8(s0)
    1cf2:	00e78463          	beq	a5,a4,1cfa <read_max30102+0xbc>
    1cf6:	00f98123          	sb	a5,2(s3)
    1cfa:	d50fe06f          	j	24a <__riscv_restore_4>
    1cfe:	60040513          	addi	a0,s0,1536
    1d02:	71e000ef          	jal	ra,2420 <Uart3_SendStr>
    1d06:	06400513          	li	a0,100
    1d0a:	458010ef          	jal	ra,3162 <delay_ms>
    1d0e:	5fc90593          	addi	a1,s2,1532
    1d12:	96c18513          	addi	a0,gp,-1684 # 200001ec <RxBuffer3>
    1d16:	059020ef          	jal	ra,456e <strstr>
    1d1a:	8aaa                	mv	s5,a0
    1d1c:	bfb9                	j	1c7a <read_max30102+0x3c>

00001d1e <Acquire_SensorDATE>:
    1d1e:	ceafe2ef          	jal	t0,208 <__riscv_save_10>
    1d22:	86418613          	addi	a2,gp,-1948 # 200000e4 <gyroz>
    1d26:	86018593          	addi	a1,gp,-1952 # 200000e0 <gyroy>
    1d2a:	86818b93          	addi	s7,gp,-1944 # 200000e8 <hr>
    1d2e:	85c18513          	addi	a0,gp,-1956 # 200000dc <gyrox>
    1d32:	86018823          	sb	zero,-1936(gp) # 200000f0 <sp02>
    1d36:	000b8023          	sb	zero,0(s7)
    1d3a:	f66fe0ef          	jal	ra,4a0 <MPU_Get_Gyroscope>
    1d3e:	4511                	li	a0,4
    1d40:	d44ff0ef          	jal	ra,1284 <Get_ADC_Val>
    1d44:	306020ef          	jal	ra,404a <__floatunsisf>
    1d48:	84a1ac23          	sw	a0,-1960(gp) # 200000d8 <adcx>
    1d4c:	3cc020ef          	jal	ra,4118 <__extendsfdf2>
    1d50:	000077b7          	lui	a5,0x7
    1d54:	5b87a603          	lw	a2,1464(a5) # 75b8 <ascii_3216+0x17c4>
    1d58:	5bc7a683          	lw	a3,1468(a5)
    1d5c:	87c18413          	addi	s0,gp,-1924 # 200000fc <wind>
    1d60:	40e010ef          	jal	ra,316e <__muldf3>
    1d64:	000077b7          	lui	a5,0x7
    1d68:	862a                	mv	a2,a0
    1d6a:	86ae                	mv	a3,a1
    1d6c:	5c07a503          	lw	a0,1472(a5) # 75c0 <ascii_3216+0x17cc>
    1d70:	5c47a583          	lw	a1,1476(a5)
    1d74:	0b3010ef          	jal	ra,3626 <__subdf3>
    1d78:	44c020ef          	jal	ra,41c4 <__truncdfsf2>
    1d7c:	000077b7          	lui	a5,0x7
    1d80:	5b47a583          	lw	a1,1460(a5) # 75b4 <ascii_3216+0x17c0>
    1d84:	86818913          	addi	s2,gp,-1944 # 200000e8 <hr>
    1d88:	7dd010ef          	jal	ra,3d64 <__mulsf3>
    1d8c:	86a1aa23          	sw	a0,-1932(gp) # 200000f4 <temp>
    1d90:	388020ef          	jal	ra,4118 <__extendsfdf2>
    1d94:	000077b7          	lui	a5,0x7
    1d98:	5c87a603          	lw	a2,1480(a5) # 75c8 <ascii_3216+0x17d4>
    1d9c:	5cc7a683          	lw	a3,1484(a5)
    1da0:	87018493          	addi	s1,gp,-1936 # 200000f0 <sp02>
    1da4:	87c18993          	addi	s3,gp,-1924 # 200000fc <wind>
    1da8:	3c6010ef          	jal	ra,316e <__muldf3>
    1dac:	418020ef          	jal	ra,41c4 <__truncdfsf2>
    1db0:	c008                	sw	a0,0(s0)
    1db2:	86918593          	addi	a1,gp,-1943 # 200000e9 <humidity>
    1db6:	87818513          	addi	a0,gp,-1928 # 200000f8 <temperature>
    1dba:	ed8ff0ef          	jal	ra,1492 <DHT11_Read_Data>
    1dbe:	ff7fe0ef          	jal	ra,db4 <RC522_Handle>
    1dc2:	84818513          	addi	a0,gp,-1976 # 200000c8 <HR>
    1dc6:	85018593          	addi	a1,gp,-1968 # 200000d0 <SPO2>
    1dca:	e75ff0ef          	jal	ra,1c3e <read_max30102>
    1dce:	000bc783          	lbu	a5,0(s7)
    1dd2:	86c1a603          	lw	a2,-1940(gp) # 200000ec <i>
    1dd6:	4581                	li	a1,0
    1dd8:	86c18513          	addi	a0,gp,-1940 # 200000ec <i>
    1ddc:	84818b13          	addi	s6,gp,-1976 # 200000c8 <HR>
    1de0:	4825                	li	a6,9
    1de2:	48a9                	li	a7,10
    1de4:	00cb0733          	add	a4,s6,a2
    1de8:	2318                	lbu	a4,0(a4)
    1dea:	0605                	addi	a2,a2,1
    1dec:	fd070693          	addi	a3,a4,-48
    1df0:	0ff6f693          	andi	a3,a3,255
    1df4:	14d87e63          	bgeu	a6,a3,1f50 <Acquire_SensorDATE+0x232>
    1df8:	c199                	beqz	a1,1dfe <Acquire_SensorDATE+0xe0>
    1dfa:	00f90023          	sb	a5,0(s2)
    1dfe:	209c                	lbu	a5,0(s1)
    1e00:	4601                	li	a2,0
    1e02:	4581                	li	a1,0
    1e04:	85018413          	addi	s0,gp,-1968 # 200000d0 <SPO2>
    1e08:	4825                	li	a6,9
    1e0a:	48a9                	li	a7,10
    1e0c:	00c40733          	add	a4,s0,a2
    1e10:	2318                	lbu	a4,0(a4)
    1e12:	0605                	addi	a2,a2,1
    1e14:	fd070693          	addi	a3,a4,-48
    1e18:	0ff6f693          	andi	a3,a3,255
    1e1c:	14d87363          	bgeu	a6,a3,1f62 <Acquire_SensorDATE+0x244>
    1e20:	c191                	beqz	a1,1e24 <Acquire_SensorDATE+0x106>
    1e22:	a09c                	sb	a5,0(s1)
    1e24:	6441                	lui	s0,0x10
    1e26:	00007637          	lui	a2,0x7
    1e2a:	fff40713          	addi	a4,s0,-1 # ffff <_data_lma+0x87cb>
    1e2e:	80040693          	addi	a3,s0,-2048
    1e32:	00052023          	sw	zero,0(a0)
    1e36:	4801                	li	a6,0
    1e38:	47c1                	li	a5,16
    1e3a:	5d060613          	addi	a2,a2,1488 # 75d0 <ascii_3216+0x17dc>
    1e3e:	45a9                	li	a1,10
    1e40:	4529                	li	a0,10
    1e42:	cf7ff0ef          	jal	ra,1b38 <LCD_ShowString>
    1e46:	8781c603          	lbu	a2,-1928(gp) # 200000f8 <temperature>
    1e4a:	fff40793          	addi	a5,s0,-1
    1e4e:	80040713          	addi	a4,s0,-2048
    1e52:	4841                	li	a6,16
    1e54:	468d                	li	a3,3
    1e56:	45a9                	li	a1,10
    1e58:	03c00513          	li	a0,60
    1e5c:	d15ff0ef          	jal	ra,1b70 <LCD_ShowIntNum>
    1e60:	00007637          	lui	a2,0x7
    1e64:	fff40713          	addi	a4,s0,-1
    1e68:	80040693          	addi	a3,s0,-2048
    1e6c:	4801                	li	a6,0
    1e6e:	47c1                	li	a5,16
    1e70:	5d860613          	addi	a2,a2,1496 # 75d8 <ascii_3216+0x17e4>
    1e74:	45f9                	li	a1,30
    1e76:	4529                	li	a0,10
    1e78:	cc1ff0ef          	jal	ra,1b38 <LCD_ShowString>
    1e7c:	8691c603          	lbu	a2,-1943(gp) # 200000e9 <humidity>
    1e80:	fff40793          	addi	a5,s0,-1
    1e84:	80040713          	addi	a4,s0,-2048
    1e88:	4841                	li	a6,16
    1e8a:	468d                	li	a3,3
    1e8c:	45f9                	li	a1,30
    1e8e:	03c00513          	li	a0,60
    1e92:	cdfff0ef          	jal	ra,1b70 <LCD_ShowIntNum>
    1e96:	00007637          	lui	a2,0x7
    1e9a:	fff40713          	addi	a4,s0,-1
    1e9e:	80040693          	addi	a3,s0,-2048
    1ea2:	4801                	li	a6,0
    1ea4:	47c1                	li	a5,16
    1ea6:	5e060613          	addi	a2,a2,1504 # 75e0 <ascii_3216+0x17ec>
    1eaa:	03200593          	li	a1,50
    1eae:	4529                	li	a0,10
    1eb0:	c89ff0ef          	jal	ra,1b38 <LCD_ShowString>
    1eb4:	0009a503          	lw	a0,0(s3)
    1eb8:	13c020ef          	jal	ra,3ff4 <__fixunssfsi>
    1ebc:	01051613          	slli	a2,a0,0x10
    1ec0:	fff40793          	addi	a5,s0,-1
    1ec4:	80040713          	addi	a4,s0,-2048
    1ec8:	4841                	li	a6,16
    1eca:	468d                	li	a3,3
    1ecc:	8241                	srli	a2,a2,0x10
    1ece:	03200593          	li	a1,50
    1ed2:	03c00513          	li	a0,60
    1ed6:	c9bff0ef          	jal	ra,1b70 <LCD_ShowIntNum>
    1eda:	00007637          	lui	a2,0x7
    1ede:	fff40713          	addi	a4,s0,-1
    1ee2:	80040693          	addi	a3,s0,-2048
    1ee6:	4801                	li	a6,0
    1ee8:	47c1                	li	a5,16
    1eea:	5e860613          	addi	a2,a2,1512 # 75e8 <ascii_3216+0x17f4>
    1eee:	04600593          	li	a1,70
    1ef2:	4529                	li	a0,10
    1ef4:	c45ff0ef          	jal	ra,1b38 <LCD_ShowString>
    1ef8:	00094603          	lbu	a2,0(s2)
    1efc:	fff40793          	addi	a5,s0,-1
    1f00:	80040713          	addi	a4,s0,-2048
    1f04:	4841                	li	a6,16
    1f06:	468d                	li	a3,3
    1f08:	04600593          	li	a1,70
    1f0c:	03c00513          	li	a0,60
    1f10:	c61ff0ef          	jal	ra,1b70 <LCD_ShowIntNum>
    1f14:	00007637          	lui	a2,0x7
    1f18:	fff40713          	addi	a4,s0,-1
    1f1c:	80040693          	addi	a3,s0,-2048
    1f20:	4801                	li	a6,0
    1f22:	47c1                	li	a5,16
    1f24:	5ec60613          	addi	a2,a2,1516 # 75ec <ascii_3216+0x17f8>
    1f28:	05a00593          	li	a1,90
    1f2c:	4529                	li	a0,10
    1f2e:	c0bff0ef          	jal	ra,1b38 <LCD_ShowString>
    1f32:	2090                	lbu	a2,0(s1)
    1f34:	4841                	li	a6,16
    1f36:	fff40793          	addi	a5,s0,-1
    1f3a:	80040713          	addi	a4,s0,-2048
    1f3e:	468d                	li	a3,3
    1f40:	05a00593          	li	a1,90
    1f44:	03c00513          	li	a0,60
    1f48:	c29ff0ef          	jal	ra,1b70 <LCD_ShowIntNum>
    1f4c:	af4fe06f          	j	240 <__riscv_restore_10>
    1f50:	031787b3          	mul	a5,a5,a7
    1f54:	4585                	li	a1,1
    1f56:	fd078793          	addi	a5,a5,-48
    1f5a:	97ba                	add	a5,a5,a4
    1f5c:	0ff7f793          	andi	a5,a5,255
    1f60:	b551                	j	1de4 <Acquire_SensorDATE+0xc6>
    1f62:	031787b3          	mul	a5,a5,a7
    1f66:	4585                	li	a1,1
    1f68:	fd078793          	addi	a5,a5,-48
    1f6c:	97ba                	add	a5,a5,a4
    1f6e:	0ff7f793          	andi	a5,a5,255
    1f72:	bd69                	j	1e0c <Acquire_SensorDATE+0xee>

00001f74 <main>:
    1f74:	abcfe2ef          	jal	t0,230 <__riscv_save_0>
    1f78:	4509                	li	a0,2
    1f7a:	4f1000ef          	jal	ra,2c6a <NVIC_PriorityGroupConfig>
    1f7e:	6471                	lui	s0,0x1c
    1f80:	154010ef          	jal	ra,30d4 <Delay_Init>
    1f84:	20040513          	addi	a0,s0,512 # 1c200 <_data_lma+0x149cc>
    1f88:	22d1                	jal	214c <USART1_Init>
    1f8a:	20040513          	addi	a0,s0,512
    1f8e:	2485                	jal	21ee <USART2_Init>
    1f90:	6509                	lui	a0,0x2
    1f92:	58050513          	addi	a0,a0,1408 # 2580 <handle_reset+0x16>
    1f96:	2e15                	jal	22ca <USART3_Init>
    1f98:	fa4ff0ef          	jal	ra,173c <LCD_Init>
    1f9c:	6741                	lui	a4,0x10
    1f9e:	177d                	addi	a4,a4,-1
    1fa0:	08000693          	li	a3,128
    1fa4:	08000613          	li	a2,128
    1fa8:	4581                	li	a1,0
    1faa:	4501                	li	a0,0
    1fac:	a4dff0ef          	jal	ra,19f8 <LCD_Fill>
    1fb0:	9f2ff0ef          	jal	ra,11a2 <ADC_Function_Init>
    1fb4:	b00ff0ef          	jal	ra,12b4 <BEEP_Init>
    1fb8:	9c3fe0ef          	jal	ra,97a <RC522_Init>
    1fbc:	d20ff0ef          	jal	ra,14dc <DHT11_Init>
    1fc0:	ed09                	bnez	a0,1fda <main+0x66>
    1fc2:	eeafe0ef          	jal	ra,6ac <MPU_Init>
    1fc6:	ed19                	bnez	a0,1fe4 <main+0x70>
    1fc8:	c3dff0ef          	jal	ra,1c04 <max30102_Init>
    1fcc:	d53ff0ef          	jal	ra,1d1e <Acquire_SensorDATE>
    1fd0:	3e800513          	li	a0,1000
    1fd4:	160010ef          	jal	ra,3134 <Delay_Ms>
    1fd8:	bfd5                	j	1fcc <main+0x58>
    1fda:	0c800513          	li	a0,200
    1fde:	184010ef          	jal	ra,3162 <delay_ms>
    1fe2:	bfe9                	j	1fbc <main+0x48>
    1fe4:	0c800513          	li	a0,200
    1fe8:	14c010ef          	jal	ra,3134 <Delay_Ms>
    1fec:	bfd9                	j	1fc2 <main+0x4e>

00001fee <SystemInit>:
    1fee:	400217b7          	lui	a5,0x40021
    1ff2:	4398                	lw	a4,0(a5)
    1ff4:	f8ff06b7          	lui	a3,0xf8ff0
    1ff8:	1141                	addi	sp,sp,-16
    1ffa:	00176713          	ori	a4,a4,1
    1ffe:	c398                	sw	a4,0(a5)
    2000:	43d8                	lw	a4,4(a5)
    2002:	00020637          	lui	a2,0x20
    2006:	8f75                	and	a4,a4,a3
    2008:	c3d8                	sw	a4,4(a5)
    200a:	4398                	lw	a4,0(a5)
    200c:	fef706b7          	lui	a3,0xfef70
    2010:	16fd                	addi	a3,a3,-1
    2012:	8f75                	and	a4,a4,a3
    2014:	c398                	sw	a4,0(a5)
    2016:	4398                	lw	a4,0(a5)
    2018:	fffc06b7          	lui	a3,0xfffc0
    201c:	16fd                	addi	a3,a3,-1
    201e:	8f75                	and	a4,a4,a3
    2020:	c398                	sw	a4,0(a5)
    2022:	43d8                	lw	a4,4(a5)
    2024:	ff8106b7          	lui	a3,0xff810
    2028:	16fd                	addi	a3,a3,-1
    202a:	8f75                	and	a4,a4,a3
    202c:	c3d8                	sw	a4,4(a5)
    202e:	4398                	lw	a4,0(a5)
    2030:	ec0006b7          	lui	a3,0xec000
    2034:	16fd                	addi	a3,a3,-1
    2036:	8f75                	and	a4,a4,a3
    2038:	c398                	sw	a4,0(a5)
    203a:	00ff0737          	lui	a4,0xff0
    203e:	c798                	sw	a4,8(a5)
    2040:	0207a623          	sw	zero,44(a5) # 4002102c <_eusrstack+0x2001902c>
    2044:	c402                	sw	zero,8(sp)
    2046:	c602                	sw	zero,12(sp)
    2048:	4398                	lw	a4,0(a5)
    204a:	66c1                	lui	a3,0x10
    204c:	8f55                	or	a4,a4,a3
    204e:	c398                	sw	a4,0(a5)
    2050:	400216b7          	lui	a3,0x40021
    2054:	6705                	lui	a4,0x1
    2056:	429c                	lw	a5,0(a3)
    2058:	8ff1                	and	a5,a5,a2
    205a:	c63e                	sw	a5,12(sp)
    205c:	47a2                	lw	a5,8(sp)
    205e:	0785                	addi	a5,a5,1
    2060:	c43e                	sw	a5,8(sp)
    2062:	47b2                	lw	a5,12(sp)
    2064:	e781                	bnez	a5,206c <SystemInit+0x7e>
    2066:	47a2                	lw	a5,8(sp)
    2068:	fee797e3          	bne	a5,a4,2056 <SystemInit+0x68>
    206c:	400217b7          	lui	a5,0x40021
    2070:	439c                	lw	a5,0(a5)
    2072:	00e79713          	slli	a4,a5,0xe
    2076:	06075763          	bgez	a4,20e4 <SystemInit+0xf6>
    207a:	4785                	li	a5,1
    207c:	c63e                	sw	a5,12(sp)
    207e:	4732                	lw	a4,12(sp)
    2080:	4785                	li	a5,1
    2082:	04f71f63          	bne	a4,a5,20e0 <SystemInit+0xf2>
    2086:	400217b7          	lui	a5,0x40021
    208a:	43d8                	lw	a4,4(a5)
    208c:	ffc106b7          	lui	a3,0xffc10
    2090:	16fd                	addi	a3,a3,-1
    2092:	c3d8                	sw	a4,4(a5)
    2094:	43d8                	lw	a4,4(a5)
    2096:	c3d8                	sw	a4,4(a5)
    2098:	43d8                	lw	a4,4(a5)
    209a:	40076713          	ori	a4,a4,1024
    209e:	c3d8                	sw	a4,4(a5)
    20a0:	43d8                	lw	a4,4(a5)
    20a2:	8f75                	and	a4,a4,a3
    20a4:	c3d8                	sw	a4,4(a5)
    20a6:	43d8                	lw	a4,4(a5)
    20a8:	002906b7          	lui	a3,0x290
    20ac:	8f55                	or	a4,a4,a3
    20ae:	c3d8                	sw	a4,4(a5)
    20b0:	4398                	lw	a4,0(a5)
    20b2:	010006b7          	lui	a3,0x1000
    20b6:	8f55                	or	a4,a4,a3
    20b8:	c398                	sw	a4,0(a5)
    20ba:	4398                	lw	a4,0(a5)
    20bc:	00671693          	slli	a3,a4,0x6
    20c0:	fe06dde3          	bgez	a3,20ba <SystemInit+0xcc>
    20c4:	43d8                	lw	a4,4(a5)
    20c6:	400216b7          	lui	a3,0x40021
    20ca:	9b71                	andi	a4,a4,-4
    20cc:	c3d8                	sw	a4,4(a5)
    20ce:	43d8                	lw	a4,4(a5)
    20d0:	00276713          	ori	a4,a4,2
    20d4:	c3d8                	sw	a4,4(a5)
    20d6:	4721                	li	a4,8
    20d8:	42dc                	lw	a5,4(a3)
    20da:	8bb1                	andi	a5,a5,12
    20dc:	fee79ee3          	bne	a5,a4,20d8 <SystemInit+0xea>
    20e0:	0141                	addi	sp,sp,16
    20e2:	8082                	ret
    20e4:	c602                	sw	zero,12(sp)
    20e6:	bf61                	j	207e <SystemInit+0x90>

000020e8 <_write>:
    20e8:	92efe2ef          	jal	t0,216 <__riscv_save_4>
    20ec:	400044b7          	lui	s1,0x40004
    20f0:	89ae                	mv	s3,a1
    20f2:	8932                	mv	s2,a2
    20f4:	4401                	li	s0,0
    20f6:	40048493          	addi	s1,s1,1024 # 40004400 <_eusrstack+0x1fffc400>
    20fa:	01244563          	blt	s0,s2,2104 <_write+0x1c>
    20fe:	854a                	mv	a0,s2
    2100:	94afe06f          	j	24a <__riscv_restore_4>
    2104:	04000593          	li	a1,64
    2108:	8526                	mv	a0,s1
    210a:	771000ef          	jal	ra,307a <USART_GetFlagStatus>
    210e:	d97d                	beqz	a0,2104 <_write+0x1c>
    2110:	008987b3          	add	a5,s3,s0
    2114:	00078583          	lb	a1,0(a5) # 40021000 <_eusrstack+0x20019000>
    2118:	8526                	mv	a0,s1
    211a:	0405                	addi	s0,s0,1
    211c:	05c2                	slli	a1,a1,0x10
    211e:	81c1                	srli	a1,a1,0x10
    2120:	74b000ef          	jal	ra,306a <USART_SendData>
    2124:	bfd9                	j	20fa <_write+0x12>

00002126 <_sbrk>:
    2126:	82818713          	addi	a4,gp,-2008 # 200000a8 <curbrk.5226>
    212a:	431c                	lw	a5,0(a4)
    212c:	a3818693          	addi	a3,gp,-1480 # 200002b8 <_ebss>
    2130:	953e                	add	a0,a0,a5
    2132:	00d56b63          	bltu	a0,a3,2148 <_sbrk+0x22>
    2136:	200086b7          	lui	a3,0x20008
    213a:	80068693          	addi	a3,a3,-2048 # 20007800 <_heap_end>
    213e:	00a6e563          	bltu	a3,a0,2148 <_sbrk+0x22>
    2142:	c308                	sw	a0,0(a4)
    2144:	853e                	mv	a0,a5
    2146:	8082                	ret
    2148:	57fd                	li	a5,-1
    214a:	bfed                	j	2144 <_sbrk+0x1e>

0000214c <USART1_Init>:
    214c:	8e4fe2ef          	jal	t0,230 <__riscv_save_0>
    2150:	84aa                	mv	s1,a0
    2152:	6511                	lui	a0,0x4
    2154:	7179                	addi	sp,sp,-48
    2156:	4585                	li	a1,1
    2158:	0511                	addi	a0,a0,4
    215a:	ca02                	sw	zero,20(sp)
    215c:	cc02                	sw	zero,24(sp)
    215e:	ce02                	sw	zero,28(sp)
    2160:	d002                	sw	zero,32(sp)
    2162:	d202                	sw	zero,36(sp)
    2164:	d402                	sw	zero,40(sp)
    2166:	d602                	sw	zero,44(sp)
    2168:	c602                	sw	zero,12(sp)
    216a:	c802                	sw	zero,16(sp)
    216c:	533000ef          	jal	ra,2e9e <RCC_APB2PeriphClockCmd>
    2170:	20000793          	li	a5,512
    2174:	82fc                	sh	a5,20(sp)
    2176:	40011437          	lui	s0,0x40011
    217a:	478d                	li	a5,3
    217c:	cc3e                	sw	a5,24(sp)
    217e:	084c                	addi	a1,sp,20
    2180:	47e1                	li	a5,24
    2182:	80040513          	addi	a0,s0,-2048 # 40010800 <_eusrstack+0x20008800>
    2186:	ce3e                	sw	a5,28(sp)
    2188:	77c000ef          	jal	ra,2904 <GPIO_Init>
    218c:	40000793          	li	a5,1024
    2190:	82fc                	sh	a5,20(sp)
    2192:	084c                	addi	a1,sp,20
    2194:	4791                	li	a5,4
    2196:	80040513          	addi	a0,s0,-2048
    219a:	ce3e                	sw	a5,28(sp)
    219c:	40014437          	lui	s0,0x40014
    21a0:	764000ef          	jal	ra,2904 <GPIO_Init>
    21a4:	000c07b7          	lui	a5,0xc0
    21a8:	100c                	addi	a1,sp,32
    21aa:	80040513          	addi	a0,s0,-2048 # 40013800 <_eusrstack+0x2000b800>
    21ae:	d43e                	sw	a5,40(sp)
    21b0:	d026                	sw	s1,32(sp)
    21b2:	d202                	sw	zero,36(sp)
    21b4:	02011623          	sh	zero,44(sp)
    21b8:	5ab000ef          	jal	ra,2f62 <USART_Init>
    21bc:	4605                	li	a2,1
    21be:	52500593          	li	a1,1317
    21c2:	80040513          	addi	a0,s0,-2048
    21c6:	66f000ef          	jal	ra,3034 <USART_ITConfig>
    21ca:	23500793          	li	a5,565
    21ce:	867c                	sh	a5,12(sp)
    21d0:	4789                	li	a5,2
    21d2:	875c                	sb	a5,14(sp)
    21d4:	0068                	addi	a0,sp,12
    21d6:	4785                	li	a5,1
    21d8:	c83e                	sw	a5,16(sp)
    21da:	297000ef          	jal	ra,2c70 <NVIC_Init>
    21de:	4585                	li	a1,1
    21e0:	80040513          	addi	a0,s0,-2048
    21e4:	63b000ef          	jal	ra,301e <USART_Cmd>
    21e8:	6145                	addi	sp,sp,48
    21ea:	86afe06f          	j	254 <__riscv_restore_0>

000021ee <USART2_Init>:
    21ee:	842fe2ef          	jal	t0,230 <__riscv_save_0>
    21f2:	7179                	addi	sp,sp,-48
    21f4:	84aa                	mv	s1,a0
    21f6:	4585                	li	a1,1
    21f8:	00020537          	lui	a0,0x20
    21fc:	ca02                	sw	zero,20(sp)
    21fe:	cc02                	sw	zero,24(sp)
    2200:	ce02                	sw	zero,28(sp)
    2202:	d002                	sw	zero,32(sp)
    2204:	d202                	sw	zero,36(sp)
    2206:	d402                	sw	zero,40(sp)
    2208:	d602                	sw	zero,44(sp)
    220a:	c602                	sw	zero,12(sp)
    220c:	c802                	sw	zero,16(sp)
    220e:	4af000ef          	jal	ra,2ebc <RCC_APB1PeriphClockCmd>
    2212:	4585                	li	a1,1
    2214:	4511                	li	a0,4
    2216:	489000ef          	jal	ra,2e9e <RCC_APB2PeriphClockCmd>
    221a:	4791                	li	a5,4
    221c:	82fc                	sh	a5,20(sp)
    221e:	40011437          	lui	s0,0x40011
    2222:	478d                	li	a5,3
    2224:	cc3e                	sw	a5,24(sp)
    2226:	084c                	addi	a1,sp,20
    2228:	47e1                	li	a5,24
    222a:	80040513          	addi	a0,s0,-2048 # 40010800 <_eusrstack+0x20008800>
    222e:	ce3e                	sw	a5,28(sp)
    2230:	2dd1                	jal	2904 <GPIO_Init>
    2232:	47a1                	li	a5,8
    2234:	82fc                	sh	a5,20(sp)
    2236:	084c                	addi	a1,sp,20
    2238:	4791                	li	a5,4
    223a:	80040513          	addi	a0,s0,-2048
    223e:	ce3e                	sw	a5,28(sp)
    2240:	40004437          	lui	s0,0x40004
    2244:	25c1                	jal	2904 <GPIO_Init>
    2246:	000c07b7          	lui	a5,0xc0
    224a:	100c                	addi	a1,sp,32
    224c:	40040513          	addi	a0,s0,1024 # 40004400 <_eusrstack+0x1fffc400>
    2250:	d43e                	sw	a5,40(sp)
    2252:	d026                	sw	s1,32(sp)
    2254:	d202                	sw	zero,36(sp)
    2256:	02011623          	sh	zero,44(sp)
    225a:	509000ef          	jal	ra,2f62 <USART_Init>
    225e:	4605                	li	a2,1
    2260:	52500593          	li	a1,1317
    2264:	40040513          	addi	a0,s0,1024
    2268:	5cd000ef          	jal	ra,3034 <USART_ITConfig>
    226c:	13600793          	li	a5,310
    2270:	867c                	sh	a5,12(sp)
    2272:	4785                	li	a5,1
    2274:	875c                	sb	a5,14(sp)
    2276:	0068                	addi	a0,sp,12
    2278:	4785                	li	a5,1
    227a:	c83e                	sw	a5,16(sp)
    227c:	1f5000ef          	jal	ra,2c70 <NVIC_Init>
    2280:	4585                	li	a1,1
    2282:	40040513          	addi	a0,s0,1024
    2286:	599000ef          	jal	ra,301e <USART_Cmd>
    228a:	6145                	addi	sp,sp,48
    228c:	fc9fd06f          	j	254 <__riscv_restore_0>

00002290 <USART2_IRQHandler>:
    2290:	1141                	addi	sp,sp,-16
    2292:	c622                	sw	s0,12(sp)
    2294:	40004437          	lui	s0,0x40004
    2298:	52500593          	li	a1,1317
    229c:	40040513          	addi	a0,s0,1024 # 40004400 <_eusrstack+0x1fffc400>
    22a0:	5e5000ef          	jal	ra,3084 <USART_GetITStatus>
    22a4:	cd19                	beqz	a0,22c2 <USART2_IRQHandler+0x32>
    22a6:	40040513          	addi	a0,s0,1024
    22aa:	5c9000ef          	jal	ra,3072 <USART_ReceiveData>
    22ae:	88018713          	addi	a4,gp,-1920 # 20000100 <Rxcouter2>
    22b2:	2314                	lbu	a3,0(a4)
    22b4:	00168793          	addi	a5,a3,1
    22b8:	a31c                	sb	a5,0(a4)
    22ba:	8a418793          	addi	a5,gp,-1884 # 20000124 <RxBuffer2>
    22be:	97b6                	add	a5,a5,a3
    22c0:	a388                	sb	a0,0(a5)
    22c2:	4432                	lw	s0,12(sp)
    22c4:	0141                	addi	sp,sp,16
    22c6:	30200073          	mret

000022ca <USART3_Init>:
    22ca:	f67fd2ef          	jal	t0,230 <__riscv_save_0>
    22ce:	7179                	addi	sp,sp,-48
    22d0:	84aa                	mv	s1,a0
    22d2:	4585                	li	a1,1
    22d4:	00040537          	lui	a0,0x40
    22d8:	ca02                	sw	zero,20(sp)
    22da:	cc02                	sw	zero,24(sp)
    22dc:	ce02                	sw	zero,28(sp)
    22de:	d002                	sw	zero,32(sp)
    22e0:	d202                	sw	zero,36(sp)
    22e2:	d402                	sw	zero,40(sp)
    22e4:	d602                	sw	zero,44(sp)
    22e6:	c602                	sw	zero,12(sp)
    22e8:	c802                	sw	zero,16(sp)
    22ea:	3d3000ef          	jal	ra,2ebc <RCC_APB1PeriphClockCmd>
    22ee:	4585                	li	a1,1
    22f0:	02000513          	li	a0,32
    22f4:	3ab000ef          	jal	ra,2e9e <RCC_APB2PeriphClockCmd>
    22f8:	4585                	li	a1,1
    22fa:	4505                	li	a0,1
    22fc:	3a3000ef          	jal	ra,2e9e <RCC_APB2PeriphClockCmd>
    2300:	00140537          	lui	a0,0x140
    2304:	4585                	li	a1,1
    2306:	03050513          	addi	a0,a0,48 # 140030 <_data_lma+0x1387fc>
    230a:	25f1                	jal	29d6 <GPIO_PinRemapConfig>
    230c:	10000793          	li	a5,256
    2310:	82fc                	sh	a5,20(sp)
    2312:	40011437          	lui	s0,0x40011
    2316:	478d                	li	a5,3
    2318:	cc3e                	sw	a5,24(sp)
    231a:	084c                	addi	a1,sp,20
    231c:	47e1                	li	a5,24
    231e:	40040513          	addi	a0,s0,1024 # 40011400 <_eusrstack+0x20009400>
    2322:	ce3e                	sw	a5,28(sp)
    2324:	23c5                	jal	2904 <GPIO_Init>
    2326:	20000793          	li	a5,512
    232a:	82fc                	sh	a5,20(sp)
    232c:	084c                	addi	a1,sp,20
    232e:	4791                	li	a5,4
    2330:	40040513          	addi	a0,s0,1024
    2334:	ce3e                	sw	a5,28(sp)
    2336:	40005437          	lui	s0,0x40005
    233a:	23e9                	jal	2904 <GPIO_Init>
    233c:	000c07b7          	lui	a5,0xc0
    2340:	100c                	addi	a1,sp,32
    2342:	80040513          	addi	a0,s0,-2048 # 40004800 <_eusrstack+0x1fffc800>
    2346:	d43e                	sw	a5,40(sp)
    2348:	d026                	sw	s1,32(sp)
    234a:	d202                	sw	zero,36(sp)
    234c:	02011623          	sh	zero,44(sp)
    2350:	413000ef          	jal	ra,2f62 <USART_Init>
    2354:	4605                	li	a2,1
    2356:	52500593          	li	a1,1317
    235a:	80040513          	addi	a0,s0,-2048
    235e:	4d7000ef          	jal	ra,3034 <USART_ITConfig>
    2362:	23700793          	li	a5,567
    2366:	867c                	sh	a5,12(sp)
    2368:	4789                	li	a5,2
    236a:	875c                	sb	a5,14(sp)
    236c:	0068                	addi	a0,sp,12
    236e:	4785                	li	a5,1
    2370:	c83e                	sw	a5,16(sp)
    2372:	0ff000ef          	jal	ra,2c70 <NVIC_Init>
    2376:	4585                	li	a1,1
    2378:	80040513          	addi	a0,s0,-2048
    237c:	4a3000ef          	jal	ra,301e <USART_Cmd>
    2380:	6145                	addi	sp,sp,48
    2382:	ed3fd06f          	j	254 <__riscv_restore_0>

00002386 <USART3_IRQHandler>:
    2386:	1141                	addi	sp,sp,-16
    2388:	c622                	sw	s0,12(sp)
    238a:	40005437          	lui	s0,0x40005
    238e:	52500593          	li	a1,1317
    2392:	80040513          	addi	a0,s0,-2048 # 40004800 <_eusrstack+0x1fffc800>
    2396:	4ef000ef          	jal	ra,3084 <USART_GetITStatus>
    239a:	cd19                	beqz	a0,23b8 <USART3_IRQHandler+0x32>
    239c:	80040513          	addi	a0,s0,-2048
    23a0:	4d3000ef          	jal	ra,3072 <USART_ReceiveData>
    23a4:	88118713          	addi	a4,gp,-1919 # 20000101 <Rxcouter3>
    23a8:	2314                	lbu	a3,0(a4)
    23aa:	00168793          	addi	a5,a3,1
    23ae:	a31c                	sb	a5,0(a4)
    23b0:	96c18793          	addi	a5,gp,-1684 # 200001ec <RxBuffer3>
    23b4:	97b6                	add	a5,a5,a3
    23b6:	a388                	sb	a0,0(a5)
    23b8:	4432                	lw	s0,12(sp)
    23ba:	0141                	addi	sp,sp,16
    23bc:	30200073          	mret

000023c0 <USART1_IRQHandler>:
    23c0:	1141                	addi	sp,sp,-16
    23c2:	c622                	sw	s0,12(sp)
    23c4:	40014437          	lui	s0,0x40014
    23c8:	52500593          	li	a1,1317
    23cc:	80040513          	addi	a0,s0,-2048 # 40013800 <_eusrstack+0x2000b800>
    23d0:	4b5000ef          	jal	ra,3084 <USART_GetITStatus>
    23d4:	c915                	beqz	a0,2408 <USART1_IRQHandler+0x48>
    23d6:	80040513          	addi	a0,s0,-2048
    23da:	499000ef          	jal	ra,3072 <USART_ReceiveData>
    23de:	88218793          	addi	a5,gp,-1918 # 20000102 <ucCnt>
    23e2:	2394                	lbu	a3,0(a5)
    23e4:	0ff57513          	andi	a0,a0,255
    23e8:	00168713          	addi	a4,a3,1
    23ec:	a398                	sb	a4,0(a5)
    23ee:	9d018713          	addi	a4,gp,-1584 # 20000250 <ucRxData>
    23f2:	9736                	add	a4,a4,a3
    23f4:	a308                	sb	a0,0(a4)
    23f6:	06d00713          	li	a4,109
    23fa:	00e51763          	bne	a0,a4,2408 <USART1_IRQHandler+0x48>
    23fe:	4685                	li	a3,1
    2400:	88d181a3          	sb	a3,-1917(gp) # 20000103 <ucRxFinish>
    2404:	00078023          	sb	zero,0(a5) # c0000 <_data_lma+0xb87cc>
    2408:	40014537          	lui	a0,0x40014
    240c:	52500593          	li	a1,1317
    2410:	80050513          	addi	a0,a0,-2048 # 40013800 <_eusrstack+0x2000b800>
    2414:	4ad000ef          	jal	ra,30c0 <USART_ClearITPendingBit>
    2418:	4432                	lw	s0,12(sp)
    241a:	0141                	addi	sp,sp,16
    241c:	30200073          	mret

00002420 <Uart3_SendStr>:
    2420:	e11fd2ef          	jal	t0,230 <__riscv_save_0>
    2424:	400054b7          	lui	s1,0x40005
    2428:	842a                	mv	s0,a0
    242a:	80048493          	addi	s1,s1,-2048 # 40004800 <_eusrstack+0x1fffc800>
    242e:	00040783          	lb	a5,0(s0)
    2432:	e399                	bnez	a5,2438 <Uart3_SendStr+0x18>
    2434:	e21fd06f          	j	254 <__riscv_restore_0>
    2438:	04000593          	li	a1,64
    243c:	8526                	mv	a0,s1
    243e:	43d000ef          	jal	ra,307a <USART_GetFlagStatus>
    2442:	d97d                	beqz	a0,2438 <Uart3_SendStr+0x18>
    2444:	00040583          	lb	a1,0(s0)
    2448:	8526                	mv	a0,s1
    244a:	0405                	addi	s0,s0,1
    244c:	05c2                	slli	a1,a1,0x10
    244e:	81c1                	srli	a1,a1,0x10
    2450:	41b000ef          	jal	ra,306a <USART_SendData>
    2454:	bfe9                	j	242e <Uart3_SendStr+0xe>

00002456 <Clear_Buffer>:
    2456:	4789                	li	a5,2
    2458:	02f51663          	bne	a0,a5,2484 <Clear_Buffer+0x2e>
    245c:	8801c583          	lbu	a1,-1920(gp) # 20000100 <Rxcouter2>
    2460:	4701                	li	a4,0
    2462:	88018793          	addi	a5,gp,-1920 # 20000100 <Rxcouter2>
    2466:	8a418693          	addi	a3,gp,-1884 # 20000124 <RxBuffer2>
    246a:	0ff77613          	andi	a2,a4,255
    246e:	00b66563          	bltu	a2,a1,2478 <Clear_Buffer+0x22>
    2472:	00078023          	sb	zero,0(a5)
    2476:	8082                	ret
    2478:	00e68633          	add	a2,a3,a4
    247c:	00060023          	sb	zero,0(a2) # 20000 <_data_lma+0x187cc>
    2480:	0705                	addi	a4,a4,1
    2482:	b7e5                	j	246a <Clear_Buffer+0x14>
    2484:	478d                	li	a5,3
    2486:	fef518e3          	bne	a0,a5,2476 <Clear_Buffer+0x20>
    248a:	8811c583          	lbu	a1,-1919(gp) # 20000101 <Rxcouter3>
    248e:	4701                	li	a4,0
    2490:	88118793          	addi	a5,gp,-1919 # 20000101 <Rxcouter3>
    2494:	96c18693          	addi	a3,gp,-1684 # 200001ec <RxBuffer3>
    2498:	0ff77613          	andi	a2,a4,255
    249c:	fcb67be3          	bgeu	a2,a1,2472 <Clear_Buffer+0x1c>
    24a0:	00e68633          	add	a2,a3,a4
    24a4:	00060023          	sb	zero,0(a2)
    24a8:	0705                	addi	a4,a4,1
    24aa:	b7fd                	j	2498 <Clear_Buffer+0x42>
    24ac:	a001                	j	24ac <Clear_Buffer+0x56>
    24ae:	a001                	j	24ae <Clear_Buffer+0x58>

000024b0 <Ecall_M_Mode_Handler>:
    24b0:	a001                	j	24b0 <Ecall_M_Mode_Handler>

000024b2 <Ecall_U_Mode_Handler>:
    24b2:	a001                	j	24b2 <Ecall_U_Mode_Handler>

000024b4 <Break_Point_Handler>:
    24b4:	a001                	j	24b4 <Break_Point_Handler>

000024b6 <SysTick_Handler>:
    24b6:	a001                	j	24b6 <SysTick_Handler>

000024b8 <SW_Handler>:
    24b8:	a001                	j	24b8 <SW_Handler>

000024ba <WWDG_IRQHandler>:
    24ba:	a001                	j	24ba <WWDG_IRQHandler>

000024bc <PVD_IRQHandler>:
    24bc:	a001                	j	24bc <PVD_IRQHandler>

000024be <TAMPER_IRQHandler>:
    24be:	a001                	j	24be <TAMPER_IRQHandler>

000024c0 <RTC_IRQHandler>:
    24c0:	a001                	j	24c0 <RTC_IRQHandler>

000024c2 <FLASH_IRQHandler>:
    24c2:	a001                	j	24c2 <FLASH_IRQHandler>

000024c4 <RCC_IRQHandler>:
    24c4:	a001                	j	24c4 <RCC_IRQHandler>

000024c6 <EXTI0_IRQHandler>:
    24c6:	a001                	j	24c6 <EXTI0_IRQHandler>

000024c8 <EXTI1_IRQHandler>:
    24c8:	a001                	j	24c8 <EXTI1_IRQHandler>

000024ca <EXTI2_IRQHandler>:
    24ca:	a001                	j	24ca <EXTI2_IRQHandler>

000024cc <EXTI3_IRQHandler>:
    24cc:	a001                	j	24cc <EXTI3_IRQHandler>

000024ce <EXTI4_IRQHandler>:
    24ce:	a001                	j	24ce <EXTI4_IRQHandler>

000024d0 <DMA1_Channel1_IRQHandler>:
    24d0:	a001                	j	24d0 <DMA1_Channel1_IRQHandler>

000024d2 <DMA1_Channel2_IRQHandler>:
    24d2:	a001                	j	24d2 <DMA1_Channel2_IRQHandler>

000024d4 <DMA1_Channel3_IRQHandler>:
    24d4:	a001                	j	24d4 <DMA1_Channel3_IRQHandler>

000024d6 <DMA1_Channel4_IRQHandler>:
    24d6:	a001                	j	24d6 <DMA1_Channel4_IRQHandler>

000024d8 <DMA1_Channel5_IRQHandler>:
    24d8:	a001                	j	24d8 <DMA1_Channel5_IRQHandler>

000024da <DMA1_Channel6_IRQHandler>:
    24da:	a001                	j	24da <DMA1_Channel6_IRQHandler>

000024dc <DMA1_Channel7_IRQHandler>:
    24dc:	a001                	j	24dc <DMA1_Channel7_IRQHandler>

000024de <ADC1_2_IRQHandler>:
    24de:	a001                	j	24de <ADC1_2_IRQHandler>

000024e0 <USB_HP_CAN1_TX_IRQHandler>:
    24e0:	a001                	j	24e0 <USB_HP_CAN1_TX_IRQHandler>

000024e2 <USB_LP_CAN1_RX0_IRQHandler>:
    24e2:	a001                	j	24e2 <USB_LP_CAN1_RX0_IRQHandler>

000024e4 <CAN1_RX1_IRQHandler>:
    24e4:	a001                	j	24e4 <CAN1_RX1_IRQHandler>

000024e6 <CAN1_SCE_IRQHandler>:
    24e6:	a001                	j	24e6 <CAN1_SCE_IRQHandler>

000024e8 <EXTI9_5_IRQHandler>:
    24e8:	a001                	j	24e8 <EXTI9_5_IRQHandler>

000024ea <TIM1_BRK_IRQHandler>:
    24ea:	a001                	j	24ea <TIM1_BRK_IRQHandler>

000024ec <TIM1_UP_IRQHandler>:
    24ec:	a001                	j	24ec <TIM1_UP_IRQHandler>

000024ee <TIM1_TRG_COM_IRQHandler>:
    24ee:	a001                	j	24ee <TIM1_TRG_COM_IRQHandler>

000024f0 <TIM1_CC_IRQHandler>:
    24f0:	a001                	j	24f0 <TIM1_CC_IRQHandler>

000024f2 <TIM2_IRQHandler>:
    24f2:	a001                	j	24f2 <TIM2_IRQHandler>

000024f4 <TIM3_IRQHandler>:
    24f4:	a001                	j	24f4 <TIM3_IRQHandler>

000024f6 <TIM4_IRQHandler>:
    24f6:	a001                	j	24f6 <TIM4_IRQHandler>

000024f8 <I2C1_EV_IRQHandler>:
    24f8:	a001                	j	24f8 <I2C1_EV_IRQHandler>

000024fa <I2C1_ER_IRQHandler>:
    24fa:	a001                	j	24fa <I2C1_ER_IRQHandler>

000024fc <I2C2_EV_IRQHandler>:
    24fc:	a001                	j	24fc <I2C2_EV_IRQHandler>

000024fe <I2C2_ER_IRQHandler>:
    24fe:	a001                	j	24fe <I2C2_ER_IRQHandler>

00002500 <SPI1_IRQHandler>:
    2500:	a001                	j	2500 <SPI1_IRQHandler>

00002502 <SPI2_IRQHandler>:
    2502:	a001                	j	2502 <SPI2_IRQHandler>
    2504:	a001                	j	2504 <SPI2_IRQHandler+0x2>
    2506:	a001                	j	2506 <SPI2_IRQHandler+0x4>
    2508:	a001                	j	2508 <SPI2_IRQHandler+0x6>

0000250a <EXTI15_10_IRQHandler>:
    250a:	a001                	j	250a <EXTI15_10_IRQHandler>

0000250c <RTCAlarm_IRQHandler>:
    250c:	a001                	j	250c <RTCAlarm_IRQHandler>

0000250e <USBWakeUp_IRQHandler>:
    250e:	a001                	j	250e <USBWakeUp_IRQHandler>

00002510 <TIM8_BRK_IRQHandler>:
    2510:	a001                	j	2510 <TIM8_BRK_IRQHandler>

00002512 <TIM8_UP_IRQHandler>:
    2512:	a001                	j	2512 <TIM8_UP_IRQHandler>

00002514 <TIM8_TRG_COM_IRQHandler>:
    2514:	a001                	j	2514 <TIM8_TRG_COM_IRQHandler>

00002516 <TIM8_CC_IRQHandler>:
    2516:	a001                	j	2516 <TIM8_CC_IRQHandler>

00002518 <RNG_IRQHandler>:
    2518:	a001                	j	2518 <RNG_IRQHandler>

0000251a <FSMC_IRQHandler>:
    251a:	a001                	j	251a <FSMC_IRQHandler>

0000251c <SDIO_IRQHandler>:
    251c:	a001                	j	251c <SDIO_IRQHandler>

0000251e <TIM5_IRQHandler>:
    251e:	a001                	j	251e <TIM5_IRQHandler>

00002520 <SPI3_IRQHandler>:
    2520:	a001                	j	2520 <SPI3_IRQHandler>

00002522 <UART4_IRQHandler>:
    2522:	a001                	j	2522 <UART4_IRQHandler>

00002524 <UART5_IRQHandler>:
    2524:	a001                	j	2524 <UART5_IRQHandler>

00002526 <TIM6_IRQHandler>:
    2526:	a001                	j	2526 <TIM6_IRQHandler>

00002528 <TIM7_IRQHandler>:
    2528:	a001                	j	2528 <TIM7_IRQHandler>

0000252a <DMA2_Channel1_IRQHandler>:
    252a:	a001                	j	252a <DMA2_Channel1_IRQHandler>

0000252c <DMA2_Channel2_IRQHandler>:
    252c:	a001                	j	252c <DMA2_Channel2_IRQHandler>

0000252e <DMA2_Channel3_IRQHandler>:
    252e:	a001                	j	252e <DMA2_Channel3_IRQHandler>

00002530 <DMA2_Channel4_IRQHandler>:
    2530:	a001                	j	2530 <DMA2_Channel4_IRQHandler>

00002532 <DMA2_Channel5_IRQHandler>:
    2532:	a001                	j	2532 <DMA2_Channel5_IRQHandler>

00002534 <ETH_IRQHandler>:
    2534:	a001                	j	2534 <ETH_IRQHandler>

00002536 <ETH_WKUP_IRQHandler>:
    2536:	a001                	j	2536 <ETH_WKUP_IRQHandler>

00002538 <CAN2_TX_IRQHandler>:
    2538:	a001                	j	2538 <CAN2_TX_IRQHandler>

0000253a <CAN2_RX0_IRQHandler>:
    253a:	a001                	j	253a <CAN2_RX0_IRQHandler>

0000253c <CAN2_RX1_IRQHandler>:
    253c:	a001                	j	253c <CAN2_RX1_IRQHandler>

0000253e <CAN2_SCE_IRQHandler>:
    253e:	a001                	j	253e <CAN2_SCE_IRQHandler>

00002540 <OTG_FS_IRQHandler>:
    2540:	a001                	j	2540 <OTG_FS_IRQHandler>

00002542 <USBHSWakeup_IRQHandler>:
    2542:	a001                	j	2542 <USBHSWakeup_IRQHandler>

00002544 <USBHS_IRQHandler>:
    2544:	a001                	j	2544 <USBHS_IRQHandler>

00002546 <DVP_IRQHandler>:
    2546:	a001                	j	2546 <DVP_IRQHandler>

00002548 <UART6_IRQHandler>:
    2548:	a001                	j	2548 <UART6_IRQHandler>

0000254a <UART7_IRQHandler>:
    254a:	a001                	j	254a <UART7_IRQHandler>

0000254c <UART8_IRQHandler>:
    254c:	a001                	j	254c <UART8_IRQHandler>

0000254e <TIM9_BRK_IRQHandler>:
    254e:	a001                	j	254e <TIM9_BRK_IRQHandler>

00002550 <TIM9_UP_IRQHandler>:
    2550:	a001                	j	2550 <TIM9_UP_IRQHandler>

00002552 <TIM9_TRG_COM_IRQHandler>:
    2552:	a001                	j	2552 <TIM9_TRG_COM_IRQHandler>

00002554 <TIM9_CC_IRQHandler>:
    2554:	a001                	j	2554 <TIM9_CC_IRQHandler>

00002556 <TIM10_BRK_IRQHandler>:
    2556:	a001                	j	2556 <TIM10_BRK_IRQHandler>

00002558 <TIM10_UP_IRQHandler>:
    2558:	a001                	j	2558 <TIM10_UP_IRQHandler>

0000255a <TIM10_TRG_COM_IRQHandler>:
    255a:	a001                	j	255a <TIM10_TRG_COM_IRQHandler>

0000255c <TIM10_CC_IRQHandler>:
    255c:	a001                	j	255c <TIM10_CC_IRQHandler>

0000255e <DMA2_Channel6_IRQHandler>:
    255e:	a001                	j	255e <DMA2_Channel6_IRQHandler>

00002560 <DMA2_Channel7_IRQHandler>:
    2560:	a001                	j	2560 <DMA2_Channel7_IRQHandler>

00002562 <DMA2_Channel8_IRQHandler>:
    2562:	a001                	j	2562 <DMA2_Channel8_IRQHandler>

00002564 <DMA2_Channel9_IRQHandler>:
    2564:	a001                	j	2564 <DMA2_Channel9_IRQHandler>

00002566 <DMA2_Channel10_IRQHandler>:
    2566:	a001                	j	2566 <DMA2_Channel10_IRQHandler>

00002568 <DMA2_Channel11_IRQHandler>:
    2568:	a001                	j	2568 <DMA2_Channel11_IRQHandler>

0000256a <handle_reset>:
    256a:	1fffe197          	auipc	gp,0x1fffe
    256e:	31618193          	addi	gp,gp,790 # 20000880 <__global_pointer$>
    2572:	20006117          	auipc	sp,0x20006
    2576:	a8e10113          	addi	sp,sp,-1394 # 20008000 <_eusrstack>
    257a:	00005517          	auipc	a0,0x5
    257e:	2ba50513          	addi	a0,a0,698 # 7834 <_data_lma>
    2582:	1fffe597          	auipc	a1,0x1fffe
    2586:	a7e58593          	addi	a1,a1,-1410 # 20000000 <_data_vma>
    258a:	83818613          	addi	a2,gp,-1992 # 200000b8 <_edata>
    258e:	00c5fa63          	bgeu	a1,a2,25a2 <handle_reset+0x38>
    2592:	00052283          	lw	t0,0(a0)
    2596:	0055a023          	sw	t0,0(a1)
    259a:	0511                	addi	a0,a0,4
    259c:	0591                	addi	a1,a1,4
    259e:	fec5eae3          	bltu	a1,a2,2592 <handle_reset+0x28>
    25a2:	83818513          	addi	a0,gp,-1992 # 200000b8 <_edata>
    25a6:	a3818593          	addi	a1,gp,-1480 # 200002b8 <_ebss>
    25aa:	00b57763          	bgeu	a0,a1,25b8 <handle_reset+0x4e>
    25ae:	00052023          	sw	zero,0(a0)
    25b2:	0511                	addi	a0,a0,4
    25b4:	feb56de3          	bltu	a0,a1,25ae <handle_reset+0x44>
    25b8:	42fd                	li	t0,31
    25ba:	bc029073          	csrw	0xbc0,t0
    25be:	42ad                	li	t0,11
    25c0:	80429073          	csrw	0x804,t0
    25c4:	000062b7          	lui	t0,0x6
    25c8:	08828293          	addi	t0,t0,136 # 6088 <ascii_3216+0x294>
    25cc:	3002a073          	csrs	mstatus,t0
    25d0:	ffffe297          	auipc	t0,0xffffe
    25d4:	a6828293          	addi	t0,t0,-1432 # 38 <_einit>
    25d8:	0032e293          	ori	t0,t0,3
    25dc:	30529073          	csrw	mtvec,t0
    25e0:	a0fff0ef          	jal	ra,1fee <SystemInit>
    25e4:	00000297          	auipc	t0,0x0
    25e8:	99028293          	addi	t0,t0,-1648 # 1f74 <main>
    25ec:	34129073          	csrw	mepc,t0
    25f0:	30200073          	mret

000025f4 <ADC_DeInit>:
    25f4:	c3dfd2ef          	jal	t0,230 <__riscv_save_0>
    25f8:	400127b7          	lui	a5,0x40012
    25fc:	40078793          	addi	a5,a5,1024 # 40012400 <_eusrstack+0x2000a400>
    2600:	00f51e63          	bne	a0,a5,261c <ADC_DeInit+0x28>
    2604:	4585                	li	a1,1
    2606:	20000513          	li	a0,512
    260a:	0d1000ef          	jal	ra,2eda <RCC_APB2PeriphResetCmd>
    260e:	4581                	li	a1,0
    2610:	20000513          	li	a0,512
    2614:	0c7000ef          	jal	ra,2eda <RCC_APB2PeriphResetCmd>
    2618:	c3dfd06f          	j	254 <__riscv_restore_0>
    261c:	400137b7          	lui	a5,0x40013
    2620:	80078793          	addi	a5,a5,-2048 # 40012800 <_eusrstack+0x2000a800>
    2624:	fef51ae3          	bne	a0,a5,2618 <ADC_DeInit+0x24>
    2628:	4585                	li	a1,1
    262a:	40000513          	li	a0,1024
    262e:	0ad000ef          	jal	ra,2eda <RCC_APB2PeriphResetCmd>
    2632:	4581                	li	a1,0
    2634:	40000513          	li	a0,1024
    2638:	bff1                	j	2614 <ADC_DeInit+0x20>

0000263a <ADC_Init>:
    263a:	415c                	lw	a5,4(a0)
    263c:	e0f10737          	lui	a4,0xe0f10
    2640:	eff70713          	addi	a4,a4,-257 # e0f0feff <_eusrstack+0xc0f07eff>
    2644:	4d94                	lw	a3,24(a1)
    2646:	8f7d                	and	a4,a4,a5
    2648:	419c                	lw	a5,0(a1)
    264a:	8fd5                	or	a5,a5,a3
    264c:	4dd4                	lw	a3,28(a1)
    264e:	8fd5                	or	a5,a5,a3
    2650:	41d4                	lw	a3,4(a1)
    2652:	06a2                	slli	a3,a3,0x8
    2654:	8fd5                	or	a5,a5,a3
    2656:	8fd9                	or	a5,a5,a4
    2658:	c15c                	sw	a5,4(a0)
    265a:	451c                	lw	a5,8(a0)
    265c:	fff1f737          	lui	a4,0xfff1f
    2660:	7fd70713          	addi	a4,a4,2045 # fff1f7fd <_eusrstack+0xdff177fd>
    2664:	45d4                	lw	a3,12(a1)
    2666:	8f7d                	and	a4,a4,a5
    2668:	499c                	lw	a5,16(a1)
    266a:	8fd5                	or	a5,a5,a3
    266c:	4594                	lw	a3,8(a1)
    266e:	0686                	slli	a3,a3,0x1
    2670:	8fd5                	or	a5,a5,a3
    2672:	8fd9                	or	a5,a5,a4
    2674:	c51c                	sw	a5,8(a0)
    2676:	555c                	lw	a5,44(a0)
    2678:	ff100737          	lui	a4,0xff100
    267c:	177d                	addi	a4,a4,-1
    267e:	8f7d                	and	a4,a4,a5
    2680:	29dc                	lbu	a5,20(a1)
    2682:	17fd                	addi	a5,a5,-1
    2684:	0ff7f793          	andi	a5,a5,255
    2688:	07d2                	slli	a5,a5,0x14
    268a:	8fd9                	or	a5,a5,a4
    268c:	d55c                	sw	a5,44(a0)
    268e:	8082                	ret

00002690 <ADC_Cmd>:
    2690:	451c                	lw	a5,8(a0)
    2692:	c589                	beqz	a1,269c <ADC_Cmd+0xc>
    2694:	0017e793          	ori	a5,a5,1
    2698:	c51c                	sw	a5,8(a0)
    269a:	8082                	ret
    269c:	9bf9                	andi	a5,a5,-2
    269e:	bfed                	j	2698 <ADC_Cmd+0x8>

000026a0 <ADC_ResetCalibration>:
    26a0:	451c                	lw	a5,8(a0)
    26a2:	0087e793          	ori	a5,a5,8
    26a6:	c51c                	sw	a5,8(a0)
    26a8:	8082                	ret

000026aa <ADC_GetResetCalibrationStatus>:
    26aa:	4508                	lw	a0,8(a0)
    26ac:	810d                	srli	a0,a0,0x3
    26ae:	8905                	andi	a0,a0,1
    26b0:	8082                	ret

000026b2 <ADC_StartCalibration>:
    26b2:	451c                	lw	a5,8(a0)
    26b4:	0047e793          	ori	a5,a5,4
    26b8:	c51c                	sw	a5,8(a0)
    26ba:	8082                	ret

000026bc <ADC_GetCalibrationStatus>:
    26bc:	4508                	lw	a0,8(a0)
    26be:	8109                	srli	a0,a0,0x2
    26c0:	8905                	andi	a0,a0,1
    26c2:	8082                	ret

000026c4 <ADC_SoftwareStartConvCmd>:
    26c4:	451c                	lw	a5,8(a0)
    26c6:	c591                	beqz	a1,26d2 <ADC_SoftwareStartConvCmd+0xe>
    26c8:	00500737          	lui	a4,0x500
    26cc:	8fd9                	or	a5,a5,a4
    26ce:	c51c                	sw	a5,8(a0)
    26d0:	8082                	ret
    26d2:	ffb00737          	lui	a4,0xffb00
    26d6:	177d                	addi	a4,a4,-1
    26d8:	8ff9                	and	a5,a5,a4
    26da:	bfd5                	j	26ce <ADC_SoftwareStartConvCmd+0xa>

000026dc <ADC_RegularChannelConfig>:
    26dc:	47a5                	li	a5,9
    26de:	04b7f763          	bgeu	a5,a1,272c <ADC_RegularChannelConfig+0x50>
    26e2:	478d                	li	a5,3
    26e4:	ff658713          	addi	a4,a1,-10
    26e8:	02f70733          	mul	a4,a4,a5
    26ec:	00c52803          	lw	a6,12(a0)
    26f0:	479d                	li	a5,7
    26f2:	00e797b3          	sll	a5,a5,a4
    26f6:	fff7c793          	not	a5,a5
    26fa:	0107f7b3          	and	a5,a5,a6
    26fe:	00e696b3          	sll	a3,a3,a4
    2702:	8edd                	or	a3,a3,a5
    2704:	c554                	sw	a3,12(a0)
    2706:	4799                	li	a5,6
    2708:	04c7e363          	bltu	a5,a2,274e <ADC_RegularChannelConfig+0x72>
    270c:	4795                	li	a5,5
    270e:	167d                	addi	a2,a2,-1
    2710:	02f60633          	mul	a2,a2,a5
    2714:	5958                	lw	a4,52(a0)
    2716:	47fd                	li	a5,31
    2718:	00c797b3          	sll	a5,a5,a2
    271c:	fff7c793          	not	a5,a5
    2720:	8ff9                	and	a5,a5,a4
    2722:	00c59633          	sll	a2,a1,a2
    2726:	8e5d                	or	a2,a2,a5
    2728:	d950                	sw	a2,52(a0)
    272a:	8082                	ret
    272c:	470d                	li	a4,3
    272e:	02e58733          	mul	a4,a1,a4
    2732:	01052803          	lw	a6,16(a0)
    2736:	479d                	li	a5,7
    2738:	00e797b3          	sll	a5,a5,a4
    273c:	fff7c793          	not	a5,a5
    2740:	0107f7b3          	and	a5,a5,a6
    2744:	00e696b3          	sll	a3,a3,a4
    2748:	8edd                	or	a3,a3,a5
    274a:	c914                	sw	a3,16(a0)
    274c:	bf6d                	j	2706 <ADC_RegularChannelConfig+0x2a>
    274e:	47b1                	li	a5,12
    2750:	02c7e263          	bltu	a5,a2,2774 <ADC_RegularChannelConfig+0x98>
    2754:	4795                	li	a5,5
    2756:	1665                	addi	a2,a2,-7
    2758:	02f60633          	mul	a2,a2,a5
    275c:	5918                	lw	a4,48(a0)
    275e:	47fd                	li	a5,31
    2760:	00c797b3          	sll	a5,a5,a2
    2764:	fff7c793          	not	a5,a5
    2768:	8ff9                	and	a5,a5,a4
    276a:	00c59633          	sll	a2,a1,a2
    276e:	8e5d                	or	a2,a2,a5
    2770:	d910                	sw	a2,48(a0)
    2772:	8082                	ret
    2774:	4795                	li	a5,5
    2776:	164d                	addi	a2,a2,-13
    2778:	02f60633          	mul	a2,a2,a5
    277c:	5558                	lw	a4,44(a0)
    277e:	47fd                	li	a5,31
    2780:	00c797b3          	sll	a5,a5,a2
    2784:	fff7c793          	not	a5,a5
    2788:	8ff9                	and	a5,a5,a4
    278a:	00c595b3          	sll	a1,a1,a2
    278e:	8ddd                	or	a1,a1,a5
    2790:	d54c                	sw	a1,44(a0)
    2792:	8082                	ret

00002794 <ADC_GetConversionValue>:
    2794:	4568                	lw	a0,76(a0)
    2796:	0542                	slli	a0,a0,0x10
    2798:	8141                	srli	a0,a0,0x10
    279a:	8082                	ret

0000279c <ADC_AutoInjectedConvCmd>:
    279c:	415c                	lw	a5,4(a0)
    279e:	c589                	beqz	a1,27a8 <ADC_AutoInjectedConvCmd+0xc>
    27a0:	4007e793          	ori	a5,a5,1024
    27a4:	c15c                	sw	a5,4(a0)
    27a6:	8082                	ret
    27a8:	bff7f793          	andi	a5,a5,-1025
    27ac:	bfe5                	j	27a4 <ADC_AutoInjectedConvCmd+0x8>

000027ae <ADC_GetFlagStatus>:
    27ae:	4108                	lw	a0,0(a0)
    27b0:	8d6d                	and	a0,a0,a1
    27b2:	00a03533          	snez	a0,a0
    27b6:	8082                	ret

000027b8 <ADC_BufferCmd>:
    27b8:	415c                	lw	a5,4(a0)
    27ba:	c591                	beqz	a1,27c6 <ADC_BufferCmd+0xe>
    27bc:	04000737          	lui	a4,0x4000
    27c0:	8fd9                	or	a5,a5,a4
    27c2:	c15c                	sw	a5,4(a0)
    27c4:	8082                	ret
    27c6:	fc000737          	lui	a4,0xfc000
    27ca:	177d                	addi	a4,a4,-1
    27cc:	8ff9                	and	a5,a5,a4
    27ce:	bfd5                	j	27c2 <ADC_BufferCmd+0xa>

000027d0 <Get_CalibrationValue>:
    27d0:	a61fd2ef          	jal	t0,230 <__riscv_save_0>
    27d4:	1101                	addi	sp,sp,-32
    27d6:	842a                	mv	s0,a0
    27d8:	00010423          	sb	zero,8(sp)
    27dc:	44a5                	li	s1,9
    27de:	841c                	lbu	a5,8(sp)
    27e0:	04f4f963          	bgeu	s1,a5,2832 <Get_CalibrationValue+0x62>
    27e4:	00010423          	sb	zero,8(sp)
    27e8:	46a5                	li	a3,9
    27ea:	4621                	li	a2,8
    27ec:	841c                	lbu	a5,8(sp)
    27ee:	06f6ff63          	bgeu	a3,a5,286c <Get_CalibrationValue+0x9c>
    27f2:	00011523          	sh	zero,10(sp)
    27f6:	00010423          	sb	zero,8(sp)
    27fa:	4695                	li	a3,5
    27fc:	841c                	lbu	a5,8(sp)
    27fe:	0ef6f163          	bgeu	a3,a5,28e0 <Get_CalibrationValue+0x110>
    2802:	8538                	lhu	a4,10(sp)
    2804:	853c                	lhu	a5,10(sp)
    2806:	4699                	li	a3,6
    2808:	460d                	li	a2,3
    280a:	02d7f7b3          	remu	a5,a5,a3
    280e:	6505                	lui	a0,0x1
    2810:	80050513          	addi	a0,a0,-2048 # 800 <__stack_size>
    2814:	02c7d7b3          	divu	a5,a5,a2
    2818:	02d75733          	divu	a4,a4,a3
    281c:	97ba                	add	a5,a5,a4
    281e:	07c2                	slli	a5,a5,0x10
    2820:	83c1                	srli	a5,a5,0x10
    2822:	857c                	sh	a5,10(sp)
    2824:	853c                	lhu	a5,10(sp)
    2826:	6105                	addi	sp,sp,32
    2828:	8d1d                	sub	a0,a0,a5
    282a:	0542                	slli	a0,a0,0x10
    282c:	8541                	srai	a0,a0,0x10
    282e:	a27fd06f          	j	254 <__riscv_restore_0>
    2832:	441c                	lw	a5,8(s0)
    2834:	0087e793          	ori	a5,a5,8
    2838:	c41c                	sw	a5,8(s0)
    283a:	8522                	mv	a0,s0
    283c:	e6fff0ef          	jal	ra,26aa <ADC_GetResetCalibrationStatus>
    2840:	fd6d                	bnez	a0,283a <Get_CalibrationValue+0x6a>
    2842:	441c                	lw	a5,8(s0)
    2844:	0047e793          	ori	a5,a5,4
    2848:	c41c                	sw	a5,8(s0)
    284a:	8522                	mv	a0,s0
    284c:	e71ff0ef          	jal	ra,26bc <ADC_GetCalibrationStatus>
    2850:	fd6d                	bnez	a0,284a <Get_CalibrationValue+0x7a>
    2852:	4478                	lw	a4,76(s0)
    2854:	841c                	lbu	a5,8(sp)
    2856:	1014                	addi	a3,sp,32
    2858:	0786                	slli	a5,a5,0x1
    285a:	97b6                	add	a5,a5,a3
    285c:	fee79623          	sh	a4,-20(a5)
    2860:	841c                	lbu	a5,8(sp)
    2862:	0785                	addi	a5,a5,1
    2864:	0ff7f793          	andi	a5,a5,255
    2868:	845c                	sb	a5,8(sp)
    286a:	bf95                	j	27de <Get_CalibrationValue+0xe>
    286c:	000104a3          	sb	zero,9(sp)
    2870:	849c                	lbu	a5,9(sp)
    2872:	00f67863          	bgeu	a2,a5,2882 <Get_CalibrationValue+0xb2>
    2876:	841c                	lbu	a5,8(sp)
    2878:	0785                	addi	a5,a5,1
    287a:	0ff7f793          	andi	a5,a5,255
    287e:	845c                	sb	a5,8(sp)
    2880:	b7b5                	j	27ec <Get_CalibrationValue+0x1c>
    2882:	8498                	lbu	a4,9(sp)
    2884:	849c                	lbu	a5,9(sp)
    2886:	100c                	addi	a1,sp,32
    2888:	0706                	slli	a4,a4,0x1
    288a:	0785                	addi	a5,a5,1
    288c:	0786                	slli	a5,a5,0x1
    288e:	972e                	add	a4,a4,a1
    2890:	97ae                	add	a5,a5,a1
    2892:	fec75703          	lhu	a4,-20(a4) # fbffffec <_eusrstack+0xdbff7fec>
    2896:	fec7d783          	lhu	a5,-20(a5)
    289a:	02e7fd63          	bgeu	a5,a4,28d4 <Get_CalibrationValue+0x104>
    289e:	849c                	lbu	a5,9(sp)
    28a0:	0786                	slli	a5,a5,0x1
    28a2:	97ae                	add	a5,a5,a1
    28a4:	fec7d783          	lhu	a5,-20(a5)
    28a8:	857c                	sh	a5,10(sp)
    28aa:	849c                	lbu	a5,9(sp)
    28ac:	8498                	lbu	a4,9(sp)
    28ae:	0785                	addi	a5,a5,1
    28b0:	0786                	slli	a5,a5,0x1
    28b2:	97ae                	add	a5,a5,a1
    28b4:	fec7d583          	lhu	a1,-20(a5)
    28b8:	00171793          	slli	a5,a4,0x1
    28bc:	1018                	addi	a4,sp,32
    28be:	97ba                	add	a5,a5,a4
    28c0:	feb79623          	sh	a1,-20(a5)
    28c4:	849c                	lbu	a5,9(sp)
    28c6:	8538                	lhu	a4,10(sp)
    28c8:	100c                	addi	a1,sp,32
    28ca:	0785                	addi	a5,a5,1
    28cc:	0786                	slli	a5,a5,0x1
    28ce:	97ae                	add	a5,a5,a1
    28d0:	fee79623          	sh	a4,-20(a5)
    28d4:	849c                	lbu	a5,9(sp)
    28d6:	0785                	addi	a5,a5,1
    28d8:	0ff7f793          	andi	a5,a5,255
    28dc:	84dc                	sb	a5,9(sp)
    28de:	bf49                	j	2870 <Get_CalibrationValue+0xa0>
    28e0:	841c                	lbu	a5,8(sp)
    28e2:	1010                	addi	a2,sp,32
    28e4:	8538                	lhu	a4,10(sp)
    28e6:	0789                	addi	a5,a5,2
    28e8:	0786                	slli	a5,a5,0x1
    28ea:	97b2                	add	a5,a5,a2
    28ec:	fec7d783          	lhu	a5,-20(a5)
    28f0:	97ba                	add	a5,a5,a4
    28f2:	07c2                	slli	a5,a5,0x10
    28f4:	83c1                	srli	a5,a5,0x10
    28f6:	857c                	sh	a5,10(sp)
    28f8:	841c                	lbu	a5,8(sp)
    28fa:	0785                	addi	a5,a5,1
    28fc:	0ff7f793          	andi	a5,a5,255
    2900:	845c                	sb	a5,8(sp)
    2902:	bded                	j	27fc <Get_CalibrationValue+0x2c>

00002904 <GPIO_Init>:
    2904:	459c                	lw	a5,8(a1)
    2906:	0107f713          	andi	a4,a5,16
    290a:	00f7f813          	andi	a6,a5,15
    290e:	c701                	beqz	a4,2916 <GPIO_Init+0x12>
    2910:	41d8                	lw	a4,4(a1)
    2912:	00e86833          	or	a6,a6,a4
    2916:	218e                	lhu	a1,0(a1)
    2918:	0ff5f713          	andi	a4,a1,255
    291c:	c339                	beqz	a4,2962 <GPIO_Init+0x5e>
    291e:	4118                	lw	a4,0(a0)
    2920:	4681                	li	a3,0
    2922:	4e85                	li	t4,1
    2924:	4f3d                	li	t5,15
    2926:	02800f93          	li	t6,40
    292a:	04800293          	li	t0,72
    292e:	4e21                	li	t3,8
    2930:	00de9633          	sll	a2,t4,a3
    2934:	00c5f8b3          	and	a7,a1,a2
    2938:	03161163          	bne	a2,a7,295a <GPIO_Init+0x56>
    293c:	00269893          	slli	a7,a3,0x2
    2940:	011f1333          	sll	t1,t5,a7
    2944:	fff34313          	not	t1,t1
    2948:	00e37733          	and	a4,t1,a4
    294c:	011818b3          	sll	a7,a6,a7
    2950:	00e8e733          	or	a4,a7,a4
    2954:	05f79f63          	bne	a5,t6,29b2 <GPIO_Init+0xae>
    2958:	c950                	sw	a2,20(a0)
    295a:	0685                	addi	a3,a3,1
    295c:	fdc69ae3          	bne	a3,t3,2930 <GPIO_Init+0x2c>
    2960:	c118                	sw	a4,0(a0)
    2962:	0ff00713          	li	a4,255
    2966:	04b77563          	bgeu	a4,a1,29b0 <GPIO_Init+0xac>
    296a:	4154                	lw	a3,4(a0)
    296c:	4621                	li	a2,8
    296e:	4e85                	li	t4,1
    2970:	4f3d                	li	t5,15
    2972:	02800f93          	li	t6,40
    2976:	04800293          	li	t0,72
    297a:	4e41                	li	t3,16
    297c:	00ce98b3          	sll	a7,t4,a2
    2980:	0115f733          	and	a4,a1,a7
    2984:	02e89263          	bne	a7,a4,29a8 <GPIO_Init+0xa4>
    2988:	00261713          	slli	a4,a2,0x2
    298c:	1701                	addi	a4,a4,-32
    298e:	00ef1333          	sll	t1,t5,a4
    2992:	fff34313          	not	t1,t1
    2996:	00d376b3          	and	a3,t1,a3
    299a:	00e81733          	sll	a4,a6,a4
    299e:	8ed9                	or	a3,a3,a4
    29a0:	01f79d63          	bne	a5,t6,29ba <GPIO_Init+0xb6>
    29a4:	01152a23          	sw	a7,20(a0)
    29a8:	0605                	addi	a2,a2,1
    29aa:	fdc619e3          	bne	a2,t3,297c <GPIO_Init+0x78>
    29ae:	c154                	sw	a3,4(a0)
    29b0:	8082                	ret
    29b2:	fa5794e3          	bne	a5,t0,295a <GPIO_Init+0x56>
    29b6:	c910                	sw	a2,16(a0)
    29b8:	b74d                	j	295a <GPIO_Init+0x56>
    29ba:	fe5797e3          	bne	a5,t0,29a8 <GPIO_Init+0xa4>
    29be:	01152823          	sw	a7,16(a0)
    29c2:	b7dd                	j	29a8 <GPIO_Init+0xa4>

000029c4 <GPIO_ReadInputDataBit>:
    29c4:	4508                	lw	a0,8(a0)
    29c6:	8d6d                	and	a0,a0,a1
    29c8:	00a03533          	snez	a0,a0
    29cc:	8082                	ret

000029ce <GPIO_SetBits>:
    29ce:	c90c                	sw	a1,16(a0)
    29d0:	8082                	ret

000029d2 <GPIO_ResetBits>:
    29d2:	c94c                	sw	a1,20(a0)
    29d4:	8082                	ret

000029d6 <GPIO_PinRemapConfig>:
    29d6:	400107b7          	lui	a5,0x40010
    29da:	04055a63          	bgez	a0,2a2e <GPIO_PinRemapConfig+0x58>
    29de:	4fdc                	lw	a5,28(a5)
    29e0:	01055693          	srli	a3,a0,0x10
    29e4:	01051813          	slli	a6,a0,0x10
    29e8:	00300737          	lui	a4,0x300
    29ec:	00f6f613          	andi	a2,a3,15
    29f0:	01085813          	srli	a6,a6,0x10
    29f4:	00e576b3          	and	a3,a0,a4
    29f8:	06055063          	bgez	a0,2a58 <GPIO_PinRemapConfig+0x82>
    29fc:	02e69b63          	bne	a3,a4,2a32 <GPIO_PinRemapConfig+0x5c>
    2a00:	01060693          	addi	a3,a2,16
    2a04:	460d                	li	a2,3
    2a06:	00d616b3          	sll	a3,a2,a3
    2a0a:	fff6c693          	not	a3,a3
    2a0e:	8ff5                	and	a5,a5,a3
    2a10:	c999                	beqz	a1,2a26 <GPIO_PinRemapConfig+0x50>
    2a12:	01555713          	srli	a4,a0,0x15
    2a16:	3ff77713          	andi	a4,a4,1023
    2a1a:	0712                	slli	a4,a4,0x4
    2a1c:	00e81733          	sll	a4,a6,a4
    2a20:	8fd9                	or	a5,a5,a4
    2a22:	04055763          	bgez	a0,2a70 <GPIO_PinRemapConfig+0x9a>
    2a26:	40010737          	lui	a4,0x40010
    2a2a:	cf5c                	sw	a5,28(a4)
    2a2c:	8082                	ret
    2a2e:	43dc                	lw	a5,4(a5)
    2a30:	bf45                	j	29e0 <GPIO_PinRemapConfig+0xa>
    2a32:	00b51713          	slli	a4,a0,0xb
    2a36:	00075663          	bgez	a4,2a42 <GPIO_PinRemapConfig+0x6c>
    2a3a:	468d                	li	a3,3
    2a3c:	00c696b3          	sll	a3,a3,a2
    2a40:	b7e9                	j	2a0a <GPIO_PinRemapConfig+0x34>
    2a42:	01555713          	srli	a4,a0,0x15
    2a46:	3ff77713          	andi	a4,a4,1023
    2a4a:	0712                	slli	a4,a4,0x4
    2a4c:	00e81733          	sll	a4,a6,a4
    2a50:	fff74713          	not	a4,a4
    2a54:	8ff9                	and	a5,a5,a4
    2a56:	bf6d                	j	2a10 <GPIO_PinRemapConfig+0x3a>
    2a58:	02e69063          	bne	a3,a4,2a78 <GPIO_PinRemapConfig+0xa2>
    2a5c:	40010637          	lui	a2,0x40010
    2a60:	4254                	lw	a3,4(a2)
    2a62:	f1000737          	lui	a4,0xf1000
    2a66:	177d                	addi	a4,a4,-1
    2a68:	8ff9                	and	a5,a5,a4
    2a6a:	8f75                	and	a4,a4,a3
    2a6c:	c258                	sw	a4,4(a2)
    2a6e:	f1d5                	bnez	a1,2a12 <GPIO_PinRemapConfig+0x3c>
    2a70:	40010737          	lui	a4,0x40010
    2a74:	c35c                	sw	a5,4(a4)
    2a76:	8082                	ret
    2a78:	00b51713          	slli	a4,a0,0xb
    2a7c:	00075c63          	bgez	a4,2a94 <GPIO_PinRemapConfig+0xbe>
    2a80:	468d                	li	a3,3
    2a82:	00c696b3          	sll	a3,a3,a2
    2a86:	fff6c693          	not	a3,a3
    2a8a:	8efd                	and	a3,a3,a5
    2a8c:	0f0007b7          	lui	a5,0xf000
    2a90:	8fd5                	or	a5,a5,a3
    2a92:	bff1                	j	2a6e <GPIO_PinRemapConfig+0x98>
    2a94:	01555713          	srli	a4,a0,0x15
    2a98:	0712                	slli	a4,a4,0x4
    2a9a:	00e81733          	sll	a4,a6,a4
    2a9e:	fff74713          	not	a4,a4
    2aa2:	8f7d                	and	a4,a4,a5
    2aa4:	0f0007b7          	lui	a5,0xf000
    2aa8:	8fd9                	or	a5,a5,a4
    2aaa:	b7d1                	j	2a6e <GPIO_PinRemapConfig+0x98>

00002aac <I2C_Init>:
    2aac:	f84fd2ef          	jal	t0,230 <__riscv_save_0>
    2ab0:	7179                	addi	sp,sp,-48
    2ab2:	842a                	mv	s0,a0
    2ab4:	2146                	lhu	s1,4(a0)
    2ab6:	0868                	addi	a0,sp,28
    2ab8:	c62e                	sw	a1,12(sp)
    2aba:	24bd                	jal	2d28 <RCC_GetClocksFreq>
    2abc:	5792                	lw	a5,36(sp)
    2abe:	000f4737          	lui	a4,0xf4
    2ac2:	24070713          	addi	a4,a4,576 # f4240 <_data_lma+0xeca0c>
    2ac6:	02e7d733          	divu	a4,a5,a4
    2aca:	04c2                	slli	s1,s1,0x10
    2acc:	80c1                	srli	s1,s1,0x10
    2ace:	fc04f493          	andi	s1,s1,-64
    2ad2:	04c2                	slli	s1,s1,0x10
    2ad4:	80c1                	srli	s1,s1,0x10
    2ad6:	45b2                	lw	a1,12(sp)
    2ad8:	6561                	lui	a0,0x18
    2ada:	6a050513          	addi	a0,a0,1696 # 186a0 <_data_lma+0x10e6c>
    2ade:	01071613          	slli	a2,a4,0x10
    2ae2:	8241                	srli	a2,a2,0x10
    2ae4:	8cd1                	or	s1,s1,a2
    2ae6:	a046                	sh	s1,4(s0)
    2ae8:	2016                	lhu	a3,0(s0)
    2aea:	06c2                	slli	a3,a3,0x10
    2aec:	82c1                	srli	a3,a3,0x10
    2aee:	9af9                	andi	a3,a3,-2
    2af0:	06c2                	slli	a3,a3,0x10
    2af2:	82c1                	srli	a3,a3,0x10
    2af4:	a016                	sh	a3,0(s0)
    2af6:	4194                	lw	a3,0(a1)
    2af8:	04d56963          	bltu	a0,a3,2b4a <I2C_Init+0x9e>
    2afc:	0686                	slli	a3,a3,0x1
    2afe:	02d7d7b3          	divu	a5,a5,a3
    2b02:	4691                	li	a3,4
    2b04:	01079713          	slli	a4,a5,0x10
    2b08:	8341                	srli	a4,a4,0x10
    2b0a:	87ba                	mv	a5,a4
    2b0c:	00d77363          	bgeu	a4,a3,2b12 <I2C_Init+0x66>
    2b10:	4791                	li	a5,4
    2b12:	0605                	addi	a2,a2,1
    2b14:	0642                	slli	a2,a2,0x10
    2b16:	07c2                	slli	a5,a5,0x10
    2b18:	8241                	srli	a2,a2,0x10
    2b1a:	83c1                	srli	a5,a5,0x10
    2b1c:	b012                	sh	a2,32(s0)
    2b1e:	ac5e                	sh	a5,28(s0)
    2b20:	201e                	lhu	a5,0(s0)
    2b22:	21da                	lhu	a4,4(a1)
    2b24:	25b6                	lhu	a3,10(a1)
    2b26:	0017e793          	ori	a5,a5,1
    2b2a:	a01e                	sh	a5,0(s0)
    2b2c:	201e                	lhu	a5,0(s0)
    2b2e:	8f55                	or	a4,a4,a3
    2b30:	07c2                	slli	a5,a5,0x10
    2b32:	83c1                	srli	a5,a5,0x10
    2b34:	bf57f793          	andi	a5,a5,-1035
    2b38:	8fd9                	or	a5,a5,a4
    2b3a:	a01e                	sh	a5,0(s0)
    2b3c:	259a                	lhu	a4,8(a1)
    2b3e:	25de                	lhu	a5,12(a1)
    2b40:	8fd9                	or	a5,a5,a4
    2b42:	a41e                	sh	a5,8(s0)
    2b44:	6145                	addi	sp,sp,48
    2b46:	f0efd06f          	j	254 <__riscv_restore_0>
    2b4a:	21ea                	lhu	a0,6(a1)
    2b4c:	6631                	lui	a2,0xc
    2b4e:	167d                	addi	a2,a2,-1
    2b50:	02c51d63          	bne	a0,a2,2b8a <I2C_Init+0xde>
    2b54:	460d                	li	a2,3
    2b56:	02c686b3          	mul	a3,a3,a2
    2b5a:	02d7d7b3          	divu	a5,a5,a3
    2b5e:	07c2                	slli	a5,a5,0x10
    2b60:	83c1                	srli	a5,a5,0x10
    2b62:	01479693          	slli	a3,a5,0x14
    2b66:	e299                	bnez	a3,2b6c <I2C_Init+0xc0>
    2b68:	0017e793          	ori	a5,a5,1
    2b6c:	66a1                	lui	a3,0x8
    2b6e:	8fd5                	or	a5,a5,a3
    2b70:	12c00693          	li	a3,300
    2b74:	02d70733          	mul	a4,a4,a3
    2b78:	3e800693          	li	a3,1000
    2b7c:	02d74733          	div	a4,a4,a3
    2b80:	0705                	addi	a4,a4,1
    2b82:	0742                	slli	a4,a4,0x10
    2b84:	8341                	srli	a4,a4,0x10
    2b86:	b01a                	sh	a4,32(s0)
    2b88:	bf59                	j	2b1e <I2C_Init+0x72>
    2b8a:	4665                	li	a2,25
    2b8c:	02c686b3          	mul	a3,a3,a2
    2b90:	02d7d7b3          	divu	a5,a5,a3
    2b94:	6691                	lui	a3,0x4
    2b96:	07c2                	slli	a5,a5,0x10
    2b98:	83c1                	srli	a5,a5,0x10
    2b9a:	8fd5                	or	a5,a5,a3
    2b9c:	b7d9                	j	2b62 <I2C_Init+0xb6>

00002b9e <I2C_Cmd>:
    2b9e:	211e                	lhu	a5,0(a0)
    2ba0:	c589                	beqz	a1,2baa <I2C_Cmd+0xc>
    2ba2:	0017e793          	ori	a5,a5,1
    2ba6:	a11e                	sh	a5,0(a0)
    2ba8:	8082                	ret
    2baa:	07c2                	slli	a5,a5,0x10
    2bac:	83c1                	srli	a5,a5,0x10
    2bae:	9bf9                	andi	a5,a5,-2
    2bb0:	07c2                	slli	a5,a5,0x10
    2bb2:	83c1                	srli	a5,a5,0x10
    2bb4:	bfcd                	j	2ba6 <I2C_Cmd+0x8>

00002bb6 <I2C_GenerateSTART>:
    2bb6:	211e                	lhu	a5,0(a0)
    2bb8:	c589                	beqz	a1,2bc2 <I2C_GenerateSTART+0xc>
    2bba:	1007e793          	ori	a5,a5,256
    2bbe:	a11e                	sh	a5,0(a0)
    2bc0:	8082                	ret
    2bc2:	07c2                	slli	a5,a5,0x10
    2bc4:	83c1                	srli	a5,a5,0x10
    2bc6:	eff7f793          	andi	a5,a5,-257
    2bca:	07c2                	slli	a5,a5,0x10
    2bcc:	83c1                	srli	a5,a5,0x10
    2bce:	bfc5                	j	2bbe <I2C_GenerateSTART+0x8>

00002bd0 <I2C_GenerateSTOP>:
    2bd0:	211e                	lhu	a5,0(a0)
    2bd2:	c589                	beqz	a1,2bdc <I2C_GenerateSTOP+0xc>
    2bd4:	2007e793          	ori	a5,a5,512
    2bd8:	a11e                	sh	a5,0(a0)
    2bda:	8082                	ret
    2bdc:	07c2                	slli	a5,a5,0x10
    2bde:	83c1                	srli	a5,a5,0x10
    2be0:	dff7f793          	andi	a5,a5,-513
    2be4:	07c2                	slli	a5,a5,0x10
    2be6:	83c1                	srli	a5,a5,0x10
    2be8:	bfc5                	j	2bd8 <I2C_GenerateSTOP+0x8>

00002bea <I2C_AcknowledgeConfig>:
    2bea:	211e                	lhu	a5,0(a0)
    2bec:	c589                	beqz	a1,2bf6 <I2C_AcknowledgeConfig+0xc>
    2bee:	4007e793          	ori	a5,a5,1024
    2bf2:	a11e                	sh	a5,0(a0)
    2bf4:	8082                	ret
    2bf6:	07c2                	slli	a5,a5,0x10
    2bf8:	83c1                	srli	a5,a5,0x10
    2bfa:	bff7f793          	andi	a5,a5,-1025
    2bfe:	07c2                	slli	a5,a5,0x10
    2c00:	83c1                	srli	a5,a5,0x10
    2c02:	bfc5                	j	2bf2 <I2C_AcknowledgeConfig+0x8>

00002c04 <I2C_SendData>:
    2c04:	a90e                	sh	a1,16(a0)
    2c06:	8082                	ret

00002c08 <I2C_ReceiveData>:
    2c08:	290a                	lhu	a0,16(a0)
    2c0a:	0ff57513          	andi	a0,a0,255
    2c0e:	8082                	ret

00002c10 <I2C_Send7bitAddress>:
    2c10:	0fe5f793          	andi	a5,a1,254
    2c14:	c219                	beqz	a2,2c1a <I2C_Send7bitAddress+0xa>
    2c16:	0015e793          	ori	a5,a1,1
    2c1a:	07c2                	slli	a5,a5,0x10
    2c1c:	83c1                	srli	a5,a5,0x10
    2c1e:	a91e                	sh	a5,16(a0)
    2c20:	8082                	ret

00002c22 <I2C_CheckEvent>:
    2c22:	295e                	lhu	a5,20(a0)
    2c24:	2d0a                	lhu	a0,24(a0)
    2c26:	0542                	slli	a0,a0,0x10
    2c28:	8d5d                	or	a0,a0,a5
    2c2a:	8d6d                	and	a0,a0,a1
    2c2c:	0522                	slli	a0,a0,0x8
    2c2e:	8121                	srli	a0,a0,0x8
    2c30:	8d0d                	sub	a0,a0,a1
    2c32:	00153513          	seqz	a0,a0
    2c36:	8082                	ret

00002c38 <I2C_GetFlagStatus>:
    2c38:	1141                	addi	sp,sp,-16
    2c3a:	c402                	sw	zero,8(sp)
    2c3c:	c602                	sw	zero,12(sp)
    2c3e:	01c5d793          	srli	a5,a1,0x1c
    2c42:	c62a                	sw	a0,12(sp)
    2c44:	c43e                	sw	a5,8(sp)
    2c46:	47a2                	lw	a5,8(sp)
    2c48:	05a2                	slli	a1,a1,0x8
    2c4a:	81a1                	srli	a1,a1,0x8
    2c4c:	cb99                	beqz	a5,2c62 <I2C_GetFlagStatus+0x2a>
    2c4e:	47b2                	lw	a5,12(sp)
    2c50:	07d1                	addi	a5,a5,20
    2c52:	c63e                	sw	a5,12(sp)
    2c54:	47b2                	lw	a5,12(sp)
    2c56:	4388                	lw	a0,0(a5)
    2c58:	0141                	addi	sp,sp,16
    2c5a:	8d6d                	and	a0,a0,a1
    2c5c:	00a03533          	snez	a0,a0
    2c60:	8082                	ret
    2c62:	47b2                	lw	a5,12(sp)
    2c64:	81c1                	srli	a1,a1,0x10
    2c66:	07e1                	addi	a5,a5,24
    2c68:	b7ed                	j	2c52 <I2C_GetFlagStatus+0x1a>

00002c6a <NVIC_PriorityGroupConfig>:
    2c6a:	88a1a223          	sw	a0,-1916(gp) # 20000104 <NVIC_Priority_Group>
    2c6e:	8082                	ret

00002c70 <NVIC_Init>:
    2c70:	88418793          	addi	a5,gp,-1916 # 20000104 <NVIC_Priority_Group>
    2c74:	4394                	lw	a3,0(a5)
    2c76:	2118                	lbu	a4,0(a0)
    2c78:	e681                	bnez	a3,2c80 <NVIC_Init+0x10>
    2c7a:	213c                	lbu	a5,2(a0)
    2c7c:	0792                	slli	a5,a5,0x4
    2c7e:	a821                	j	2c96 <NVIC_Init+0x26>
    2c80:	4394                	lw	a3,0(a5)
    2c82:	4605                	li	a2,1
    2c84:	02c69f63          	bne	a3,a2,2cc2 <NVIC_Init+0x52>
    2c88:	213c                	lbu	a5,2(a0)
    2c8a:	3110                	lbu	a2,1(a0)
    2c8c:	0792                	slli	a5,a5,0x4
    2c8e:	00d61463          	bne	a2,a3,2c96 <NVIC_Init+0x26>
    2c92:	f807e793          	ori	a5,a5,-128
    2c96:	e000e6b7          	lui	a3,0xe000e
    2c9a:	0ff7f793          	andi	a5,a5,255
    2c9e:	96ba                	add	a3,a3,a4
    2ca0:	40f68023          	sb	a5,1024(a3) # e000e400 <_eusrstack+0xc0006400>
    2ca4:	4685                	li	a3,1
    2ca6:	00575793          	srli	a5,a4,0x5
    2caa:	00e69733          	sll	a4,a3,a4
    2cae:	4154                	lw	a3,4(a0)
    2cb0:	c2a5                	beqz	a3,2d10 <NVIC_Init+0xa0>
    2cb2:	04078793          	addi	a5,a5,64 # f000040 <_data_lma+0xeff880c>
    2cb6:	078a                	slli	a5,a5,0x2
    2cb8:	e000e6b7          	lui	a3,0xe000e
    2cbc:	97b6                	add	a5,a5,a3
    2cbe:	c398                	sw	a4,0(a5)
    2cc0:	8082                	ret
    2cc2:	438c                	lw	a1,0(a5)
    2cc4:	4689                	li	a3,2
    2cc6:	02d59163          	bne	a1,a3,2ce8 <NVIC_Init+0x78>
    2cca:	3114                	lbu	a3,1(a0)
    2ccc:	213c                	lbu	a5,2(a0)
    2cce:	00d66563          	bltu	a2,a3,2cd8 <NVIC_Init+0x68>
    2cd2:	068a                	slli	a3,a3,0x2
    2cd4:	97b6                	add	a5,a5,a3
    2cd6:	b75d                	j	2c7c <NVIC_Init+0xc>
    2cd8:	03e68693          	addi	a3,a3,62 # e000e03e <_eusrstack+0xc000603e>
    2cdc:	068a                	slli	a3,a3,0x2
    2cde:	97b6                	add	a5,a5,a3
    2ce0:	0ff7f793          	andi	a5,a5,255
    2ce4:	0792                	slli	a5,a5,0x4
    2ce6:	b775                	j	2c92 <NVIC_Init+0x22>
    2ce8:	4390                	lw	a2,0(a5)
    2cea:	468d                	li	a3,3
    2cec:	00d61c63          	bne	a2,a3,2d04 <NVIC_Init+0x94>
    2cf0:	3114                	lbu	a3,1(a0)
    2cf2:	213c                	lbu	a5,2(a0)
    2cf4:	00d66463          	bltu	a2,a3,2cfc <NVIC_Init+0x8c>
    2cf8:	0686                	slli	a3,a3,0x1
    2cfa:	bfe9                	j	2cd4 <NVIC_Init+0x64>
    2cfc:	07c68693          	addi	a3,a3,124
    2d00:	0686                	slli	a3,a3,0x1
    2d02:	bff1                	j	2cde <NVIC_Init+0x6e>
    2d04:	4394                	lw	a3,0(a5)
    2d06:	4791                	li	a5,4
    2d08:	f8f69ee3          	bne	a3,a5,2ca4 <NVIC_Init+0x34>
    2d0c:	311c                	lbu	a5,1(a0)
    2d0e:	b7bd                	j	2c7c <NVIC_Init+0xc>
    2d10:	06078793          	addi	a5,a5,96
    2d14:	b74d                	j	2cb6 <NVIC_Init+0x46>

00002d16 <RCC_ADCCLKConfig>:
    2d16:	400216b7          	lui	a3,0x40021
    2d1a:	42dc                	lw	a5,4(a3)
    2d1c:	7751                	lui	a4,0xffff4
    2d1e:	177d                	addi	a4,a4,-1
    2d20:	8ff9                	and	a5,a5,a4
    2d22:	8d5d                	or	a0,a0,a5
    2d24:	c2c8                	sw	a0,4(a3)
    2d26:	8082                	ret

00002d28 <RCC_GetClocksFreq>:
    2d28:	40021737          	lui	a4,0x40021
    2d2c:	435c                	lw	a5,4(a4)
    2d2e:	4691                	li	a3,4
    2d30:	8bb1                	andi	a5,a5,12
    2d32:	00d78563          	beq	a5,a3,2d3c <RCC_GetClocksFreq+0x14>
    2d36:	46a1                	li	a3,8
    2d38:	06d78263          	beq	a5,a3,2d9c <RCC_GetClocksFreq+0x74>
    2d3c:	007a17b7          	lui	a5,0x7a1
    2d40:	20078793          	addi	a5,a5,512 # 7a1200 <_data_lma+0x7999cc>
    2d44:	c11c                	sw	a5,0(a0)
    2d46:	40021637          	lui	a2,0x40021
    2d4a:	425c                	lw	a5,4(a2)
    2d4c:	20000737          	lui	a4,0x20000
    2d50:	01070713          	addi	a4,a4,16 # 20000010 <APBAHBPrescTable>
    2d54:	8391                	srli	a5,a5,0x4
    2d56:	8bbd                	andi	a5,a5,15
    2d58:	97ba                	add	a5,a5,a4
    2d5a:	2394                	lbu	a3,0(a5)
    2d5c:	411c                	lw	a5,0(a0)
    2d5e:	00d7d7b3          	srl	a5,a5,a3
    2d62:	c15c                	sw	a5,4(a0)
    2d64:	4254                	lw	a3,4(a2)
    2d66:	82a1                	srli	a3,a3,0x8
    2d68:	8a9d                	andi	a3,a3,7
    2d6a:	96ba                	add	a3,a3,a4
    2d6c:	2294                	lbu	a3,0(a3)
    2d6e:	00d7d6b3          	srl	a3,a5,a3
    2d72:	c514                	sw	a3,8(a0)
    2d74:	4254                	lw	a3,4(a2)
    2d76:	82ad                	srli	a3,a3,0xb
    2d78:	8a9d                	andi	a3,a3,7
    2d7a:	9736                	add	a4,a4,a3
    2d7c:	2318                	lbu	a4,0(a4)
    2d7e:	00e7d7b3          	srl	a5,a5,a4
    2d82:	c55c                	sw	a5,12(a0)
    2d84:	4258                	lw	a4,4(a2)
    2d86:	8339                	srli	a4,a4,0xe
    2d88:	00377693          	andi	a3,a4,3
    2d8c:	82c18713          	addi	a4,gp,-2004 # 200000ac <ADCPrescTable>
    2d90:	9736                	add	a4,a4,a3
    2d92:	2318                	lbu	a4,0(a4)
    2d94:	02e7d7b3          	divu	a5,a5,a4
    2d98:	c91c                	sw	a5,16(a0)
    2d9a:	8082                	ret
    2d9c:	435c                	lw	a5,4(a4)
    2d9e:	4358                	lw	a4,4(a4)
    2da0:	66c1                	lui	a3,0x10
    2da2:	83c9                	srli	a5,a5,0x12
    2da4:	8f75                	and	a4,a4,a3
    2da6:	1ffff6b7          	lui	a3,0x1ffff
    2daa:	70c6a683          	lw	a3,1804(a3) # 1ffff70c <_data_lma+0x1fff7ed8>
    2dae:	8bbd                	andi	a5,a5,15
    2db0:	0789                	addi	a5,a5,2
    2db2:	01169613          	slli	a2,a3,0x11
    2db6:	00064863          	bltz	a2,2dc6 <RCC_GetClocksFreq+0x9e>
    2dba:	46c5                	li	a3,17
    2dbc:	4601                	li	a2,0
    2dbe:	02d79263          	bne	a5,a3,2de2 <RCC_GetClocksFreq+0xba>
    2dc2:	47c9                	li	a5,18
    2dc4:	a839                	j	2de2 <RCC_GetClocksFreq+0xba>
    2dc6:	4689                	li	a3,2
    2dc8:	02d78f63          	beq	a5,a3,2e06 <RCC_GetClocksFreq+0xde>
    2dcc:	46bd                	li	a3,15
    2dce:	02d78e63          	beq	a5,a3,2e0a <RCC_GetClocksFreq+0xe2>
    2dd2:	46c1                	li	a3,16
    2dd4:	02d78e63          	beq	a5,a3,2e10 <RCC_GetClocksFreq+0xe8>
    2dd8:	46c5                	li	a3,17
    2dda:	4601                	li	a2,0
    2ddc:	00d79363          	bne	a5,a3,2de2 <RCC_GetClocksFreq+0xba>
    2de0:	47c1                	li	a5,16
    2de2:	ef1d                	bnez	a4,2e20 <RCC_GetClocksFreq+0xf8>
    2de4:	40024737          	lui	a4,0x40024
    2de8:	80072703          	lw	a4,-2048(a4) # 40023800 <_eusrstack+0x2001b800>
    2dec:	8b41                	andi	a4,a4,16
    2dee:	c705                	beqz	a4,2e16 <RCC_GetClocksFreq+0xee>
    2df0:	007a1737          	lui	a4,0x7a1
    2df4:	20070713          	addi	a4,a4,512 # 7a1200 <_data_lma+0x7999cc>
    2df8:	02f707b3          	mul	a5,a4,a5
    2dfc:	c11c                	sw	a5,0(a0)
    2dfe:	d621                	beqz	a2,2d46 <RCC_GetClocksFreq+0x1e>
    2e00:	411c                	lw	a5,0(a0)
    2e02:	8385                	srli	a5,a5,0x1
    2e04:	b781                	j	2d44 <RCC_GetClocksFreq+0x1c>
    2e06:	4601                	li	a2,0
    2e08:	bf6d                	j	2dc2 <RCC_GetClocksFreq+0x9a>
    2e0a:	4605                	li	a2,1
    2e0c:	47b5                	li	a5,13
    2e0e:	bfd1                	j	2de2 <RCC_GetClocksFreq+0xba>
    2e10:	4601                	li	a2,0
    2e12:	47bd                	li	a5,15
    2e14:	b7f9                	j	2de2 <RCC_GetClocksFreq+0xba>
    2e16:	003d1737          	lui	a4,0x3d1
    2e1a:	90070713          	addi	a4,a4,-1792 # 3d0900 <_data_lma+0x3c90cc>
    2e1e:	bfe9                	j	2df8 <RCC_GetClocksFreq+0xd0>
    2e20:	400215b7          	lui	a1,0x40021
    2e24:	55d8                	lw	a4,44(a1)
    2e26:	00f71693          	slli	a3,a4,0xf
    2e2a:	55d8                	lw	a4,44(a1)
    2e2c:	0406df63          	bgez	a3,2e8a <RCC_GetClocksFreq+0x162>
    2e30:	8311                	srli	a4,a4,0x4
    2e32:	8b3d                	andi	a4,a4,15
    2e34:	00170693          	addi	a3,a4,1
    2e38:	007a1737          	lui	a4,0x7a1
    2e3c:	20070713          	addi	a4,a4,512 # 7a1200 <_data_lma+0x7999cc>
    2e40:	02d75733          	divu	a4,a4,a3
    2e44:	c118                	sw	a4,0(a0)
    2e46:	55d4                	lw	a3,44(a1)
    2e48:	82a1                	srli	a3,a3,0x8
    2e4a:	8abd                	andi	a3,a3,15
    2e4c:	e28d                	bnez	a3,2e6e <RCC_GetClocksFreq+0x146>
    2e4e:	4695                	li	a3,5
    2e50:	02d70733          	mul	a4,a4,a3
    2e54:	8305                	srli	a4,a4,0x1
    2e56:	c118                	sw	a4,0(a0)
    2e58:	40021737          	lui	a4,0x40021
    2e5c:	5758                	lw	a4,44(a4)
    2e5e:	4114                	lw	a3,0(a0)
    2e60:	8b3d                	andi	a4,a4,15
    2e62:	0705                	addi	a4,a4,1
    2e64:	02e6d733          	divu	a4,a3,a4
    2e68:	c118                	sw	a4,0(a0)
    2e6a:	4118                	lw	a4,0(a0)
    2e6c:	b771                	j	2df8 <RCC_GetClocksFreq+0xd0>
    2e6e:	4585                	li	a1,1
    2e70:	00b69463          	bne	a3,a1,2e78 <RCC_GetClocksFreq+0x150>
    2e74:	46e5                	li	a3,25
    2e76:	bfe9                	j	2e50 <RCC_GetClocksFreq+0x128>
    2e78:	45bd                	li	a1,15
    2e7a:	00b69663          	bne	a3,a1,2e86 <RCC_GetClocksFreq+0x15e>
    2e7e:	46d1                	li	a3,20
    2e80:	02e68733          	mul	a4,a3,a4
    2e84:	bfc9                	j	2e56 <RCC_GetClocksFreq+0x12e>
    2e86:	0689                	addi	a3,a3,2
    2e88:	bfe5                	j	2e80 <RCC_GetClocksFreq+0x158>
    2e8a:	8b3d                	andi	a4,a4,15
    2e8c:	00170693          	addi	a3,a4,1 # 40021001 <_eusrstack+0x20019001>
    2e90:	007a1737          	lui	a4,0x7a1
    2e94:	20070713          	addi	a4,a4,512 # 7a1200 <_data_lma+0x7999cc>
    2e98:	02d75733          	divu	a4,a4,a3
    2e9c:	b7f1                	j	2e68 <RCC_GetClocksFreq+0x140>

00002e9e <RCC_APB2PeriphClockCmd>:
    2e9e:	c599                	beqz	a1,2eac <RCC_APB2PeriphClockCmd+0xe>
    2ea0:	40021737          	lui	a4,0x40021
    2ea4:	4f1c                	lw	a5,24(a4)
    2ea6:	8d5d                	or	a0,a0,a5
    2ea8:	cf08                	sw	a0,24(a4)
    2eaa:	8082                	ret
    2eac:	400217b7          	lui	a5,0x40021
    2eb0:	4f98                	lw	a4,24(a5)
    2eb2:	fff54513          	not	a0,a0
    2eb6:	8d79                	and	a0,a0,a4
    2eb8:	cf88                	sw	a0,24(a5)
    2eba:	8082                	ret

00002ebc <RCC_APB1PeriphClockCmd>:
    2ebc:	c599                	beqz	a1,2eca <RCC_APB1PeriphClockCmd+0xe>
    2ebe:	40021737          	lui	a4,0x40021
    2ec2:	4f5c                	lw	a5,28(a4)
    2ec4:	8d5d                	or	a0,a0,a5
    2ec6:	cf48                	sw	a0,28(a4)
    2ec8:	8082                	ret
    2eca:	400217b7          	lui	a5,0x40021
    2ece:	4fd8                	lw	a4,28(a5)
    2ed0:	fff54513          	not	a0,a0
    2ed4:	8d79                	and	a0,a0,a4
    2ed6:	cfc8                	sw	a0,28(a5)
    2ed8:	8082                	ret

00002eda <RCC_APB2PeriphResetCmd>:
    2eda:	c599                	beqz	a1,2ee8 <RCC_APB2PeriphResetCmd+0xe>
    2edc:	40021737          	lui	a4,0x40021
    2ee0:	475c                	lw	a5,12(a4)
    2ee2:	8d5d                	or	a0,a0,a5
    2ee4:	c748                	sw	a0,12(a4)
    2ee6:	8082                	ret
    2ee8:	400217b7          	lui	a5,0x40021
    2eec:	47d8                	lw	a4,12(a5)
    2eee:	fff54513          	not	a0,a0
    2ef2:	8d79                	and	a0,a0,a4
    2ef4:	c7c8                	sw	a0,12(a5)
    2ef6:	8082                	ret

00002ef8 <SPI_Init>:
    2ef8:	211a                	lhu	a4,0(a0)
    2efa:	678d                	lui	a5,0x3
    2efc:	04078793          	addi	a5,a5,64 # 3040 <USART_ITConfig+0xc>
    2f00:	21b6                	lhu	a3,2(a1)
    2f02:	8f7d                	and	a4,a4,a5
    2f04:	219e                	lhu	a5,0(a1)
    2f06:	8fd5                	or	a5,a5,a3
    2f08:	21d6                	lhu	a3,4(a1)
    2f0a:	8fd5                	or	a5,a5,a3
    2f0c:	21f6                	lhu	a3,6(a1)
    2f0e:	8fd5                	or	a5,a5,a3
    2f10:	2596                	lhu	a3,8(a1)
    2f12:	8fd5                	or	a5,a5,a3
    2f14:	25b6                	lhu	a3,10(a1)
    2f16:	8fd5                	or	a5,a5,a3
    2f18:	25d6                	lhu	a3,12(a1)
    2f1a:	8fd5                	or	a5,a5,a3
    2f1c:	25f6                	lhu	a3,14(a1)
    2f1e:	8fd5                	or	a5,a5,a3
    2f20:	8fd9                	or	a5,a5,a4
    2f22:	a11e                	sh	a5,0(a0)
    2f24:	2d5a                	lhu	a4,28(a0)
    2f26:	77fd                	lui	a5,0xfffff
    2f28:	7ff78793          	addi	a5,a5,2047 # fffff7ff <_eusrstack+0xdfff77ff>
    2f2c:	8ff9                	and	a5,a5,a4
    2f2e:	ad5e                	sh	a5,28(a0)
    2f30:	299e                	lhu	a5,16(a1)
    2f32:	a91e                	sh	a5,16(a0)
    2f34:	8082                	ret

00002f36 <SPI_Cmd>:
    2f36:	211e                	lhu	a5,0(a0)
    2f38:	c589                	beqz	a1,2f42 <SPI_Cmd+0xc>
    2f3a:	0407e793          	ori	a5,a5,64
    2f3e:	a11e                	sh	a5,0(a0)
    2f40:	8082                	ret
    2f42:	07c2                	slli	a5,a5,0x10
    2f44:	83c1                	srli	a5,a5,0x10
    2f46:	fbf7f793          	andi	a5,a5,-65
    2f4a:	07c2                	slli	a5,a5,0x10
    2f4c:	83c1                	srli	a5,a5,0x10
    2f4e:	bfc5                	j	2f3e <SPI_Cmd+0x8>

00002f50 <SPI_I2S_SendData>:
    2f50:	a54e                	sh	a1,12(a0)
    2f52:	8082                	ret

00002f54 <SPI_I2S_ReceiveData>:
    2f54:	254a                	lhu	a0,12(a0)
    2f56:	8082                	ret

00002f58 <SPI_I2S_GetFlagStatus>:
    2f58:	250a                	lhu	a0,8(a0)
    2f5a:	8d6d                	and	a0,a0,a1
    2f5c:	00a03533          	snez	a0,a0
    2f60:	8082                	ret

00002f62 <USART_Init>:
    2f62:	acefd2ef          	jal	t0,230 <__riscv_save_0>
    2f66:	2916                	lhu	a3,16(a0)
    2f68:	77f5                	lui	a5,0xffffd
    2f6a:	17fd                	addi	a5,a5,-1
    2f6c:	8ff5                	and	a5,a5,a3
    2f6e:	21f6                	lhu	a3,6(a1)
    2f70:	25da                	lhu	a4,12(a1)
    2f72:	7179                	addi	sp,sp,-48
    2f74:	8fd5                	or	a5,a5,a3
    2f76:	a91e                	sh	a5,16(a0)
    2f78:	2556                	lhu	a3,12(a0)
    2f7a:	77fd                	lui	a5,0xfffff
    2f7c:	9f378793          	addi	a5,a5,-1549 # ffffe9f3 <_eusrstack+0xdfff69f3>
    2f80:	8ff5                	and	a5,a5,a3
    2f82:	21d6                	lhu	a3,4(a1)
    2f84:	842a                	mv	s0,a0
    2f86:	c62e                	sw	a1,12(sp)
    2f88:	8fd5                	or	a5,a5,a3
    2f8a:	2596                	lhu	a3,8(a1)
    2f8c:	8fd5                	or	a5,a5,a3
    2f8e:	25b6                	lhu	a3,10(a1)
    2f90:	8fd5                	or	a5,a5,a3
    2f92:	a55e                	sh	a5,12(a0)
    2f94:	295e                	lhu	a5,20(a0)
    2f96:	07c2                	slli	a5,a5,0x10
    2f98:	83c1                	srli	a5,a5,0x10
    2f9a:	cff7f793          	andi	a5,a5,-769
    2f9e:	8fd9                	or	a5,a5,a4
    2fa0:	a95e                	sh	a5,20(a0)
    2fa2:	0868                	addi	a0,sp,28
    2fa4:	d85ff0ef          	jal	ra,2d28 <RCC_GetClocksFreq>
    2fa8:	400147b7          	lui	a5,0x40014
    2fac:	80078793          	addi	a5,a5,-2048 # 40013800 <_eusrstack+0x2000b800>
    2fb0:	45b2                	lw	a1,12(sp)
    2fb2:	04f41a63          	bne	s0,a5,3006 <USART_Init+0xa4>
    2fb6:	57a2                	lw	a5,40(sp)
    2fb8:	2456                	lhu	a3,12(s0)
    2fba:	4765                	li	a4,25
    2fbc:	02e787b3          	mul	a5,a5,a4
    2fc0:	06c2                	slli	a3,a3,0x10
    2fc2:	86c1                	srai	a3,a3,0x10
    2fc4:	4198                	lw	a4,0(a1)
    2fc6:	0406d263          	bgez	a3,300a <USART_Init+0xa8>
    2fca:	0706                	slli	a4,a4,0x1
    2fcc:	2452                	lhu	a2,12(s0)
    2fce:	0642                	slli	a2,a2,0x10
    2fd0:	02e7d7b3          	divu	a5,a5,a4
    2fd4:	06400713          	li	a4,100
    2fd8:	8641                	srai	a2,a2,0x10
    2fda:	02e7d6b3          	divu	a3,a5,a4
    2fde:	02e7f7b3          	remu	a5,a5,a4
    2fe2:	0692                	slli	a3,a3,0x4
    2fe4:	02065563          	bgez	a2,300e <USART_Init+0xac>
    2fe8:	078e                	slli	a5,a5,0x3
    2fea:	03278793          	addi	a5,a5,50
    2fee:	02e7d7b3          	divu	a5,a5,a4
    2ff2:	0077f713          	andi	a4,a5,7
    2ff6:	00d767b3          	or	a5,a4,a3
    2ffa:	07c2                	slli	a5,a5,0x10
    2ffc:	83c1                	srli	a5,a5,0x10
    2ffe:	a41e                	sh	a5,8(s0)
    3000:	6145                	addi	sp,sp,48
    3002:	a52fd06f          	j	254 <__riscv_restore_0>
    3006:	5792                	lw	a5,36(sp)
    3008:	bf45                	j	2fb8 <USART_Init+0x56>
    300a:	070a                	slli	a4,a4,0x2
    300c:	b7c1                	j	2fcc <USART_Init+0x6a>
    300e:	0792                	slli	a5,a5,0x4
    3010:	03278793          	addi	a5,a5,50
    3014:	02e7d7b3          	divu	a5,a5,a4
    3018:	8bbd                	andi	a5,a5,15
    301a:	8fd5                	or	a5,a5,a3
    301c:	bff9                	j	2ffa <USART_Init+0x98>

0000301e <USART_Cmd>:
    301e:	c591                	beqz	a1,302a <USART_Cmd+0xc>
    3020:	255e                	lhu	a5,12(a0)
    3022:	6709                	lui	a4,0x2
    3024:	8fd9                	or	a5,a5,a4
    3026:	a55e                	sh	a5,12(a0)
    3028:	8082                	ret
    302a:	255a                	lhu	a4,12(a0)
    302c:	77f9                	lui	a5,0xffffe
    302e:	17fd                	addi	a5,a5,-1
    3030:	8ff9                	and	a5,a5,a4
    3032:	bfd5                	j	3026 <USART_Cmd+0x8>

00003034 <USART_ITConfig>:
    3034:	0ff5f713          	andi	a4,a1,255
    3038:	4785                	li	a5,1
    303a:	8315                	srli	a4,a4,0x5
    303c:	00b795b3          	sll	a1,a5,a1
    3040:	00f71963          	bne	a4,a5,3052 <USART_ITConfig+0x1e>
    3044:	00c50793          	addi	a5,a0,12
    3048:	4398                	lw	a4,0(a5)
    304a:	ce01                	beqz	a2,3062 <USART_ITConfig+0x2e>
    304c:	8dd9                	or	a1,a1,a4
    304e:	c38c                	sw	a1,0(a5)
    3050:	8082                	ret
    3052:	4689                	li	a3,2
    3054:	01450793          	addi	a5,a0,20
    3058:	fed718e3          	bne	a4,a3,3048 <USART_ITConfig+0x14>
    305c:	01050793          	addi	a5,a0,16
    3060:	b7e5                	j	3048 <USART_ITConfig+0x14>
    3062:	fff5c593          	not	a1,a1
    3066:	8df9                	and	a1,a1,a4
    3068:	b7dd                	j	304e <USART_ITConfig+0x1a>

0000306a <USART_SendData>:
    306a:	1ff5f593          	andi	a1,a1,511
    306e:	a14e                	sh	a1,4(a0)
    3070:	8082                	ret

00003072 <USART_ReceiveData>:
    3072:	214a                	lhu	a0,4(a0)
    3074:	1ff57513          	andi	a0,a0,511
    3078:	8082                	ret

0000307a <USART_GetFlagStatus>:
    307a:	210a                	lhu	a0,0(a0)
    307c:	8d6d                	and	a0,a0,a1
    307e:	00a03533          	snez	a0,a0
    3082:	8082                	ret

00003084 <USART_GetITStatus>:
    3084:	0ff5f713          	andi	a4,a1,255
    3088:	4685                	li	a3,1
    308a:	8315                	srli	a4,a4,0x5
    308c:	00b697b3          	sll	a5,a3,a1
    3090:	02d71163          	bne	a4,a3,30b2 <USART_GetITStatus+0x2e>
    3094:	255a                	lhu	a4,12(a0)
    3096:	8ff9                	and	a5,a5,a4
    3098:	211a                	lhu	a4,0(a0)
    309a:	4501                	li	a0,0
    309c:	0742                	slli	a4,a4,0x10
    309e:	8341                	srli	a4,a4,0x10
    30a0:	cb81                	beqz	a5,30b0 <USART_GetITStatus+0x2c>
    30a2:	4505                	li	a0,1
    30a4:	81a1                	srli	a1,a1,0x8
    30a6:	00b515b3          	sll	a1,a0,a1
    30aa:	8f6d                	and	a4,a4,a1
    30ac:	00e03533          	snez	a0,a4
    30b0:	8082                	ret
    30b2:	4689                	li	a3,2
    30b4:	00d71463          	bne	a4,a3,30bc <USART_GetITStatus+0x38>
    30b8:	291a                	lhu	a4,16(a0)
    30ba:	bff1                	j	3096 <USART_GetITStatus+0x12>
    30bc:	295a                	lhu	a4,20(a0)
    30be:	bfe1                	j	3096 <USART_GetITStatus+0x12>

000030c0 <USART_ClearITPendingBit>:
    30c0:	81a1                	srli	a1,a1,0x8
    30c2:	4785                	li	a5,1
    30c4:	00b797b3          	sll	a5,a5,a1
    30c8:	fff7c793          	not	a5,a5
    30cc:	07c2                	slli	a5,a5,0x10
    30ce:	83c1                	srli	a5,a5,0x10
    30d0:	a11e                	sh	a5,0(a0)
    30d2:	8082                	ret

000030d4 <Delay_Init>:
    30d4:	8241a783          	lw	a5,-2012(gp) # 200000a4 <SystemCoreClock>
    30d8:	007a1737          	lui	a4,0x7a1
    30dc:	20070713          	addi	a4,a4,512 # 7a1200 <_data_lma+0x7999cc>
    30e0:	02e7d7b3          	divu	a5,a5,a4
    30e4:	0ff7f793          	andi	a5,a5,255
    30e8:	88f18523          	sb	a5,-1910(gp) # 2000010a <p_us>
    30ec:	3e800713          	li	a4,1000
    30f0:	02e787b3          	mul	a5,a5,a4
    30f4:	88f19423          	sh	a5,-1912(gp) # 20000108 <p_ms>
    30f8:	8082                	ret

000030fa <delay_us>:
    30fa:	e000f7b7          	lui	a5,0xe000f
    30fe:	43d8                	lw	a4,4(a5)
    3100:	4681                	li	a3,0
    3102:	9b79                	andi	a4,a4,-2
    3104:	c3d8                	sw	a4,4(a5)
    3106:	88a1c703          	lbu	a4,-1910(gp) # 2000010a <p_us>
    310a:	02a70633          	mul	a2,a4,a0
    310e:	cb90                	sw	a2,16(a5)
    3110:	cbd4                	sw	a3,20(a5)
    3112:	4398                	lw	a4,0(a5)
    3114:	03176713          	ori	a4,a4,49
    3118:	c398                	sw	a4,0(a5)
    311a:	43d8                	lw	a4,4(a5)
    311c:	8b05                	andi	a4,a4,1
    311e:	df75                	beqz	a4,311a <delay_us+0x20>
    3120:	4398                	lw	a4,0(a5)
    3122:	9b79                	andi	a4,a4,-2
    3124:	c398                	sw	a4,0(a5)
    3126:	8082                	ret

00003128 <Delay_Us>:
    3128:	908fd2ef          	jal	t0,230 <__riscv_save_0>
    312c:	fcfff0ef          	jal	ra,30fa <delay_us>
    3130:	924fd06f          	j	254 <__riscv_restore_0>

00003134 <Delay_Ms>:
    3134:	e000f7b7          	lui	a5,0xe000f
    3138:	43d8                	lw	a4,4(a5)
    313a:	4681                	li	a3,0
    313c:	9b79                	andi	a4,a4,-2
    313e:	c3d8                	sw	a4,4(a5)
    3140:	8881d703          	lhu	a4,-1912(gp) # 20000108 <p_ms>
    3144:	02a70633          	mul	a2,a4,a0
    3148:	cb90                	sw	a2,16(a5)
    314a:	cbd4                	sw	a3,20(a5)
    314c:	4398                	lw	a4,0(a5)
    314e:	03176713          	ori	a4,a4,49
    3152:	c398                	sw	a4,0(a5)
    3154:	43d8                	lw	a4,4(a5)
    3156:	8b05                	andi	a4,a4,1
    3158:	df75                	beqz	a4,3154 <Delay_Ms+0x20>
    315a:	4398                	lw	a4,0(a5)
    315c:	9b79                	andi	a4,a4,-2
    315e:	c398                	sw	a4,0(a5)
    3160:	8082                	ret

00003162 <delay_ms>:
    3162:	8cefd2ef          	jal	t0,230 <__riscv_save_0>
    3166:	fcfff0ef          	jal	ra,3134 <Delay_Ms>
    316a:	8eafd06f          	j	254 <__riscv_restore_0>

0000316e <__muldf3>:
    316e:	7139                	addi	sp,sp,-64
    3170:	d84a                	sw	s2,48(sp)
    3172:	0145d913          	srli	s2,a1,0x14
    3176:	d64e                	sw	s3,44(sp)
    3178:	d452                	sw	s4,40(sp)
    317a:	d256                	sw	s5,36(sp)
    317c:	00c59993          	slli	s3,a1,0xc
    3180:	de06                	sw	ra,60(sp)
    3182:	dc22                	sw	s0,56(sp)
    3184:	da26                	sw	s1,52(sp)
    3186:	d05a                	sw	s6,32(sp)
    3188:	ce5e                	sw	s7,28(sp)
    318a:	7ff97913          	andi	s2,s2,2047
    318e:	8a2a                	mv	s4,a0
    3190:	00c9d993          	srli	s3,s3,0xc
    3194:	01f5da93          	srli	s5,a1,0x1f
    3198:	0e090d63          	beqz	s2,3292 <__muldf3+0x124>
    319c:	7ff00793          	li	a5,2047
    31a0:	18f90663          	beq	s2,a5,332c <__muldf3+0x1be>
    31a4:	01d55413          	srli	s0,a0,0x1d
    31a8:	098e                	slli	s3,s3,0x3
    31aa:	013469b3          	or	s3,s0,s3
    31ae:	00800437          	lui	s0,0x800
    31b2:	0089e433          	or	s0,s3,s0
    31b6:	00351493          	slli	s1,a0,0x3
    31ba:	c0190913          	addi	s2,s2,-1023
    31be:	4981                	li	s3,0
    31c0:	4b81                	li	s7,0
    31c2:	0146d713          	srli	a4,a3,0x14
    31c6:	00c69a13          	slli	s4,a3,0xc
    31ca:	7ff77713          	andi	a4,a4,2047
    31ce:	85b2                	mv	a1,a2
    31d0:	00ca5a13          	srli	s4,s4,0xc
    31d4:	01f6db13          	srli	s6,a3,0x1f
    31d8:	10070b63          	beqz	a4,32ee <__muldf3+0x180>
    31dc:	7ff00793          	li	a5,2047
    31e0:	04f70363          	beq	a4,a5,3226 <__muldf3+0xb8>
    31e4:	01d65793          	srli	a5,a2,0x1d
    31e8:	0a0e                	slli	s4,s4,0x3
    31ea:	0147ea33          	or	s4,a5,s4
    31ee:	c0170713          	addi	a4,a4,-1023
    31f2:	008007b7          	lui	a5,0x800
    31f6:	00fa67b3          	or	a5,s4,a5
    31fa:	00361593          	slli	a1,a2,0x3
    31fe:	993a                	add	s2,s2,a4
    3200:	4881                	li	a7,0
    3202:	016ac733          	xor	a4,s5,s6
    3206:	46bd                	li	a3,15
    3208:	853a                	mv	a0,a4
    320a:	00190813          	addi	a6,s2,1
    320e:	1736e863          	bltu	a3,s3,337e <__muldf3+0x210>
    3212:	00004617          	auipc	a2,0x4
    3216:	40660613          	addi	a2,a2,1030 # 7618 <ascii_3216+0x1824>
    321a:	098a                	slli	s3,s3,0x2
    321c:	99b2                	add	s3,s3,a2
    321e:	0009a683          	lw	a3,0(s3)
    3222:	96b2                	add	a3,a3,a2
    3224:	8682                	jr	a3
    3226:	00ca67b3          	or	a5,s4,a2
    322a:	7ff90913          	addi	s2,s2,2047
    322e:	12079963          	bnez	a5,3360 <__muldf3+0x1f2>
    3232:	0029e993          	ori	s3,s3,2
    3236:	4581                	li	a1,0
    3238:	4889                	li	a7,2
    323a:	b7e1                	j	3202 <__muldf3+0x94>
    323c:	4701                	li	a4,0
    323e:	7ff00793          	li	a5,2047
    3242:	00080437          	lui	s0,0x80
    3246:	4481                	li	s1,0
    3248:	0432                	slli	s0,s0,0xc
    324a:	07d2                	slli	a5,a5,0x14
    324c:	8031                	srli	s0,s0,0xc
    324e:	077e                	slli	a4,a4,0x1f
    3250:	8c5d                	or	s0,s0,a5
    3252:	8c59                	or	s0,s0,a4
    3254:	85a2                	mv	a1,s0
    3256:	50f2                	lw	ra,60(sp)
    3258:	5462                	lw	s0,56(sp)
    325a:	8526                	mv	a0,s1
    325c:	5942                	lw	s2,48(sp)
    325e:	54d2                	lw	s1,52(sp)
    3260:	59b2                	lw	s3,44(sp)
    3262:	5a22                	lw	s4,40(sp)
    3264:	5a92                	lw	s5,36(sp)
    3266:	5b02                	lw	s6,32(sp)
    3268:	4bf2                	lw	s7,28(sp)
    326a:	6121                	addi	sp,sp,64
    326c:	8082                	ret
    326e:	855a                	mv	a0,s6
    3270:	843e                	mv	s0,a5
    3272:	84ae                	mv	s1,a1
    3274:	8bc6                	mv	s7,a7
    3276:	4789                	li	a5,2
    3278:	0efb8d63          	beq	s7,a5,3372 <__muldf3+0x204>
    327c:	478d                	li	a5,3
    327e:	fafb8fe3          	beq	s7,a5,323c <__muldf3+0xce>
    3282:	4785                	li	a5,1
    3284:	872a                	mv	a4,a0
    3286:	38fb9e63          	bne	s7,a5,3622 <__muldf3+0x4b4>
    328a:	4781                	li	a5,0
    328c:	4401                	li	s0,0
    328e:	4481                	li	s1,0
    3290:	bf65                	j	3248 <__muldf3+0xda>
    3292:	00a9e433          	or	s0,s3,a0
    3296:	c061                	beqz	s0,3356 <__muldf3+0x1e8>
    3298:	c636                	sw	a3,12(sp)
    329a:	c432                	sw	a2,8(sp)
    329c:	2a098c63          	beqz	s3,3554 <__muldf3+0x3e6>
    32a0:	854e                	mv	a0,s3
    32a2:	08c010ef          	jal	ra,432e <__clzsi2>
    32a6:	4622                	lw	a2,8(sp)
    32a8:	46b2                	lw	a3,12(sp)
    32aa:	87aa                	mv	a5,a0
    32ac:	ff550713          	addi	a4,a0,-11
    32b0:	4475                	li	s0,29
    32b2:	ff878493          	addi	s1,a5,-8 # 7ffff8 <_data_lma+0x7f87c4>
    32b6:	8c19                	sub	s0,s0,a4
    32b8:	009999b3          	sll	s3,s3,s1
    32bc:	008a5433          	srl	s0,s4,s0
    32c0:	01346433          	or	s0,s0,s3
    32c4:	009a14b3          	sll	s1,s4,s1
    32c8:	0146d713          	srli	a4,a3,0x14
    32cc:	c0d00913          	li	s2,-1011
    32d0:	00c69a13          	slli	s4,a3,0xc
    32d4:	7ff77713          	andi	a4,a4,2047
    32d8:	40f90933          	sub	s2,s2,a5
    32dc:	4981                	li	s3,0
    32de:	4b81                	li	s7,0
    32e0:	85b2                	mv	a1,a2
    32e2:	00ca5a13          	srli	s4,s4,0xc
    32e6:	01f6db13          	srli	s6,a3,0x1f
    32ea:	ee0719e3          	bnez	a4,31dc <__muldf3+0x6e>
    32ee:	00ca67b3          	or	a5,s4,a2
    32f2:	c7b1                	beqz	a5,333e <__muldf3+0x1d0>
    32f4:	220a0f63          	beqz	s4,3532 <__muldf3+0x3c4>
    32f8:	8552                	mv	a0,s4
    32fa:	c432                	sw	a2,8(sp)
    32fc:	032010ef          	jal	ra,432e <__clzsi2>
    3300:	4622                	lw	a2,8(sp)
    3302:	872a                	mv	a4,a0
    3304:	ff550693          	addi	a3,a0,-11
    3308:	47f5                	li	a5,29
    330a:	ff870593          	addi	a1,a4,-8
    330e:	8f95                	sub	a5,a5,a3
    3310:	00ba1a33          	sll	s4,s4,a1
    3314:	00f657b3          	srl	a5,a2,a5
    3318:	0147e7b3          	or	a5,a5,s4
    331c:	00b615b3          	sll	a1,a2,a1
    3320:	40e90933          	sub	s2,s2,a4
    3324:	c0d90913          	addi	s2,s2,-1011
    3328:	4881                	li	a7,0
    332a:	bde1                	j	3202 <__muldf3+0x94>
    332c:	00a9e433          	or	s0,s3,a0
    3330:	ec01                	bnez	s0,3348 <__muldf3+0x1da>
    3332:	49a1                	li	s3,8
    3334:	4481                	li	s1,0
    3336:	7ff00913          	li	s2,2047
    333a:	4b89                	li	s7,2
    333c:	b559                	j	31c2 <__muldf3+0x54>
    333e:	0019e993          	ori	s3,s3,1
    3342:	4581                	li	a1,0
    3344:	4885                	li	a7,1
    3346:	bd75                	j	3202 <__muldf3+0x94>
    3348:	844e                	mv	s0,s3
    334a:	84aa                	mv	s1,a0
    334c:	49b1                	li	s3,12
    334e:	7ff00913          	li	s2,2047
    3352:	4b8d                	li	s7,3
    3354:	b5bd                	j	31c2 <__muldf3+0x54>
    3356:	4991                	li	s3,4
    3358:	4481                	li	s1,0
    335a:	4901                	li	s2,0
    335c:	4b85                	li	s7,1
    335e:	b595                	j	31c2 <__muldf3+0x54>
    3360:	0039e993          	ori	s3,s3,3
    3364:	87d2                	mv	a5,s4
    3366:	488d                	li	a7,3
    3368:	bd69                	j	3202 <__muldf3+0x94>
    336a:	4789                	li	a5,2
    336c:	8556                	mv	a0,s5
    336e:	f0fb97e3          	bne	s7,a5,327c <__muldf3+0x10e>
    3372:	872a                	mv	a4,a0
    3374:	7ff00793          	li	a5,2047
    3378:	4401                	li	s0,0
    337a:	4481                	li	s1,0
    337c:	b5f1                	j	3248 <__muldf3+0xda>
    337e:	6ec1                	lui	t4,0x10
    3380:	fffe8613          	addi	a2,t4,-1 # ffff <_data_lma+0x87cb>
    3384:	0104d693          	srli	a3,s1,0x10
    3388:	0105de13          	srli	t3,a1,0x10
    338c:	8cf1                	and	s1,s1,a2
    338e:	8df1                	and	a1,a1,a2
    3390:	02958633          	mul	a2,a1,s1
    3394:	02b68333          	mul	t1,a3,a1
    3398:	01065893          	srli	a7,a2,0x10
    339c:	029e0533          	mul	a0,t3,s1
    33a0:	951a                	add	a0,a0,t1
    33a2:	98aa                	add	a7,a7,a0
    33a4:	03c682b3          	mul	t0,a3,t3
    33a8:	0068f363          	bgeu	a7,t1,33ae <__muldf3+0x240>
    33ac:	92f6                	add	t0,t0,t4
    33ae:	6fc1                	lui	t6,0x10
    33b0:	ffff8313          	addi	t1,t6,-1 # ffff <_data_lma+0x87cb>
    33b4:	0067f533          	and	a0,a5,t1
    33b8:	0107d393          	srli	t2,a5,0x10
    33bc:	0068f7b3          	and	a5,a7,t1
    33c0:	07c2                	slli	a5,a5,0x10
    33c2:	00667333          	and	t1,a2,t1
    33c6:	933e                	add	t1,t1,a5
    33c8:	02950633          	mul	a2,a0,s1
    33cc:	0108d893          	srli	a7,a7,0x10
    33d0:	02a687b3          	mul	a5,a3,a0
    33d4:	01065f13          	srli	t5,a2,0x10
    33d8:	029384b3          	mul	s1,t2,s1
    33dc:	94be                	add	s1,s1,a5
    33de:	94fa                	add	s1,s1,t5
    33e0:	02768eb3          	mul	t4,a3,t2
    33e4:	00f4f363          	bgeu	s1,a5,33ea <__muldf3+0x27c>
    33e8:	9efe                	add	t4,t4,t6
    33ea:	6a41                	lui	s4,0x10
    33ec:	fffa0793          	addi	a5,s4,-1 # ffff <_data_lma+0x87cb>
    33f0:	01045f93          	srli	t6,s0,0x10
    33f4:	00f476b3          	and	a3,s0,a5
    33f8:	00f4f9b3          	and	s3,s1,a5
    33fc:	8e7d                	and	a2,a2,a5
    33fe:	80c1                	srli	s1,s1,0x10
    3400:	02d58433          	mul	s0,a1,a3
    3404:	09c2                	slli	s3,s3,0x10
    3406:	01d48f33          	add	t5,s1,t4
    340a:	99b2                	add	s3,s3,a2
    340c:	98ce                	add	a7,a7,s3
    340e:	02de07b3          	mul	a5,t3,a3
    3412:	01045e93          	srli	t4,s0,0x10
    3416:	02bf85b3          	mul	a1,t6,a1
    341a:	97ae                	add	a5,a5,a1
    341c:	9ebe                	add	t4,t4,a5
    341e:	03fe0e33          	mul	t3,t3,t6
    3422:	00bef363          	bgeu	t4,a1,3428 <__muldf3+0x2ba>
    3426:	9e52                	add	t3,t3,s4
    3428:	67c1                	lui	a5,0x10
    342a:	fff78593          	addi	a1,a5,-1 # ffff <_data_lma+0x87cb>
    342e:	00bef633          	and	a2,t4,a1
    3432:	8c6d                	and	s0,s0,a1
    3434:	0642                	slli	a2,a2,0x10
    3436:	9622                	add	a2,a2,s0
    3438:	010ede93          	srli	t4,t4,0x10
    343c:	02d505b3          	mul	a1,a0,a3
    3440:	9e76                	add	t3,t3,t4
    3442:	02af8533          	mul	a0,t6,a0
    3446:	0105d413          	srli	s0,a1,0x10
    344a:	02d386b3          	mul	a3,t2,a3
    344e:	96aa                	add	a3,a3,a0
    3450:	96a2                	add	a3,a3,s0
    3452:	03f38fb3          	mul	t6,t2,t6
    3456:	00a6f363          	bgeu	a3,a0,345c <__muldf3+0x2ee>
    345a:	9fbe                	add	t6,t6,a5
    345c:	6541                	lui	a0,0x10
    345e:	157d                	addi	a0,a0,-1
    3460:	00a6f7b3          	and	a5,a3,a0
    3464:	07c2                	slli	a5,a5,0x10
    3466:	8d6d                	and	a0,a0,a1
    3468:	97aa                	add	a5,a5,a0
    346a:	005885b3          	add	a1,a7,t0
    346e:	0135b9b3          	sltu	s3,a1,s3
    3472:	97fa                	add	a5,a5,t5
    3474:	95b2                	add	a1,a1,a2
    3476:	01378433          	add	s0,a5,s3
    347a:	00c5b633          	sltu	a2,a1,a2
    347e:	01c40eb3          	add	t4,s0,t3
    3482:	00ce8533          	add	a0,t4,a2
    3486:	01343433          	sltu	s0,s0,s3
    348a:	01e7b7b3          	sltu	a5,a5,t5
    348e:	8fc1                	or	a5,a5,s0
    3490:	01cebe33          	sltu	t3,t4,t3
    3494:	0106d413          	srli	s0,a3,0x10
    3498:	00c53633          	sltu	a2,a0,a2
    349c:	943e                	add	s0,s0,a5
    349e:	00ce6633          	or	a2,t3,a2
    34a2:	00959493          	slli	s1,a1,0x9
    34a6:	9432                	add	s0,s0,a2
    34a8:	947e                	add	s0,s0,t6
    34aa:	0064e4b3          	or	s1,s1,t1
    34ae:	0426                	slli	s0,s0,0x9
    34b0:	01755693          	srli	a3,a0,0x17
    34b4:	009034b3          	snez	s1,s1
    34b8:	81dd                	srli	a1,a1,0x17
    34ba:	00951793          	slli	a5,a0,0x9
    34be:	8ccd                	or	s1,s1,a1
    34c0:	8c55                	or	s0,s0,a3
    34c2:	8cdd                	or	s1,s1,a5
    34c4:	00741793          	slli	a5,s0,0x7
    34c8:	0007db63          	bgez	a5,34de <__muldf3+0x370>
    34cc:	0014d793          	srli	a5,s1,0x1
    34d0:	8885                	andi	s1,s1,1
    34d2:	01f41693          	slli	a3,s0,0x1f
    34d6:	8cdd                	or	s1,s1,a5
    34d8:	8cd5                	or	s1,s1,a3
    34da:	8005                	srli	s0,s0,0x1
    34dc:	8942                	mv	s2,a6
    34de:	3ff90793          	addi	a5,s2,1023
    34e2:	08f05963          	blez	a5,3574 <__muldf3+0x406>
    34e6:	0074f693          	andi	a3,s1,7
    34ea:	ce81                	beqz	a3,3502 <__muldf3+0x394>
    34ec:	00f4f693          	andi	a3,s1,15
    34f0:	4611                	li	a2,4
    34f2:	00c68863          	beq	a3,a2,3502 <__muldf3+0x394>
    34f6:	00448693          	addi	a3,s1,4
    34fa:	0096b4b3          	sltu	s1,a3,s1
    34fe:	9426                	add	s0,s0,s1
    3500:	84b6                	mv	s1,a3
    3502:	00741693          	slli	a3,s0,0x7
    3506:	0006d863          	bgez	a3,3516 <__muldf3+0x3a8>
    350a:	ff0007b7          	lui	a5,0xff000
    350e:	17fd                	addi	a5,a5,-1
    3510:	8c7d                	and	s0,s0,a5
    3512:	40090793          	addi	a5,s2,1024
    3516:	7fe00693          	li	a3,2046
    351a:	0ef6cf63          	blt	a3,a5,3618 <__muldf3+0x4aa>
    351e:	0034d693          	srli	a3,s1,0x3
    3522:	01d41493          	slli	s1,s0,0x1d
    3526:	0426                	slli	s0,s0,0x9
    3528:	8cd5                	or	s1,s1,a3
    352a:	8031                	srli	s0,s0,0xc
    352c:	7ff7f793          	andi	a5,a5,2047
    3530:	bb21                	j	3248 <__muldf3+0xda>
    3532:	8532                	mv	a0,a2
    3534:	c432                	sw	a2,8(sp)
    3536:	5f9000ef          	jal	ra,432e <__clzsi2>
    353a:	01550693          	addi	a3,a0,21 # 10015 <_data_lma+0x87e1>
    353e:	47f1                	li	a5,28
    3540:	02050713          	addi	a4,a0,32
    3544:	4622                	lw	a2,8(sp)
    3546:	dcd7d1e3          	bge	a5,a3,3308 <__muldf3+0x19a>
    354a:	1561                	addi	a0,a0,-8
    354c:	00a617b3          	sll	a5,a2,a0
    3550:	4581                	li	a1,0
    3552:	b3f9                	j	3320 <__muldf3+0x1b2>
    3554:	5db000ef          	jal	ra,432e <__clzsi2>
    3558:	01550713          	addi	a4,a0,21
    355c:	45f1                	li	a1,28
    355e:	02050793          	addi	a5,a0,32
    3562:	4622                	lw	a2,8(sp)
    3564:	46b2                	lw	a3,12(sp)
    3566:	d4e5d5e3          	bge	a1,a4,32b0 <__muldf3+0x142>
    356a:	1561                	addi	a0,a0,-8
    356c:	00aa1433          	sll	s0,s4,a0
    3570:	4481                	li	s1,0
    3572:	bb99                	j	32c8 <__muldf3+0x15a>
    3574:	4685                	li	a3,1
    3576:	8e9d                	sub	a3,a3,a5
    3578:	e7b1                	bnez	a5,35c4 <__muldf3+0x456>
    357a:	41e90913          	addi	s2,s2,1054
    357e:	012497b3          	sll	a5,s1,s2
    3582:	00d4d4b3          	srl	s1,s1,a3
    3586:	01241933          	sll	s2,s0,s2
    358a:	00f037b3          	snez	a5,a5
    358e:	009964b3          	or	s1,s2,s1
    3592:	8cdd                	or	s1,s1,a5
    3594:	0074f793          	andi	a5,s1,7
    3598:	00d456b3          	srl	a3,s0,a3
    359c:	cf81                	beqz	a5,35b4 <__muldf3+0x446>
    359e:	00f4f793          	andi	a5,s1,15
    35a2:	4611                	li	a2,4
    35a4:	00c78863          	beq	a5,a2,35b4 <__muldf3+0x446>
    35a8:	00448793          	addi	a5,s1,4
    35ac:	0097b4b3          	sltu	s1,a5,s1
    35b0:	96a6                	add	a3,a3,s1
    35b2:	84be                	mv	s1,a5
    35b4:	00869793          	slli	a5,a3,0x8
    35b8:	0407d863          	bgez	a5,3608 <__muldf3+0x49a>
    35bc:	4785                	li	a5,1
    35be:	4401                	li	s0,0
    35c0:	4481                	li	s1,0
    35c2:	b159                	j	3248 <__muldf3+0xda>
    35c4:	03800613          	li	a2,56
    35c8:	ccd641e3          	blt	a2,a3,328a <__muldf3+0x11c>
    35cc:	467d                	li	a2,31
    35ce:	fad656e3          	bge	a2,a3,357a <__muldf3+0x40c>
    35d2:	5605                	li	a2,-31
    35d4:	40f607b3          	sub	a5,a2,a5
    35d8:	02000593          	li	a1,32
    35dc:	00f45633          	srl	a2,s0,a5
    35e0:	00b68763          	beq	a3,a1,35ee <__muldf3+0x480>
    35e4:	43e90913          	addi	s2,s2,1086
    35e8:	012417b3          	sll	a5,s0,s2
    35ec:	8cdd                	or	s1,s1,a5
    35ee:	009034b3          	snez	s1,s1
    35f2:	8cd1                	or	s1,s1,a2
    35f4:	0074f693          	andi	a3,s1,7
    35f8:	4401                	li	s0,0
    35fa:	ca99                	beqz	a3,3610 <__muldf3+0x4a2>
    35fc:	00f4f793          	andi	a5,s1,15
    3600:	4611                	li	a2,4
    3602:	4681                	li	a3,0
    3604:	fac792e3          	bne	a5,a2,35a8 <__muldf3+0x43a>
    3608:	00969413          	slli	s0,a3,0x9
    360c:	8031                	srli	s0,s0,0xc
    360e:	06f6                	slli	a3,a3,0x1d
    3610:	808d                	srli	s1,s1,0x3
    3612:	8cd5                	or	s1,s1,a3
    3614:	4781                	li	a5,0
    3616:	b90d                	j	3248 <__muldf3+0xda>
    3618:	7ff00793          	li	a5,2047
    361c:	4401                	li	s0,0
    361e:	4481                	li	s1,0
    3620:	b125                	j	3248 <__muldf3+0xda>
    3622:	8942                	mv	s2,a6
    3624:	bd6d                	j	34de <__muldf3+0x370>

00003626 <__subdf3>:
    3626:	00100737          	lui	a4,0x100
    362a:	177d                	addi	a4,a4,-1
    362c:	1101                	addi	sp,sp,-32
    362e:	00b77333          	and	t1,a4,a1
    3632:	0146d893          	srli	a7,a3,0x14
    3636:	8f75                	and	a4,a4,a3
    3638:	01d65e93          	srli	t4,a2,0x1d
    363c:	cc22                	sw	s0,24(sp)
    363e:	ca26                	sw	s1,20(sp)
    3640:	030e                	slli	t1,t1,0x3
    3642:	0145d493          	srli	s1,a1,0x14
    3646:	01d55793          	srli	a5,a0,0x1d
    364a:	070e                	slli	a4,a4,0x3
    364c:	ce06                	sw	ra,28(sp)
    364e:	c84a                	sw	s2,16(sp)
    3650:	c64e                	sw	s3,12(sp)
    3652:	7ff8f893          	andi	a7,a7,2047
    3656:	7ff00e13          	li	t3,2047
    365a:	00eee733          	or	a4,t4,a4
    365e:	7ff4f493          	andi	s1,s1,2047
    3662:	01f5d413          	srli	s0,a1,0x1f
    3666:	0067e333          	or	t1,a5,t1
    366a:	00351f13          	slli	t5,a0,0x3
    366e:	82fd                	srli	a3,a3,0x1f
    3670:	00361e93          	slli	t4,a2,0x3
    3674:	19c88063          	beq	a7,t3,37f4 <__subdf3+0x1ce>
    3678:	0016c693          	xori	a3,a3,1
    367c:	411485b3          	sub	a1,s1,a7
    3680:	12d40563          	beq	s0,a3,37aa <__subdf3+0x184>
    3684:	18b05163          	blez	a1,3806 <__subdf3+0x1e0>
    3688:	1a088b63          	beqz	a7,383e <__subdf3+0x218>
    368c:	008007b7          	lui	a5,0x800
    3690:	8f5d                	or	a4,a4,a5
    3692:	59c48163          	beq	s1,t3,3c14 <__subdf3+0x5ee>
    3696:	03800793          	li	a5,56
    369a:	34b7c463          	blt	a5,a1,39e2 <__subdf3+0x3bc>
    369e:	47fd                	li	a5,31
    36a0:	48b7c563          	blt	a5,a1,3b2a <__subdf3+0x504>
    36a4:	02000793          	li	a5,32
    36a8:	8f8d                	sub	a5,a5,a1
    36aa:	00bed9b3          	srl	s3,t4,a1
    36ae:	00f71833          	sll	a6,a4,a5
    36b2:	00fe9eb3          	sll	t4,t4,a5
    36b6:	01386833          	or	a6,a6,s3
    36ba:	00b75733          	srl	a4,a4,a1
    36be:	01d039b3          	snez	s3,t4
    36c2:	01386833          	or	a6,a6,s3
    36c6:	40e30333          	sub	t1,t1,a4
    36ca:	410f09b3          	sub	s3,t5,a6
    36ce:	013f37b3          	sltu	a5,t5,s3
    36d2:	40f30633          	sub	a2,t1,a5
    36d6:	00861793          	slli	a5,a2,0x8
    36da:	2407d363          	bgez	a5,3920 <__subdf3+0x2fa>
    36de:	00800937          	lui	s2,0x800
    36e2:	197d                	addi	s2,s2,-1
    36e4:	01267933          	and	s2,a2,s2
    36e8:	2c090f63          	beqz	s2,39c6 <__subdf3+0x3a0>
    36ec:	854a                	mv	a0,s2
    36ee:	441000ef          	jal	ra,432e <__clzsi2>
    36f2:	ff850713          	addi	a4,a0,-8
    36f6:	02000793          	li	a5,32
    36fa:	8f99                	sub	a5,a5,a4
    36fc:	00f9d7b3          	srl	a5,s3,a5
    3700:	00e91633          	sll	a2,s2,a4
    3704:	8fd1                	or	a5,a5,a2
    3706:	00e999b3          	sll	s3,s3,a4
    370a:	2a974463          	blt	a4,s1,39b2 <__subdf3+0x38c>
    370e:	8f05                	sub	a4,a4,s1
    3710:	00170613          	addi	a2,a4,1 # 100001 <_data_lma+0xf87cd>
    3714:	46fd                	li	a3,31
    3716:	3ac6c563          	blt	a3,a2,3ac0 <__subdf3+0x49a>
    371a:	02000713          	li	a4,32
    371e:	8f11                	sub	a4,a4,a2
    3720:	00c9d6b3          	srl	a3,s3,a2
    3724:	00e99833          	sll	a6,s3,a4
    3728:	00e79733          	sll	a4,a5,a4
    372c:	8f55                	or	a4,a4,a3
    372e:	01003833          	snez	a6,a6
    3732:	010769b3          	or	s3,a4,a6
    3736:	00c7d633          	srl	a2,a5,a2
    373a:	4481                	li	s1,0
    373c:	0079f793          	andi	a5,s3,7
    3740:	cf81                	beqz	a5,3758 <__subdf3+0x132>
    3742:	00f9f693          	andi	a3,s3,15
    3746:	4791                	li	a5,4
    3748:	00f68863          	beq	a3,a5,3758 <__subdf3+0x132>
    374c:	00498693          	addi	a3,s3,4
    3750:	0136b833          	sltu	a6,a3,s3
    3754:	9642                	add	a2,a2,a6
    3756:	89b6                	mv	s3,a3
    3758:	00861793          	slli	a5,a2,0x8
    375c:	1c07d663          	bgez	a5,3928 <__subdf3+0x302>
    3760:	00148713          	addi	a4,s1,1
    3764:	7ff00793          	li	a5,2047
    3768:	8805                	andi	s0,s0,1
    376a:	20f70663          	beq	a4,a5,3976 <__subdf3+0x350>
    376e:	ff8007b7          	lui	a5,0xff800
    3772:	17fd                	addi	a5,a5,-1
    3774:	8ff1                	and	a5,a5,a2
    3776:	01d79813          	slli	a6,a5,0x1d
    377a:	0039d993          	srli	s3,s3,0x3
    377e:	07a6                	slli	a5,a5,0x9
    3780:	01386833          	or	a6,a6,s3
    3784:	83b1                	srli	a5,a5,0xc
    3786:	7ff77713          	andi	a4,a4,2047
    378a:	00c79693          	slli	a3,a5,0xc
    378e:	0752                	slli	a4,a4,0x14
    3790:	82b1                	srli	a3,a3,0xc
    3792:	047e                	slli	s0,s0,0x1f
    3794:	8ed9                	or	a3,a3,a4
    3796:	8ec1                	or	a3,a3,s0
    3798:	40f2                	lw	ra,28(sp)
    379a:	4462                	lw	s0,24(sp)
    379c:	44d2                	lw	s1,20(sp)
    379e:	4942                	lw	s2,16(sp)
    37a0:	49b2                	lw	s3,12(sp)
    37a2:	8542                	mv	a0,a6
    37a4:	85b6                	mv	a1,a3
    37a6:	6105                	addi	sp,sp,32
    37a8:	8082                	ret
    37aa:	0ab05663          	blez	a1,3856 <__subdf3+0x230>
    37ae:	12088a63          	beqz	a7,38e2 <__subdf3+0x2bc>
    37b2:	008007b7          	lui	a5,0x800
    37b6:	8f5d                	or	a4,a4,a5
    37b8:	2dc48763          	beq	s1,t3,3a86 <__subdf3+0x460>
    37bc:	03800793          	li	a5,56
    37c0:	18b7c763          	blt	a5,a1,394e <__subdf3+0x328>
    37c4:	47fd                	li	a5,31
    37c6:	3cb7d263          	bge	a5,a1,3b8a <__subdf3+0x564>
    37ca:	fe058813          	addi	a6,a1,-32 # 40020fe0 <_eusrstack+0x20018fe0>
    37ce:	02000793          	li	a5,32
    37d2:	010759b3          	srl	s3,a4,a6
    37d6:	00f58a63          	beq	a1,a5,37ea <__subdf3+0x1c4>
    37da:	04000793          	li	a5,64
    37de:	40b785b3          	sub	a1,a5,a1
    37e2:	00b71733          	sll	a4,a4,a1
    37e6:	00eeeeb3          	or	t4,t4,a4
    37ea:	01d03833          	snez	a6,t4
    37ee:	01386833          	or	a6,a6,s3
    37f2:	a295                	j	3956 <__subdf3+0x330>
    37f4:	01d767b3          	or	a5,a4,t4
    37f8:	80148593          	addi	a1,s1,-2047
    37fc:	e399                	bnez	a5,3802 <__subdf3+0x1dc>
    37fe:	0016c693          	xori	a3,a3,1
    3802:	04d40a63          	beq	s0,a3,3856 <__subdf3+0x230>
    3806:	e1d1                	bnez	a1,388a <__subdf3+0x264>
    3808:	00148793          	addi	a5,s1,1
    380c:	7fe7f793          	andi	a5,a5,2046
    3810:	1e079963          	bnez	a5,3a02 <__subdf3+0x3dc>
    3814:	01e367b3          	or	a5,t1,t5
    3818:	01d76833          	or	a6,a4,t4
    381c:	16049263          	bnez	s1,3980 <__subdf3+0x35a>
    3820:	3c078263          	beqz	a5,3be4 <__subdf3+0x5be>
    3824:	42081663          	bnez	a6,3c50 <__subdf3+0x62a>
    3828:	00351813          	slli	a6,a0,0x3
    382c:	01d31693          	slli	a3,t1,0x1d
    3830:	00385813          	srli	a6,a6,0x3
    3834:	0106e833          	or	a6,a3,a6
    3838:	00335793          	srli	a5,t1,0x3
    383c:	a219                	j	3942 <__subdf3+0x31c>
    383e:	01d767b3          	or	a5,a4,t4
    3842:	1a078563          	beqz	a5,39ec <__subdf3+0x3c6>
    3846:	fff58793          	addi	a5,a1,-1
    384a:	3a078b63          	beqz	a5,3c00 <__subdf3+0x5da>
    384e:	23c58c63          	beq	a1,t3,3a86 <__subdf3+0x460>
    3852:	85be                	mv	a1,a5
    3854:	b589                	j	3696 <__subdf3+0x70>
    3856:	1c059963          	bnez	a1,3a28 <__subdf3+0x402>
    385a:	00148693          	addi	a3,s1,1
    385e:	7fe6f793          	andi	a5,a3,2046
    3862:	efc1                	bnez	a5,38fa <__subdf3+0x2d4>
    3864:	01e367b3          	or	a5,t1,t5
    3868:	36049063          	bnez	s1,3bc8 <__subdf3+0x5a2>
    386c:	44078d63          	beqz	a5,3cc6 <__subdf3+0x6a0>
    3870:	01d767b3          	or	a5,a4,t4
    3874:	46079463          	bnez	a5,3cdc <__subdf3+0x6b6>
    3878:	050e                	slli	a0,a0,0x3
    387a:	01d31813          	slli	a6,t1,0x1d
    387e:	810d                	srli	a0,a0,0x3
    3880:	00a86833          	or	a6,a6,a0
    3884:	00335793          	srli	a5,t1,0x3
    3888:	a86d                	j	3942 <__subdf3+0x31c>
    388a:	409885b3          	sub	a1,a7,s1
    388e:	20049763          	bnez	s1,3a9c <__subdf3+0x476>
    3892:	01e367b3          	or	a5,t1,t5
    3896:	30078d63          	beqz	a5,3bb0 <__subdf3+0x58a>
    389a:	fff58793          	addi	a5,a1,-1
    389e:	40078963          	beqz	a5,3cb0 <__subdf3+0x68a>
    38a2:	7ff00513          	li	a0,2047
    38a6:	20a58363          	beq	a1,a0,3aac <__subdf3+0x486>
    38aa:	85be                	mv	a1,a5
    38ac:	03800793          	li	a5,56
    38b0:	2ab7c263          	blt	a5,a1,3b54 <__subdf3+0x52e>
    38b4:	47fd                	li	a5,31
    38b6:	3cb7c863          	blt	a5,a1,3c86 <__subdf3+0x660>
    38ba:	02000793          	li	a5,32
    38be:	8f8d                	sub	a5,a5,a1
    38c0:	00f31833          	sll	a6,t1,a5
    38c4:	00bf5633          	srl	a2,t5,a1
    38c8:	00ff17b3          	sll	a5,t5,a5
    38cc:	00c86833          	or	a6,a6,a2
    38d0:	00f039b3          	snez	s3,a5
    38d4:	00b35333          	srl	t1,t1,a1
    38d8:	01386833          	or	a6,a6,s3
    38dc:	40670733          	sub	a4,a4,t1
    38e0:	acb5                	j	3b5c <__subdf3+0x536>
    38e2:	01d767b3          	or	a5,a4,t4
    38e6:	10078363          	beqz	a5,39ec <__subdf3+0x3c6>
    38ea:	fff58793          	addi	a5,a1,-1
    38ee:	1e078f63          	beqz	a5,3aec <__subdf3+0x4c6>
    38f2:	2fc58063          	beq	a1,t3,3bd2 <__subdf3+0x5ac>
    38f6:	85be                	mv	a1,a5
    38f8:	b5d1                	j	37bc <__subdf3+0x196>
    38fa:	7ff00793          	li	a5,2047
    38fe:	06f68b63          	beq	a3,a5,3974 <__subdf3+0x34e>
    3902:	9efa                	add	t4,t4,t5
    3904:	01eeb633          	sltu	a2,t4,t5
    3908:	00e307b3          	add	a5,t1,a4
    390c:	97b2                	add	a5,a5,a2
    390e:	01f79813          	slli	a6,a5,0x1f
    3912:	001ede93          	srli	t4,t4,0x1
    3916:	01d869b3          	or	s3,a6,t4
    391a:	0017d613          	srli	a2,a5,0x1
    391e:	84b6                	mv	s1,a3
    3920:	0079f793          	andi	a5,s3,7
    3924:	e0079fe3          	bnez	a5,3742 <__subdf3+0x11c>
    3928:	01d61793          	slli	a5,a2,0x1d
    392c:	0039d813          	srli	a6,s3,0x3
    3930:	00f86833          	or	a6,a6,a5
    3934:	85a6                	mv	a1,s1
    3936:	00365793          	srli	a5,a2,0x3
    393a:	7ff00713          	li	a4,2047
    393e:	06e58063          	beq	a1,a4,399e <__subdf3+0x378>
    3942:	07b2                	slli	a5,a5,0xc
    3944:	83b1                	srli	a5,a5,0xc
    3946:	7ff5f713          	andi	a4,a1,2047
    394a:	8805                	andi	s0,s0,1
    394c:	bd3d                	j	378a <__subdf3+0x164>
    394e:	01d76733          	or	a4,a4,t4
    3952:	00e03833          	snez	a6,a4
    3956:	01e809b3          	add	s3,a6,t5
    395a:	01e9b7b3          	sltu	a5,s3,t5
    395e:	00678633          	add	a2,a5,t1
    3962:	00861793          	slli	a5,a2,0x8
    3966:	fa07dde3          	bgez	a5,3920 <__subdf3+0x2fa>
    396a:	0485                	addi	s1,s1,1
    396c:	7ff00793          	li	a5,2047
    3970:	18f49c63          	bne	s1,a5,3b08 <__subdf3+0x4e2>
    3974:	8805                	andi	s0,s0,1
    3976:	7ff00713          	li	a4,2047
    397a:	4781                	li	a5,0
    397c:	4801                	li	a6,0
    397e:	b531                	j	378a <__subdf3+0x164>
    3980:	10079163          	bnez	a5,3a82 <__subdf3+0x45c>
    3984:	3c080163          	beqz	a6,3d46 <__subdf3+0x720>
    3988:	00361813          	slli	a6,a2,0x3
    398c:	01d71793          	slli	a5,a4,0x1d
    3990:	00385813          	srli	a6,a6,0x3
    3994:	00f86833          	or	a6,a6,a5
    3998:	8436                	mv	s0,a3
    399a:	00375793          	srli	a5,a4,0x3
    399e:	00f867b3          	or	a5,a6,a5
    39a2:	dbe9                	beqz	a5,3974 <__subdf3+0x34e>
    39a4:	4401                	li	s0,0
    39a6:	7ff00713          	li	a4,2047
    39aa:	000807b7          	lui	a5,0x80
    39ae:	4801                	li	a6,0
    39b0:	bbe9                	j	378a <__subdf3+0x164>
    39b2:	ff800637          	lui	a2,0xff800
    39b6:	167d                	addi	a2,a2,-1
    39b8:	8e7d                	and	a2,a2,a5
    39ba:	0079f793          	andi	a5,s3,7
    39be:	8c99                	sub	s1,s1,a4
    39c0:	d80791e3          	bnez	a5,3742 <__subdf3+0x11c>
    39c4:	b795                	j	3928 <__subdf3+0x302>
    39c6:	854e                	mv	a0,s3
    39c8:	167000ef          	jal	ra,432e <__clzsi2>
    39cc:	01850713          	addi	a4,a0,24
    39d0:	47fd                	li	a5,31
    39d2:	d2e7d2e3          	bge	a5,a4,36f6 <__subdf3+0xd0>
    39d6:	ff850613          	addi	a2,a0,-8
    39da:	00c997b3          	sll	a5,s3,a2
    39de:	4981                	li	s3,0
    39e0:	b32d                	j	370a <__subdf3+0xe4>
    39e2:	01d76833          	or	a6,a4,t4
    39e6:	01003833          	snez	a6,a6
    39ea:	b1c5                	j	36ca <__subdf3+0xa4>
    39ec:	00351813          	slli	a6,a0,0x3
    39f0:	01d31793          	slli	a5,t1,0x1d
    39f4:	00385813          	srli	a6,a6,0x3
    39f8:	00f86833          	or	a6,a6,a5
    39fc:	00335793          	srli	a5,t1,0x3
    3a00:	bf2d                	j	393a <__subdf3+0x314>
    3a02:	41df09b3          	sub	s3,t5,t4
    3a06:	40e30933          	sub	s2,t1,a4
    3a0a:	013f3633          	sltu	a2,t5,s3
    3a0e:	40c90933          	sub	s2,s2,a2
    3a12:	00891793          	slli	a5,s2,0x8
    3a16:	2007ca63          	bltz	a5,3c2a <__subdf3+0x604>
    3a1a:	0129e833          	or	a6,s3,s2
    3a1e:	cc0815e3          	bnez	a6,36e8 <__subdf3+0xc2>
    3a22:	4781                	li	a5,0
    3a24:	4401                	li	s0,0
    3a26:	bf31                	j	3942 <__subdf3+0x31c>
    3a28:	409885b3          	sub	a1,a7,s1
    3a2c:	14048163          	beqz	s1,3b6e <__subdf3+0x548>
    3a30:	008006b7          	lui	a3,0x800
    3a34:	7ff00793          	li	a5,2047
    3a38:	00d36333          	or	t1,t1,a3
    3a3c:	20f88163          	beq	a7,a5,3c3e <__subdf3+0x618>
    3a40:	03800793          	li	a5,56
    3a44:	22b7cc63          	blt	a5,a1,3c7c <__subdf3+0x656>
    3a48:	47fd                	li	a5,31
    3a4a:	2cb7c963          	blt	a5,a1,3d1c <__subdf3+0x6f6>
    3a4e:	02000793          	li	a5,32
    3a52:	8f8d                	sub	a5,a5,a1
    3a54:	00f31833          	sll	a6,t1,a5
    3a58:	00bf56b3          	srl	a3,t5,a1
    3a5c:	00ff17b3          	sll	a5,t5,a5
    3a60:	00d86833          	or	a6,a6,a3
    3a64:	00f039b3          	snez	s3,a5
    3a68:	00b35333          	srl	t1,t1,a1
    3a6c:	01386833          	or	a6,a6,s3
    3a70:	971a                	add	a4,a4,t1
    3a72:	01d809b3          	add	s3,a6,t4
    3a76:	01d9b7b3          	sltu	a5,s3,t4
    3a7a:	00e78633          	add	a2,a5,a4
    3a7e:	84c6                	mv	s1,a7
    3a80:	b5cd                	j	3962 <__subdf3+0x33c>
    3a82:	f20811e3          	bnez	a6,39a4 <__subdf3+0x37e>
    3a86:	00351813          	slli	a6,a0,0x3
    3a8a:	01d31793          	slli	a5,t1,0x1d
    3a8e:	00385813          	srli	a6,a6,0x3
    3a92:	00f86833          	or	a6,a6,a5
    3a96:	00335793          	srli	a5,t1,0x3
    3a9a:	b711                	j	399e <__subdf3+0x378>
    3a9c:	00800537          	lui	a0,0x800
    3aa0:	7ff00793          	li	a5,2047
    3aa4:	00a36333          	or	t1,t1,a0
    3aa8:	e0f892e3          	bne	a7,a5,38ac <__subdf3+0x286>
    3aac:	060e                	slli	a2,a2,0x3
    3aae:	01d71813          	slli	a6,a4,0x1d
    3ab2:	820d                	srli	a2,a2,0x3
    3ab4:	00c86833          	or	a6,a6,a2
    3ab8:	00375793          	srli	a5,a4,0x3
    3abc:	8436                	mv	s0,a3
    3abe:	b5c5                	j	399e <__subdf3+0x378>
    3ac0:	1705                	addi	a4,a4,-31
    3ac2:	02000693          	li	a3,32
    3ac6:	00e7d733          	srl	a4,a5,a4
    3aca:	00d60a63          	beq	a2,a3,3ade <__subdf3+0x4b8>
    3ace:	04000693          	li	a3,64
    3ad2:	40c68633          	sub	a2,a3,a2
    3ad6:	00c79633          	sll	a2,a5,a2
    3ada:	00c9e9b3          	or	s3,s3,a2
    3ade:	01303833          	snez	a6,s3
    3ae2:	00e869b3          	or	s3,a6,a4
    3ae6:	4601                	li	a2,0
    3ae8:	4481                	li	s1,0
    3aea:	bd1d                	j	3920 <__subdf3+0x2fa>
    3aec:	01df09b3          	add	s3,t5,t4
    3af0:	00e307b3          	add	a5,t1,a4
    3af4:	01e9bf33          	sltu	t5,s3,t5
    3af8:	01e78633          	add	a2,a5,t5
    3afc:	00861793          	slli	a5,a2,0x8
    3b00:	4485                	li	s1,1
    3b02:	e007dfe3          	bgez	a5,3920 <__subdf3+0x2fa>
    3b06:	4489                	li	s1,2
    3b08:	ff8007b7          	lui	a5,0xff800
    3b0c:	17fd                	addi	a5,a5,-1
    3b0e:	8ff1                	and	a5,a5,a2
    3b10:	0019d713          	srli	a4,s3,0x1
    3b14:	0019f813          	andi	a6,s3,1
    3b18:	01076833          	or	a6,a4,a6
    3b1c:	01f79993          	slli	s3,a5,0x1f
    3b20:	0109e9b3          	or	s3,s3,a6
    3b24:	0017d613          	srli	a2,a5,0x1
    3b28:	b911                	j	373c <__subdf3+0x116>
    3b2a:	fe058813          	addi	a6,a1,-32
    3b2e:	02000793          	li	a5,32
    3b32:	010759b3          	srl	s3,a4,a6
    3b36:	00f58a63          	beq	a1,a5,3b4a <__subdf3+0x524>
    3b3a:	04000793          	li	a5,64
    3b3e:	40b785b3          	sub	a1,a5,a1
    3b42:	00b71733          	sll	a4,a4,a1
    3b46:	00eeeeb3          	or	t4,t4,a4
    3b4a:	01d03833          	snez	a6,t4
    3b4e:	01386833          	or	a6,a6,s3
    3b52:	bea5                	j	36ca <__subdf3+0xa4>
    3b54:	01e36333          	or	t1,t1,t5
    3b58:	00603833          	snez	a6,t1
    3b5c:	410e89b3          	sub	s3,t4,a6
    3b60:	013eb7b3          	sltu	a5,t4,s3
    3b64:	40f70633          	sub	a2,a4,a5
    3b68:	84c6                	mv	s1,a7
    3b6a:	8436                	mv	s0,a3
    3b6c:	b6ad                	j	36d6 <__subdf3+0xb0>
    3b6e:	01e367b3          	or	a5,t1,t5
    3b72:	18078763          	beqz	a5,3d00 <__subdf3+0x6da>
    3b76:	fff58793          	addi	a5,a1,-1
    3b7a:	1c078c63          	beqz	a5,3d52 <__subdf3+0x72c>
    3b7e:	7ff00693          	li	a3,2047
    3b82:	0ad58e63          	beq	a1,a3,3c3e <__subdf3+0x618>
    3b86:	85be                	mv	a1,a5
    3b88:	bd65                	j	3a40 <__subdf3+0x41a>
    3b8a:	02000793          	li	a5,32
    3b8e:	8f8d                	sub	a5,a5,a1
    3b90:	00bed9b3          	srl	s3,t4,a1
    3b94:	00f71833          	sll	a6,a4,a5
    3b98:	00fe9eb3          	sll	t4,t4,a5
    3b9c:	01386833          	or	a6,a6,s3
    3ba0:	00b75733          	srl	a4,a4,a1
    3ba4:	01d039b3          	snez	s3,t4
    3ba8:	01386833          	or	a6,a6,s3
    3bac:	933a                	add	t1,t1,a4
    3bae:	b365                	j	3956 <__subdf3+0x330>
    3bb0:	00361813          	slli	a6,a2,0x3
    3bb4:	01d71793          	slli	a5,a4,0x1d
    3bb8:	00385813          	srli	a6,a6,0x3
    3bbc:	0107e833          	or	a6,a5,a6
    3bc0:	8436                	mv	s0,a3
    3bc2:	00375793          	srli	a5,a4,0x3
    3bc6:	bb95                	j	393a <__subdf3+0x314>
    3bc8:	cbbd                	beqz	a5,3c3e <__subdf3+0x618>
    3bca:	01d76733          	or	a4,a4,t4
    3bce:	dc071be3          	bnez	a4,39a4 <__subdf3+0x37e>
    3bd2:	050e                	slli	a0,a0,0x3
    3bd4:	01d31813          	slli	a6,t1,0x1d
    3bd8:	810d                	srli	a0,a0,0x3
    3bda:	00a86833          	or	a6,a6,a0
    3bde:	00335793          	srli	a5,t1,0x3
    3be2:	bb75                	j	399e <__subdf3+0x378>
    3be4:	e2080fe3          	beqz	a6,3a22 <__subdf3+0x3fc>
    3be8:	00361813          	slli	a6,a2,0x3
    3bec:	01d71793          	slli	a5,a4,0x1d
    3bf0:	00385813          	srli	a6,a6,0x3
    3bf4:	00f86833          	or	a6,a6,a5
    3bf8:	8436                	mv	s0,a3
    3bfa:	00375793          	srli	a5,a4,0x3
    3bfe:	b391                	j	3942 <__subdf3+0x31c>
    3c00:	41df09b3          	sub	s3,t5,t4
    3c04:	40e307b3          	sub	a5,t1,a4
    3c08:	013f3f33          	sltu	t5,t5,s3
    3c0c:	41e78633          	sub	a2,a5,t5
    3c10:	4485                	li	s1,1
    3c12:	b4d1                	j	36d6 <__subdf3+0xb0>
    3c14:	00351813          	slli	a6,a0,0x3
    3c18:	01d31693          	slli	a3,t1,0x1d
    3c1c:	00385813          	srli	a6,a6,0x3
    3c20:	0106e833          	or	a6,a3,a6
    3c24:	00335793          	srli	a5,t1,0x3
    3c28:	bb9d                	j	399e <__subdf3+0x378>
    3c2a:	41ee89b3          	sub	s3,t4,t5
    3c2e:	40670633          	sub	a2,a4,t1
    3c32:	013eb933          	sltu	s2,t4,s3
    3c36:	41260933          	sub	s2,a2,s2
    3c3a:	8436                	mv	s0,a3
    3c3c:	b475                	j	36e8 <__subdf3+0xc2>
    3c3e:	060e                	slli	a2,a2,0x3
    3c40:	01d71813          	slli	a6,a4,0x1d
    3c44:	820d                	srli	a2,a2,0x3
    3c46:	00c86833          	or	a6,a6,a2
    3c4a:	00375793          	srli	a5,a4,0x3
    3c4e:	bb81                	j	399e <__subdf3+0x378>
    3c50:	41df09b3          	sub	s3,t5,t4
    3c54:	40e307b3          	sub	a5,t1,a4
    3c58:	013f3633          	sltu	a2,t5,s3
    3c5c:	40c78633          	sub	a2,a5,a2
    3c60:	00861793          	slli	a5,a2,0x8
    3c64:	0a07d763          	bgez	a5,3d12 <__subdf3+0x6ec>
    3c68:	41ee89b3          	sub	s3,t4,t5
    3c6c:	406707b3          	sub	a5,a4,t1
    3c70:	013ebeb3          	sltu	t4,t4,s3
    3c74:	41d78633          	sub	a2,a5,t4
    3c78:	8436                	mv	s0,a3
    3c7a:	b4c9                	j	373c <__subdf3+0x116>
    3c7c:	01e36333          	or	t1,t1,t5
    3c80:	00603833          	snez	a6,t1
    3c84:	b3fd                	j	3a72 <__subdf3+0x44c>
    3c86:	fe058813          	addi	a6,a1,-32
    3c8a:	02000793          	li	a5,32
    3c8e:	010359b3          	srl	s3,t1,a6
    3c92:	00f58a63          	beq	a1,a5,3ca6 <__subdf3+0x680>
    3c96:	04000793          	li	a5,64
    3c9a:	40b785b3          	sub	a1,a5,a1
    3c9e:	00b31333          	sll	t1,t1,a1
    3ca2:	006f6f33          	or	t5,t5,t1
    3ca6:	01e03833          	snez	a6,t5
    3caa:	01386833          	or	a6,a6,s3
    3cae:	b57d                	j	3b5c <__subdf3+0x536>
    3cb0:	41ee89b3          	sub	s3,t4,t5
    3cb4:	406707b3          	sub	a5,a4,t1
    3cb8:	013ebeb3          	sltu	t4,t4,s3
    3cbc:	41d78633          	sub	a2,a5,t4
    3cc0:	8436                	mv	s0,a3
    3cc2:	4485                	li	s1,1
    3cc4:	bc09                	j	36d6 <__subdf3+0xb0>
    3cc6:	00361813          	slli	a6,a2,0x3
    3cca:	01d71793          	slli	a5,a4,0x1d
    3cce:	00385813          	srli	a6,a6,0x3
    3cd2:	00f86833          	or	a6,a6,a5
    3cd6:	00375793          	srli	a5,a4,0x3
    3cda:	b1a5                	j	3942 <__subdf3+0x31c>
    3cdc:	01df09b3          	add	s3,t5,t4
    3ce0:	00e307b3          	add	a5,t1,a4
    3ce4:	01e9bf33          	sltu	t5,s3,t5
    3ce8:	01e78633          	add	a2,a5,t5
    3cec:	00861793          	slli	a5,a2,0x8
    3cf0:	c207d8e3          	bgez	a5,3920 <__subdf3+0x2fa>
    3cf4:	ff8007b7          	lui	a5,0xff800
    3cf8:	17fd                	addi	a5,a5,-1
    3cfa:	8e7d                	and	a2,a2,a5
    3cfc:	4485                	li	s1,1
    3cfe:	b10d                	j	3920 <__subdf3+0x2fa>
    3d00:	060e                	slli	a2,a2,0x3
    3d02:	01d71813          	slli	a6,a4,0x1d
    3d06:	820d                	srli	a2,a2,0x3
    3d08:	00c86833          	or	a6,a6,a2
    3d0c:	00375793          	srli	a5,a4,0x3
    3d10:	b12d                	j	393a <__subdf3+0x314>
    3d12:	00c9e833          	or	a6,s3,a2
    3d16:	d00806e3          	beqz	a6,3a22 <__subdf3+0x3fc>
    3d1a:	b119                	j	3920 <__subdf3+0x2fa>
    3d1c:	fe058813          	addi	a6,a1,-32
    3d20:	02000793          	li	a5,32
    3d24:	010359b3          	srl	s3,t1,a6
    3d28:	00f58a63          	beq	a1,a5,3d3c <__subdf3+0x716>
    3d2c:	04000793          	li	a5,64
    3d30:	40b785b3          	sub	a1,a5,a1
    3d34:	00b31333          	sll	t1,t1,a1
    3d38:	006f6f33          	or	t5,t5,t1
    3d3c:	01e03833          	snez	a6,t5
    3d40:	01386833          	or	a6,a6,s3
    3d44:	b33d                	j	3a72 <__subdf3+0x44c>
    3d46:	4401                	li	s0,0
    3d48:	7ff00713          	li	a4,2047
    3d4c:	000807b7          	lui	a5,0x80
    3d50:	bc2d                	j	378a <__subdf3+0x164>
    3d52:	01df09b3          	add	s3,t5,t4
    3d56:	00e307b3          	add	a5,t1,a4
    3d5a:	01d9beb3          	sltu	t4,s3,t4
    3d5e:	01d78633          	add	a2,a5,t4
    3d62:	bb69                	j	3afc <__subdf3+0x4d6>

00003d64 <__mulsf3>:
    3d64:	7179                	addi	sp,sp,-48
    3d66:	d422                	sw	s0,40(sp)
    3d68:	01755413          	srli	s0,a0,0x17
    3d6c:	ce4e                	sw	s3,28(sp)
    3d6e:	cc52                	sw	s4,24(sp)
    3d70:	00951993          	slli	s3,a0,0x9
    3d74:	d606                	sw	ra,44(sp)
    3d76:	d226                	sw	s1,36(sp)
    3d78:	d04a                	sw	s2,32(sp)
    3d7a:	ca56                	sw	s5,20(sp)
    3d7c:	c85a                	sw	s6,16(sp)
    3d7e:	0ff47413          	andi	s0,s0,255
    3d82:	0099d993          	srli	s3,s3,0x9
    3d86:	01f55a13          	srli	s4,a0,0x1f
    3d8a:	c469                	beqz	s0,3e54 <__mulsf3+0xf0>
    3d8c:	0ff00793          	li	a5,255
    3d90:	0ef40863          	beq	s0,a5,3e80 <__mulsf3+0x11c>
    3d94:	00399793          	slli	a5,s3,0x3
    3d98:	04000737          	lui	a4,0x4000
    3d9c:	00e7e9b3          	or	s3,a5,a4
    3da0:	f8140413          	addi	s0,s0,-127 # 7ff81 <_data_lma+0x7874d>
    3da4:	4481                	li	s1,0
    3da6:	4b01                	li	s6,0
    3da8:	0175d713          	srli	a4,a1,0x17
    3dac:	00959a93          	slli	s5,a1,0x9
    3db0:	0ff77713          	andi	a4,a4,255
    3db4:	009ada93          	srli	s5,s5,0x9
    3db8:	01f5d913          	srli	s2,a1,0x1f
    3dbc:	cf45                	beqz	a4,3e74 <__mulsf3+0x110>
    3dbe:	0ff00793          	li	a5,255
    3dc2:	02f70c63          	beq	a4,a5,3dfa <__mulsf3+0x96>
    3dc6:	0a8e                	slli	s5,s5,0x3
    3dc8:	f8170713          	addi	a4,a4,-127 # 3ffff81 <_data_lma+0x3ff874d>
    3dcc:	040007b7          	lui	a5,0x4000
    3dd0:	00faeab3          	or	s5,s5,a5
    3dd4:	943a                	add	s0,s0,a4
    3dd6:	4601                	li	a2,0
    3dd8:	012a4533          	xor	a0,s4,s2
    3ddc:	47bd                	li	a5,15
    3dde:	86aa                	mv	a3,a0
    3de0:	00140593          	addi	a1,s0,1
    3de4:	1097e063          	bltu	a5,s1,3ee4 <__mulsf3+0x180>
    3de8:	00004717          	auipc	a4,0x4
    3dec:	87070713          	addi	a4,a4,-1936 # 7658 <ascii_3216+0x1864>
    3df0:	048a                	slli	s1,s1,0x2
    3df2:	94ba                	add	s1,s1,a4
    3df4:	409c                	lw	a5,0(s1)
    3df6:	97ba                	add	a5,a5,a4
    3df8:	8782                	jr	a5
    3dfa:	0ff40413          	addi	s0,s0,255
    3dfe:	0c0a9663          	bnez	s5,3eca <__mulsf3+0x166>
    3e02:	0024e493          	ori	s1,s1,2
    3e06:	4609                	li	a2,2
    3e08:	bfc1                	j	3dd8 <__mulsf3+0x74>
    3e0a:	4501                	li	a0,0
    3e0c:	0ff00713          	li	a4,255
    3e10:	004007b7          	lui	a5,0x400
    3e14:	50b2                	lw	ra,44(sp)
    3e16:	5422                	lw	s0,40(sp)
    3e18:	07a6                	slli	a5,a5,0x9
    3e1a:	075e                	slli	a4,a4,0x17
    3e1c:	83a5                	srli	a5,a5,0x9
    3e1e:	057e                	slli	a0,a0,0x1f
    3e20:	8fd9                	or	a5,a5,a4
    3e22:	5492                	lw	s1,36(sp)
    3e24:	5902                	lw	s2,32(sp)
    3e26:	49f2                	lw	s3,28(sp)
    3e28:	4a62                	lw	s4,24(sp)
    3e2a:	4ad2                	lw	s5,20(sp)
    3e2c:	4b42                	lw	s6,16(sp)
    3e2e:	8d5d                	or	a0,a0,a5
    3e30:	6145                	addi	sp,sp,48
    3e32:	8082                	ret
    3e34:	86ca                	mv	a3,s2
    3e36:	89d6                	mv	s3,s5
    3e38:	8b32                	mv	s6,a2
    3e3a:	4789                	li	a5,2
    3e3c:	08fb0f63          	beq	s6,a5,3eda <__mulsf3+0x176>
    3e40:	478d                	li	a5,3
    3e42:	fcfb04e3          	beq	s6,a5,3e0a <__mulsf3+0xa6>
    3e46:	4785                	li	a5,1
    3e48:	8536                	mv	a0,a3
    3e4a:	1afb1063          	bne	s6,a5,3fea <__mulsf3+0x286>
    3e4e:	4701                	li	a4,0
    3e50:	4781                	li	a5,0
    3e52:	b7c9                	j	3e14 <__mulsf3+0xb0>
    3e54:	04099d63          	bnez	s3,3eae <__mulsf3+0x14a>
    3e58:	0175d713          	srli	a4,a1,0x17
    3e5c:	00959a93          	slli	s5,a1,0x9
    3e60:	0ff77713          	andi	a4,a4,255
    3e64:	4491                	li	s1,4
    3e66:	4401                	li	s0,0
    3e68:	4b05                	li	s6,1
    3e6a:	009ada93          	srli	s5,s5,0x9
    3e6e:	01f5d913          	srli	s2,a1,0x1f
    3e72:	f731                	bnez	a4,3dbe <__mulsf3+0x5a>
    3e74:	000a9d63          	bnez	s5,3e8e <__mulsf3+0x12a>
    3e78:	0014e493          	ori	s1,s1,1
    3e7c:	4605                	li	a2,1
    3e7e:	bfa9                	j	3dd8 <__mulsf3+0x74>
    3e80:	02099263          	bnez	s3,3ea4 <__mulsf3+0x140>
    3e84:	44a1                	li	s1,8
    3e86:	0ff00413          	li	s0,255
    3e8a:	4b09                	li	s6,2
    3e8c:	bf31                	j	3da8 <__mulsf3+0x44>
    3e8e:	8556                	mv	a0,s5
    3e90:	2979                	jal	432e <__clzsi2>
    3e92:	ffb50793          	addi	a5,a0,-5 # 7ffffb <_data_lma+0x7f87c7>
    3e96:	8c09                	sub	s0,s0,a0
    3e98:	00fa9ab3          	sll	s5,s5,a5
    3e9c:	f8a40413          	addi	s0,s0,-118
    3ea0:	4601                	li	a2,0
    3ea2:	bf1d                	j	3dd8 <__mulsf3+0x74>
    3ea4:	44b1                	li	s1,12
    3ea6:	0ff00413          	li	s0,255
    3eaa:	4b0d                	li	s6,3
    3eac:	bdf5                	j	3da8 <__mulsf3+0x44>
    3eae:	854e                	mv	a0,s3
    3eb0:	c62e                	sw	a1,12(sp)
    3eb2:	29b5                	jal	432e <__clzsi2>
    3eb4:	ffb50793          	addi	a5,a0,-5
    3eb8:	f8a00413          	li	s0,-118
    3ebc:	00f999b3          	sll	s3,s3,a5
    3ec0:	8c09                	sub	s0,s0,a0
    3ec2:	4481                	li	s1,0
    3ec4:	4b01                	li	s6,0
    3ec6:	45b2                	lw	a1,12(sp)
    3ec8:	b5c5                	j	3da8 <__mulsf3+0x44>
    3eca:	0034e493          	ori	s1,s1,3
    3ece:	460d                	li	a2,3
    3ed0:	b721                	j	3dd8 <__mulsf3+0x74>
    3ed2:	4789                	li	a5,2
    3ed4:	86d2                	mv	a3,s4
    3ed6:	f6fb15e3          	bne	s6,a5,3e40 <__mulsf3+0xdc>
    3eda:	8536                	mv	a0,a3
    3edc:	0ff00713          	li	a4,255
    3ee0:	4781                	li	a5,0
    3ee2:	bf0d                	j	3e14 <__mulsf3+0xb0>
    3ee4:	6341                	lui	t1,0x10
    3ee6:	fff30693          	addi	a3,t1,-1 # ffff <_data_lma+0x87cb>
    3eea:	0109d613          	srli	a2,s3,0x10
    3eee:	010ad893          	srli	a7,s5,0x10
    3ef2:	00d9f7b3          	and	a5,s3,a3
    3ef6:	00dafab3          	and	s5,s5,a3
    3efa:	03578833          	mul	a6,a5,s5
    3efe:	02f889b3          	mul	s3,a7,a5
    3f02:	01085713          	srli	a4,a6,0x10
    3f06:	03560ab3          	mul	s5,a2,s5
    3f0a:	99d6                	add	s3,s3,s5
    3f0c:	974e                	add	a4,a4,s3
    3f0e:	03160633          	mul	a2,a2,a7
    3f12:	01577363          	bgeu	a4,s5,3f18 <__mulsf3+0x1b4>
    3f16:	961a                	add	a2,a2,t1
    3f18:	67c1                	lui	a5,0x10
    3f1a:	17fd                	addi	a5,a5,-1
    3f1c:	00f776b3          	and	a3,a4,a5
    3f20:	00f87833          	and	a6,a6,a5
    3f24:	06c2                	slli	a3,a3,0x10
    3f26:	96c2                	add	a3,a3,a6
    3f28:	00669993          	slli	s3,a3,0x6
    3f2c:	01075793          	srli	a5,a4,0x10
    3f30:	013039b3          	snez	s3,s3
    3f34:	82e9                	srli	a3,a3,0x1a
    3f36:	97b2                	add	a5,a5,a2
    3f38:	079a                	slli	a5,a5,0x6
    3f3a:	00d9e6b3          	or	a3,s3,a3
    3f3e:	00d7e9b3          	or	s3,a5,a3
    3f42:	00499793          	slli	a5,s3,0x4
    3f46:	0007d963          	bgez	a5,3f58 <__mulsf3+0x1f4>
    3f4a:	0019d713          	srli	a4,s3,0x1
    3f4e:	0019f793          	andi	a5,s3,1
    3f52:	00f769b3          	or	s3,a4,a5
    3f56:	842e                	mv	s0,a1
    3f58:	07f40713          	addi	a4,s0,127
    3f5c:	04e05063          	blez	a4,3f9c <__mulsf3+0x238>
    3f60:	0079f793          	andi	a5,s3,7
    3f64:	c799                	beqz	a5,3f72 <__mulsf3+0x20e>
    3f66:	00f9f793          	andi	a5,s3,15
    3f6a:	4691                	li	a3,4
    3f6c:	00d78363          	beq	a5,a3,3f72 <__mulsf3+0x20e>
    3f70:	0991                	addi	s3,s3,4
    3f72:	00499793          	slli	a5,s3,0x4
    3f76:	0007d963          	bgez	a5,3f88 <__mulsf3+0x224>
    3f7a:	f80007b7          	lui	a5,0xf8000
    3f7e:	17fd                	addi	a5,a5,-1
    3f80:	00f9f9b3          	and	s3,s3,a5
    3f84:	08040713          	addi	a4,s0,128
    3f88:	0fe00793          	li	a5,254
    3f8c:	04e7cb63          	blt	a5,a4,3fe2 <__mulsf3+0x27e>
    3f90:	00699793          	slli	a5,s3,0x6
    3f94:	83a5                	srli	a5,a5,0x9
    3f96:	0ff77713          	andi	a4,a4,255
    3f9a:	bdad                	j	3e14 <__mulsf3+0xb0>
    3f9c:	4785                	li	a5,1
    3f9e:	40e786b3          	sub	a3,a5,a4
    3fa2:	c711                	beqz	a4,3fae <__mulsf3+0x24a>
    3fa4:	466d                	li	a2,27
    3fa6:	4701                	li	a4,0
    3fa8:	4781                	li	a5,0
    3faa:	e6d645e3          	blt	a2,a3,3e14 <__mulsf3+0xb0>
    3fae:	09e40713          	addi	a4,s0,158
    3fb2:	00e99733          	sll	a4,s3,a4
    3fb6:	00e03733          	snez	a4,a4
    3fba:	00d9d7b3          	srl	a5,s3,a3
    3fbe:	8fd9                	or	a5,a5,a4
    3fc0:	0077f713          	andi	a4,a5,7
    3fc4:	c719                	beqz	a4,3fd2 <__mulsf3+0x26e>
    3fc6:	00f7f713          	andi	a4,a5,15
    3fca:	4691                	li	a3,4
    3fcc:	00d70363          	beq	a4,a3,3fd2 <__mulsf3+0x26e>
    3fd0:	0791                	addi	a5,a5,4
    3fd2:	00579713          	slli	a4,a5,0x5
    3fd6:	00074c63          	bltz	a4,3fee <__mulsf3+0x28a>
    3fda:	079a                	slli	a5,a5,0x6
    3fdc:	83a5                	srli	a5,a5,0x9
    3fde:	4701                	li	a4,0
    3fe0:	bd15                	j	3e14 <__mulsf3+0xb0>
    3fe2:	0ff00713          	li	a4,255
    3fe6:	4781                	li	a5,0
    3fe8:	b535                	j	3e14 <__mulsf3+0xb0>
    3fea:	842e                	mv	s0,a1
    3fec:	b7b5                	j	3f58 <__mulsf3+0x1f4>
    3fee:	4705                	li	a4,1
    3ff0:	4781                	li	a5,0
    3ff2:	b50d                	j	3e14 <__mulsf3+0xb0>

00003ff4 <__fixunssfsi>:
    3ff4:	01755713          	srli	a4,a0,0x17
    3ff8:	00800637          	lui	a2,0x800
    3ffc:	fff60793          	addi	a5,a2,-1 # 7fffff <_data_lma+0x7f87cb>
    4000:	0ff77713          	andi	a4,a4,255
    4004:	07e00593          	li	a1,126
    4008:	00a7f6b3          	and	a3,a5,a0
    400c:	01f55793          	srli	a5,a0,0x1f
    4010:	4501                	li	a0,0
    4012:	00e5f463          	bgeu	a1,a4,401a <__fixunssfsi+0x26>
    4016:	c399                	beqz	a5,401c <__fixunssfsi+0x28>
    4018:	8082                	ret
    401a:	8082                	ret
    401c:	09e00793          	li	a5,158
    4020:	557d                	li	a0,-1
    4022:	fee7ebe3          	bltu	a5,a4,4018 <__fixunssfsi+0x24>
    4026:	09500593          	li	a1,149
    402a:	00c6e7b3          	or	a5,a3,a2
    402e:	00e5d763          	bge	a1,a4,403c <__fixunssfsi+0x48>
    4032:	f6a70713          	addi	a4,a4,-150
    4036:	00e79533          	sll	a0,a5,a4
    403a:	8082                	ret
    403c:	09600513          	li	a0,150
    4040:	40e50733          	sub	a4,a0,a4
    4044:	00e7d533          	srl	a0,a5,a4
    4048:	8082                	ret

0000404a <__floatunsisf>:
    404a:	1141                	addi	sp,sp,-16
    404c:	c606                	sw	ra,12(sp)
    404e:	c422                	sw	s0,8(sp)
    4050:	cd15                	beqz	a0,408c <__floatunsisf+0x42>
    4052:	842a                	mv	s0,a0
    4054:	2ce9                	jal	432e <__clzsi2>
    4056:	09e00793          	li	a5,158
    405a:	40a78733          	sub	a4,a5,a0
    405e:	09600793          	li	a5,150
    4062:	04e7c063          	blt	a5,a4,40a2 <__floatunsisf+0x58>
    4066:	46a1                	li	a3,8
    4068:	0ff77793          	andi	a5,a4,255
    406c:	00a6d563          	bge	a3,a0,4076 <__floatunsisf+0x2c>
    4070:	1561                	addi	a0,a0,-8
    4072:	00a41433          	sll	s0,s0,a0
    4076:	0426                	slli	s0,s0,0x9
    4078:	8025                	srli	s0,s0,0x9
    407a:	0426                	slli	s0,s0,0x9
    407c:	00945513          	srli	a0,s0,0x9
    4080:	40b2                	lw	ra,12(sp)
    4082:	4422                	lw	s0,8(sp)
    4084:	07de                	slli	a5,a5,0x17
    4086:	8d5d                	or	a0,a0,a5
    4088:	0141                	addi	sp,sp,16
    408a:	8082                	ret
    408c:	4401                	li	s0,0
    408e:	0426                	slli	s0,s0,0x9
    4090:	00945513          	srli	a0,s0,0x9
    4094:	40b2                	lw	ra,12(sp)
    4096:	4422                	lw	s0,8(sp)
    4098:	4781                	li	a5,0
    409a:	07de                	slli	a5,a5,0x17
    409c:	8d5d                	or	a0,a0,a5
    409e:	0141                	addi	sp,sp,16
    40a0:	8082                	ret
    40a2:	09900793          	li	a5,153
    40a6:	00e7dd63          	bge	a5,a4,40c0 <__floatunsisf+0x76>
    40aa:	01b50793          	addi	a5,a0,27
    40ae:	4695                	li	a3,5
    40b0:	00f417b3          	sll	a5,s0,a5
    40b4:	8e89                	sub	a3,a3,a0
    40b6:	00f037b3          	snez	a5,a5
    40ba:	00d45433          	srl	s0,s0,a3
    40be:	8c5d                	or	s0,s0,a5
    40c0:	4795                	li	a5,5
    40c2:	00a7d663          	bge	a5,a0,40ce <__floatunsisf+0x84>
    40c6:	ffb50793          	addi	a5,a0,-5
    40ca:	00f41433          	sll	s0,s0,a5
    40ce:	fc0006b7          	lui	a3,0xfc000
    40d2:	16fd                	addi	a3,a3,-1
    40d4:	00747793          	andi	a5,s0,7
    40d8:	00d47633          	and	a2,s0,a3
    40dc:	c385                	beqz	a5,40fc <__floatunsisf+0xb2>
    40de:	00f47793          	andi	a5,s0,15
    40e2:	4591                	li	a1,4
    40e4:	00b78c63          	beq	a5,a1,40fc <__floatunsisf+0xb2>
    40e8:	0611                	addi	a2,a2,4
    40ea:	00561793          	slli	a5,a2,0x5
    40ee:	0007d763          	bgez	a5,40fc <__floatunsisf+0xb2>
    40f2:	09f00793          	li	a5,159
    40f6:	8e75                	and	a2,a2,a3
    40f8:	40a78733          	sub	a4,a5,a0
    40fc:	00661413          	slli	s0,a2,0x6
    4100:	8025                	srli	s0,s0,0x9
    4102:	0426                	slli	s0,s0,0x9
    4104:	00945513          	srli	a0,s0,0x9
    4108:	40b2                	lw	ra,12(sp)
    410a:	4422                	lw	s0,8(sp)
    410c:	0ff77793          	andi	a5,a4,255
    4110:	07de                	slli	a5,a5,0x17
    4112:	8d5d                	or	a0,a0,a5
    4114:	0141                	addi	sp,sp,16
    4116:	8082                	ret

00004118 <__extendsfdf2>:
    4118:	01755713          	srli	a4,a0,0x17
    411c:	0ff77713          	andi	a4,a4,255
    4120:	1141                	addi	sp,sp,-16
    4122:	00170793          	addi	a5,a4,1
    4126:	c422                	sw	s0,8(sp)
    4128:	c226                	sw	s1,4(sp)
    412a:	00951413          	slli	s0,a0,0x9
    412e:	c606                	sw	ra,12(sp)
    4130:	0fe7f793          	andi	a5,a5,254
    4134:	8025                	srli	s0,s0,0x9
    4136:	01f55493          	srli	s1,a0,0x1f
    413a:	c785                	beqz	a5,4162 <__extendsfdf2+0x4a>
    413c:	00345793          	srli	a5,s0,0x3
    4140:	38070713          	addi	a4,a4,896
    4144:	0476                	slli	s0,s0,0x1d
    4146:	07b2                	slli	a5,a5,0xc
    4148:	0752                	slli	a4,a4,0x14
    414a:	83b1                	srli	a5,a5,0xc
    414c:	01f49513          	slli	a0,s1,0x1f
    4150:	8fd9                	or	a5,a5,a4
    4152:	8fc9                	or	a5,a5,a0
    4154:	40b2                	lw	ra,12(sp)
    4156:	8522                	mv	a0,s0
    4158:	4422                	lw	s0,8(sp)
    415a:	4492                	lw	s1,4(sp)
    415c:	85be                	mv	a1,a5
    415e:	0141                	addi	sp,sp,16
    4160:	8082                	ret
    4162:	eb05                	bnez	a4,4192 <__extendsfdf2+0x7a>
    4164:	c439                	beqz	s0,41b2 <__extendsfdf2+0x9a>
    4166:	8522                	mv	a0,s0
    4168:	22d9                	jal	432e <__clzsi2>
    416a:	47a9                	li	a5,10
    416c:	04a7c663          	blt	a5,a0,41b8 <__extendsfdf2+0xa0>
    4170:	472d                	li	a4,11
    4172:	8f09                	sub	a4,a4,a0
    4174:	01550793          	addi	a5,a0,21
    4178:	00e45733          	srl	a4,s0,a4
    417c:	00f41433          	sll	s0,s0,a5
    4180:	00c71793          	slli	a5,a4,0xc
    4184:	38900713          	li	a4,905
    4188:	8f09                	sub	a4,a4,a0
    418a:	83b1                	srli	a5,a5,0xc
    418c:	7ff77713          	andi	a4,a4,2047
    4190:	bf5d                	j	4146 <__extendsfdf2+0x2e>
    4192:	cc01                	beqz	s0,41aa <__extendsfdf2+0x92>
    4194:	00345713          	srli	a4,s0,0x3
    4198:	000807b7          	lui	a5,0x80
    419c:	8fd9                	or	a5,a5,a4
    419e:	07b2                	slli	a5,a5,0xc
    41a0:	0476                	slli	s0,s0,0x1d
    41a2:	83b1                	srli	a5,a5,0xc
    41a4:	7ff00713          	li	a4,2047
    41a8:	bf79                	j	4146 <__extendsfdf2+0x2e>
    41aa:	7ff00713          	li	a4,2047
    41ae:	4781                	li	a5,0
    41b0:	bf59                	j	4146 <__extendsfdf2+0x2e>
    41b2:	4701                	li	a4,0
    41b4:	4781                	li	a5,0
    41b6:	bf41                	j	4146 <__extendsfdf2+0x2e>
    41b8:	ff550713          	addi	a4,a0,-11
    41bc:	00e41733          	sll	a4,s0,a4
    41c0:	4401                	li	s0,0
    41c2:	bf7d                	j	4180 <__extendsfdf2+0x68>

000041c4 <__truncdfsf2>:
    41c4:	0145d693          	srli	a3,a1,0x14
    41c8:	00c59793          	slli	a5,a1,0xc
    41cc:	7ff6f693          	andi	a3,a3,2047
    41d0:	83b1                	srli	a5,a5,0xc
    41d2:	00168613          	addi	a2,a3,1 # fc000001 <_eusrstack+0xdbff8001>
    41d6:	078e                	slli	a5,a5,0x3
    41d8:	01d55713          	srli	a4,a0,0x1d
    41dc:	7fe67613          	andi	a2,a2,2046
    41e0:	81fd                	srli	a1,a1,0x1f
    41e2:	8f5d                	or	a4,a4,a5
    41e4:	00351893          	slli	a7,a0,0x3
    41e8:	ce35                	beqz	a2,4264 <__truncdfsf2+0xa0>
    41ea:	c8068813          	addi	a6,a3,-896
    41ee:	0fe00793          	li	a5,254
    41f2:	0107dd63          	bge	a5,a6,420c <__truncdfsf2+0x48>
    41f6:	4781                	li	a5,0
    41f8:	00979513          	slli	a0,a5,0x9
    41fc:	0ff00693          	li	a3,255
    4200:	06de                	slli	a3,a3,0x17
    4202:	8125                	srli	a0,a0,0x9
    4204:	05fe                	slli	a1,a1,0x1f
    4206:	8d55                	or	a0,a0,a3
    4208:	8d4d                	or	a0,a0,a1
    420a:	8082                	ret
    420c:	0b005563          	blez	a6,42b6 <__truncdfsf2+0xf2>
    4210:	00651793          	slli	a5,a0,0x6
    4214:	070e                	slli	a4,a4,0x3
    4216:	00f037b3          	snez	a5,a5
    421a:	8fd9                	or	a5,a5,a4
    421c:	01d8d893          	srli	a7,a7,0x1d
    4220:	0117e7b3          	or	a5,a5,a7
    4224:	0077f713          	andi	a4,a5,7
    4228:	10070163          	beqz	a4,432a <__truncdfsf2+0x166>
    422c:	00f7f713          	andi	a4,a5,15
    4230:	4691                	li	a3,4
    4232:	00d70363          	beq	a4,a3,4238 <__truncdfsf2+0x74>
    4236:	0791                	addi	a5,a5,4
    4238:	04000737          	lui	a4,0x4000
    423c:	8f7d                	and	a4,a4,a5
    423e:	c775                	beqz	a4,432a <__truncdfsf2+0x166>
    4240:	00180713          	addi	a4,a6,1
    4244:	0ff00613          	li	a2,255
    4248:	0ff77693          	andi	a3,a4,255
    424c:	fac705e3          	beq	a4,a2,41f6 <__truncdfsf2+0x32>
    4250:	079a                	slli	a5,a5,0x6
    4252:	83a5                	srli	a5,a5,0x9
    4254:	00979513          	slli	a0,a5,0x9
    4258:	06de                	slli	a3,a3,0x17
    425a:	8125                	srli	a0,a0,0x9
    425c:	05fe                	slli	a1,a1,0x1f
    425e:	8d55                	or	a0,a0,a3
    4260:	8d4d                	or	a0,a0,a1
    4262:	8082                	ret
    4264:	011767b3          	or	a5,a4,a7
    4268:	ee99                	bnez	a3,4286 <__truncdfsf2+0xc2>
    426a:	cf85                	beqz	a5,42a2 <__truncdfsf2+0xde>
    426c:	4795                	li	a5,5
    426e:	079a                	slli	a5,a5,0x6
    4270:	83a5                	srli	a5,a5,0x9
    4272:	00979513          	slli	a0,a5,0x9
    4276:	0ff6f693          	andi	a3,a3,255
    427a:	06de                	slli	a3,a3,0x17
    427c:	8125                	srli	a0,a0,0x9
    427e:	05fe                	slli	a1,a1,0x1f
    4280:	8d55                	or	a0,a0,a3
    4282:	8d4d                	or	a0,a0,a1
    4284:	8082                	ret
    4286:	dba5                	beqz	a5,41f6 <__truncdfsf2+0x32>
    4288:	004007b7          	lui	a5,0x400
    428c:	00979513          	slli	a0,a5,0x9
    4290:	0ff00693          	li	a3,255
    4294:	06de                	slli	a3,a3,0x17
    4296:	4581                	li	a1,0
    4298:	8125                	srli	a0,a0,0x9
    429a:	05fe                	slli	a1,a1,0x1f
    429c:	8d55                	or	a0,a0,a3
    429e:	8d4d                	or	a0,a0,a1
    42a0:	8082                	ret
    42a2:	4781                	li	a5,0
    42a4:	00979513          	slli	a0,a5,0x9
    42a8:	4681                	li	a3,0
    42aa:	06de                	slli	a3,a3,0x17
    42ac:	8125                	srli	a0,a0,0x9
    42ae:	05fe                	slli	a1,a1,0x1f
    42b0:	8d55                	or	a0,a0,a3
    42b2:	8d4d                	or	a0,a0,a1
    42b4:	8082                	ret
    42b6:	57a5                	li	a5,-23
    42b8:	04f84863          	blt	a6,a5,4308 <__truncdfsf2+0x144>
    42bc:	47f9                	li	a5,30
    42be:	00800637          	lui	a2,0x800
    42c2:	410787b3          	sub	a5,a5,a6
    42c6:	457d                	li	a0,31
    42c8:	8e59                	or	a2,a2,a4
    42ca:	04f55163          	bge	a0,a5,430c <__truncdfsf2+0x148>
    42ce:	5779                	li	a4,-2
    42d0:	41070733          	sub	a4,a4,a6
    42d4:	02000513          	li	a0,32
    42d8:	00e65733          	srl	a4,a2,a4
    42dc:	00a78863          	beq	a5,a0,42ec <__truncdfsf2+0x128>
    42e0:	ca268693          	addi	a3,a3,-862
    42e4:	00d616b3          	sll	a3,a2,a3
    42e8:	00d8e8b3          	or	a7,a7,a3
    42ec:	011037b3          	snez	a5,a7
    42f0:	8fd9                	or	a5,a5,a4
    42f2:	0077f713          	andi	a4,a5,7
    42f6:	4801                	li	a6,0
    42f8:	fb15                	bnez	a4,422c <__truncdfsf2+0x68>
    42fa:	00579713          	slli	a4,a5,0x5
    42fe:	4685                	li	a3,1
    4300:	f40748e3          	bltz	a4,4250 <__truncdfsf2+0x8c>
    4304:	4681                	li	a3,0
    4306:	b7a5                	j	426e <__truncdfsf2+0xaa>
    4308:	4681                	li	a3,0
    430a:	b78d                	j	426c <__truncdfsf2+0xa8>
    430c:	c8268693          	addi	a3,a3,-894
    4310:	00d89733          	sll	a4,a7,a3
    4314:	00e03733          	snez	a4,a4
    4318:	00d616b3          	sll	a3,a2,a3
    431c:	00f8d8b3          	srl	a7,a7,a5
    4320:	00d767b3          	or	a5,a4,a3
    4324:	00f8e7b3          	or	a5,a7,a5
    4328:	b7e9                	j	42f2 <__truncdfsf2+0x12e>
    432a:	86c2                	mv	a3,a6
    432c:	b789                	j	426e <__truncdfsf2+0xaa>

0000432e <__clzsi2>:
    432e:	67c1                	lui	a5,0x10
    4330:	02f57c63          	bgeu	a0,a5,4368 <__clzsi2+0x3a>
    4334:	0ff00793          	li	a5,255
    4338:	02000713          	li	a4,32
    433c:	00a7eb63          	bltu	a5,a0,4352 <__clzsi2+0x24>
    4340:	00003797          	auipc	a5,0x3
    4344:	35878793          	addi	a5,a5,856 # 7698 <__clz_tab>
    4348:	97aa                	add	a5,a5,a0
    434a:	2388                	lbu	a0,0(a5)
    434c:	40a70533          	sub	a0,a4,a0
    4350:	8082                	ret
    4352:	8121                	srli	a0,a0,0x8
    4354:	00003797          	auipc	a5,0x3
    4358:	34478793          	addi	a5,a5,836 # 7698 <__clz_tab>
    435c:	97aa                	add	a5,a5,a0
    435e:	2388                	lbu	a0,0(a5)
    4360:	4761                	li	a4,24
    4362:	40a70533          	sub	a0,a4,a0
    4366:	8082                	ret
    4368:	010007b7          	lui	a5,0x1000
    436c:	00f56d63          	bltu	a0,a5,4386 <__clzsi2+0x58>
    4370:	8161                	srli	a0,a0,0x18
    4372:	00003797          	auipc	a5,0x3
    4376:	32678793          	addi	a5,a5,806 # 7698 <__clz_tab>
    437a:	97aa                	add	a5,a5,a0
    437c:	2388                	lbu	a0,0(a5)
    437e:	4721                	li	a4,8
    4380:	40a70533          	sub	a0,a4,a0
    4384:	8082                	ret
    4386:	8141                	srli	a0,a0,0x10
    4388:	00003797          	auipc	a5,0x3
    438c:	31078793          	addi	a5,a5,784 # 7698 <__clz_tab>
    4390:	97aa                	add	a5,a5,a0
    4392:	2388                	lbu	a0,0(a5)
    4394:	4741                	li	a4,16
    4396:	40a70533          	sub	a0,a4,a0
    439a:	8082                	ret

0000439c <memcpy>:
    439c:	00a5c7b3          	xor	a5,a1,a0
    43a0:	8b8d                	andi	a5,a5,3
    43a2:	00c50733          	add	a4,a0,a2
    43a6:	e781                	bnez	a5,43ae <memcpy+0x12>
    43a8:	478d                	li	a5,3
    43aa:	00c7ed63          	bltu	a5,a2,43c4 <memcpy+0x28>
    43ae:	87aa                	mv	a5,a0
    43b0:	08e57e63          	bgeu	a0,a4,444c <memcpy+0xb0>
    43b4:	2194                	lbu	a3,0(a1)
    43b6:	0785                	addi	a5,a5,1
    43b8:	0585                	addi	a1,a1,1
    43ba:	fed78fa3          	sb	a3,-1(a5)
    43be:	fee7ebe3          	bltu	a5,a4,43b4 <memcpy+0x18>
    43c2:	8082                	ret
    43c4:	00357693          	andi	a3,a0,3
    43c8:	87aa                	mv	a5,a0
    43ca:	ca89                	beqz	a3,43dc <memcpy+0x40>
    43cc:	2194                	lbu	a3,0(a1)
    43ce:	0785                	addi	a5,a5,1
    43d0:	0585                	addi	a1,a1,1
    43d2:	fed78fa3          	sb	a3,-1(a5)
    43d6:	0037f693          	andi	a3,a5,3
    43da:	bfc5                	j	43ca <memcpy+0x2e>
    43dc:	ffc77693          	andi	a3,a4,-4
    43e0:	fe068613          	addi	a2,a3,-32
    43e4:	06c7f063          	bgeu	a5,a2,4444 <memcpy+0xa8>
    43e8:	0005a383          	lw	t2,0(a1)
    43ec:	0045a283          	lw	t0,4(a1)
    43f0:	0085af83          	lw	t6,8(a1)
    43f4:	00c5af03          	lw	t5,12(a1)
    43f8:	0105ae83          	lw	t4,16(a1)
    43fc:	0145ae03          	lw	t3,20(a1)
    4400:	0185a303          	lw	t1,24(a1)
    4404:	01c5a883          	lw	a7,28(a1)
    4408:	02458593          	addi	a1,a1,36
    440c:	0077a023          	sw	t2,0(a5)
    4410:	ffc5a803          	lw	a6,-4(a1)
    4414:	0057a223          	sw	t0,4(a5)
    4418:	01f7a423          	sw	t6,8(a5)
    441c:	01e7a623          	sw	t5,12(a5)
    4420:	01d7a823          	sw	t4,16(a5)
    4424:	01c7aa23          	sw	t3,20(a5)
    4428:	0067ac23          	sw	t1,24(a5)
    442c:	0117ae23          	sw	a7,28(a5)
    4430:	02478793          	addi	a5,a5,36
    4434:	ff07ae23          	sw	a6,-4(a5)
    4438:	b775                	j	43e4 <memcpy+0x48>
    443a:	4190                	lw	a2,0(a1)
    443c:	0791                	addi	a5,a5,4
    443e:	0591                	addi	a1,a1,4
    4440:	fec7ae23          	sw	a2,-4(a5)
    4444:	fed7ebe3          	bltu	a5,a3,443a <memcpy+0x9e>
    4448:	f6e7e6e3          	bltu	a5,a4,43b4 <memcpy+0x18>
    444c:	8082                	ret

0000444e <iprintf>:
    444e:	7139                	addi	sp,sp,-64
    4450:	da3e                	sw	a5,52(sp)
    4452:	d22e                	sw	a1,36(sp)
    4454:	d432                	sw	a2,40(sp)
    4456:	d636                	sw	a3,44(sp)
    4458:	d83a                	sw	a4,48(sp)
    445a:	dc42                	sw	a6,56(sp)
    445c:	de46                	sw	a7,60(sp)
    445e:	83018793          	addi	a5,gp,-2000 # 200000b0 <_impure_ptr>
    4462:	cc22                	sw	s0,24(sp)
    4464:	4380                	lw	s0,0(a5)
    4466:	ca26                	sw	s1,20(sp)
    4468:	ce06                	sw	ra,28(sp)
    446a:	84aa                	mv	s1,a0
    446c:	c409                	beqz	s0,4476 <iprintf+0x28>
    446e:	4c1c                	lw	a5,24(s0)
    4470:	e399                	bnez	a5,4476 <iprintf+0x28>
    4472:	8522                	mv	a0,s0
    4474:	2b0d                	jal	49a6 <__sinit>
    4476:	440c                	lw	a1,8(s0)
    4478:	1054                	addi	a3,sp,36
    447a:	8626                	mv	a2,s1
    447c:	8522                	mv	a0,s0
    447e:	c636                	sw	a3,12(sp)
    4480:	16d000ef          	jal	ra,4dec <_vfiprintf_r>
    4484:	40f2                	lw	ra,28(sp)
    4486:	4462                	lw	s0,24(sp)
    4488:	44d2                	lw	s1,20(sp)
    448a:	6121                	addi	sp,sp,64
    448c:	8082                	ret

0000448e <_puts_r>:
    448e:	1101                	addi	sp,sp,-32
    4490:	ca26                	sw	s1,20(sp)
    4492:	c84a                	sw	s2,16(sp)
    4494:	ce06                	sw	ra,28(sp)
    4496:	cc22                	sw	s0,24(sp)
    4498:	c64e                	sw	s3,12(sp)
    449a:	c452                	sw	s4,8(sp)
    449c:	84aa                	mv	s1,a0
    449e:	892e                	mv	s2,a1
    44a0:	c501                	beqz	a0,44a8 <_puts_r+0x1a>
    44a2:	4d1c                	lw	a5,24(a0)
    44a4:	e391                	bnez	a5,44a8 <_puts_r+0x1a>
    44a6:	2301                	jal	49a6 <__sinit>
    44a8:	4c9c                	lw	a5,24(s1)
    44aa:	4480                	lw	s0,8(s1)
    44ac:	e399                	bnez	a5,44b2 <_puts_r+0x24>
    44ae:	8526                	mv	a0,s1
    44b0:	29dd                	jal	49a6 <__sinit>
    44b2:	00003797          	auipc	a5,0x3
    44b6:	30678793          	addi	a5,a5,774 # 77b8 <__sf_fake_stdin>
    44ba:	02f41b63          	bne	s0,a5,44f0 <_puts_r+0x62>
    44be:	40c0                	lw	s0,4(s1)
    44c0:	245e                	lhu	a5,12(s0)
    44c2:	8ba1                	andi	a5,a5,8
    44c4:	c7b1                	beqz	a5,4510 <_puts_r+0x82>
    44c6:	481c                	lw	a5,16(s0)
    44c8:	c7a1                	beqz	a5,4510 <_puts_r+0x82>
    44ca:	59fd                	li	s3,-1
    44cc:	4a29                	li	s4,10
    44ce:	441c                	lw	a5,8(s0)
    44d0:	00094583          	lbu	a1,0(s2) # 800000 <_data_lma+0x7f87cc>
    44d4:	17fd                	addi	a5,a5,-1
    44d6:	e9b1                	bnez	a1,452a <_puts_r+0x9c>
    44d8:	c41c                	sw	a5,8(s0)
    44da:	0607dd63          	bgez	a5,4554 <_puts_r+0xc6>
    44de:	8622                	mv	a2,s0
    44e0:	45a9                	li	a1,10
    44e2:	8526                	mv	a0,s1
    44e4:	287d                	jal	45a2 <__swbuf_r>
    44e6:	57fd                	li	a5,-1
    44e8:	02f50863          	beq	a0,a5,4518 <_puts_r+0x8a>
    44ec:	4529                	li	a0,10
    44ee:	a035                	j	451a <_puts_r+0x8c>
    44f0:	00003797          	auipc	a5,0x3
    44f4:	2e878793          	addi	a5,a5,744 # 77d8 <__sf_fake_stdout>
    44f8:	00f41463          	bne	s0,a5,4500 <_puts_r+0x72>
    44fc:	4480                	lw	s0,8(s1)
    44fe:	b7c9                	j	44c0 <_puts_r+0x32>
    4500:	00003797          	auipc	a5,0x3
    4504:	29878793          	addi	a5,a5,664 # 7798 <__sf_fake_stderr>
    4508:	faf41ce3          	bne	s0,a5,44c0 <_puts_r+0x32>
    450c:	44c0                	lw	s0,12(s1)
    450e:	bf4d                	j	44c0 <_puts_r+0x32>
    4510:	85a2                	mv	a1,s0
    4512:	8526                	mv	a0,s1
    4514:	22a9                	jal	465e <__swsetup_r>
    4516:	d955                	beqz	a0,44ca <_puts_r+0x3c>
    4518:	557d                	li	a0,-1
    451a:	40f2                	lw	ra,28(sp)
    451c:	4462                	lw	s0,24(sp)
    451e:	44d2                	lw	s1,20(sp)
    4520:	4942                	lw	s2,16(sp)
    4522:	49b2                	lw	s3,12(sp)
    4524:	4a22                	lw	s4,8(sp)
    4526:	6105                	addi	sp,sp,32
    4528:	8082                	ret
    452a:	c41c                	sw	a5,8(s0)
    452c:	0905                	addi	s2,s2,1
    452e:	0007d763          	bgez	a5,453c <_puts_r+0xae>
    4532:	4c18                	lw	a4,24(s0)
    4534:	00e7ca63          	blt	a5,a4,4548 <_puts_r+0xba>
    4538:	01458863          	beq	a1,s4,4548 <_puts_r+0xba>
    453c:	401c                	lw	a5,0(s0)
    453e:	00178713          	addi	a4,a5,1
    4542:	c018                	sw	a4,0(s0)
    4544:	a38c                	sb	a1,0(a5)
    4546:	b761                	j	44ce <_puts_r+0x40>
    4548:	8622                	mv	a2,s0
    454a:	8526                	mv	a0,s1
    454c:	2899                	jal	45a2 <__swbuf_r>
    454e:	f93510e3          	bne	a0,s3,44ce <_puts_r+0x40>
    4552:	b7d9                	j	4518 <_puts_r+0x8a>
    4554:	401c                	lw	a5,0(s0)
    4556:	00178713          	addi	a4,a5,1
    455a:	c018                	sw	a4,0(s0)
    455c:	4729                	li	a4,10
    455e:	a398                	sb	a4,0(a5)
    4560:	b771                	j	44ec <_puts_r+0x5e>

00004562 <puts>:
    4562:	83018793          	addi	a5,gp,-2000 # 200000b0 <_impure_ptr>
    4566:	85aa                	mv	a1,a0
    4568:	4388                	lw	a0,0(a5)
    456a:	f25ff06f          	j	448e <_puts_r>

0000456e <strstr>:
    456e:	2118                	lbu	a4,0(a0)
    4570:	219c                	lbu	a5,0(a1)
    4572:	e701                	bnez	a4,457a <strstr+0xc>
    4574:	c391                	beqz	a5,4578 <strstr+0xa>
    4576:	4501                	li	a0,0
    4578:	8082                	ret
    457a:	4781                	li	a5,0
    457c:	a039                	j	458a <strstr+0x1c>
    457e:	311c                	lbu	a5,1(a0)
    4580:	00150713          	addi	a4,a0,1
    4584:	dbed                	beqz	a5,4576 <strstr+0x8>
    4586:	4781                	li	a5,0
    4588:	853a                	mv	a0,a4
    458a:	00f58733          	add	a4,a1,a5
    458e:	2318                	lbu	a4,0(a4)
    4590:	d765                	beqz	a4,4578 <strstr+0xa>
    4592:	00f506b3          	add	a3,a0,a5
    4596:	2294                	lbu	a3,0(a3)
    4598:	fee693e3          	bne	a3,a4,457e <strstr+0x10>
    459c:	0785                	addi	a5,a5,1
    459e:	872a                	mv	a4,a0
    45a0:	b7e5                	j	4588 <strstr+0x1a>

000045a2 <__swbuf_r>:
    45a2:	1101                	addi	sp,sp,-32
    45a4:	cc22                	sw	s0,24(sp)
    45a6:	ca26                	sw	s1,20(sp)
    45a8:	c84a                	sw	s2,16(sp)
    45aa:	ce06                	sw	ra,28(sp)
    45ac:	c64e                	sw	s3,12(sp)
    45ae:	84aa                	mv	s1,a0
    45b0:	892e                	mv	s2,a1
    45b2:	8432                	mv	s0,a2
    45b4:	c501                	beqz	a0,45bc <__swbuf_r+0x1a>
    45b6:	4d1c                	lw	a5,24(a0)
    45b8:	e391                	bnez	a5,45bc <__swbuf_r+0x1a>
    45ba:	26f5                	jal	49a6 <__sinit>
    45bc:	00003797          	auipc	a5,0x3
    45c0:	1fc78793          	addi	a5,a5,508 # 77b8 <__sf_fake_stdin>
    45c4:	06f41763          	bne	s0,a5,4632 <__swbuf_r+0x90>
    45c8:	40c0                	lw	s0,4(s1)
    45ca:	4c1c                	lw	a5,24(s0)
    45cc:	c41c                	sw	a5,8(s0)
    45ce:	245e                	lhu	a5,12(s0)
    45d0:	8ba1                	andi	a5,a5,8
    45d2:	c3c1                	beqz	a5,4652 <__swbuf_r+0xb0>
    45d4:	481c                	lw	a5,16(s0)
    45d6:	cfb5                	beqz	a5,4652 <__swbuf_r+0xb0>
    45d8:	481c                	lw	a5,16(s0)
    45da:	4008                	lw	a0,0(s0)
    45dc:	0ff97993          	andi	s3,s2,255
    45e0:	0ff97913          	andi	s2,s2,255
    45e4:	8d1d                	sub	a0,a0,a5
    45e6:	485c                	lw	a5,20(s0)
    45e8:	00f54663          	blt	a0,a5,45f4 <__swbuf_r+0x52>
    45ec:	85a2                	mv	a1,s0
    45ee:	8526                	mv	a0,s1
    45f0:	2c69                	jal	488a <_fflush_r>
    45f2:	e525                	bnez	a0,465a <__swbuf_r+0xb8>
    45f4:	441c                	lw	a5,8(s0)
    45f6:	0505                	addi	a0,a0,1
    45f8:	17fd                	addi	a5,a5,-1
    45fa:	c41c                	sw	a5,8(s0)
    45fc:	401c                	lw	a5,0(s0)
    45fe:	00178713          	addi	a4,a5,1
    4602:	c018                	sw	a4,0(s0)
    4604:	01378023          	sb	s3,0(a5)
    4608:	485c                	lw	a5,20(s0)
    460a:	00a78863          	beq	a5,a0,461a <__swbuf_r+0x78>
    460e:	245e                	lhu	a5,12(s0)
    4610:	8b85                	andi	a5,a5,1
    4612:	cb81                	beqz	a5,4622 <__swbuf_r+0x80>
    4614:	47a9                	li	a5,10
    4616:	00f91663          	bne	s2,a5,4622 <__swbuf_r+0x80>
    461a:	85a2                	mv	a1,s0
    461c:	8526                	mv	a0,s1
    461e:	24b5                	jal	488a <_fflush_r>
    4620:	ed0d                	bnez	a0,465a <__swbuf_r+0xb8>
    4622:	40f2                	lw	ra,28(sp)
    4624:	4462                	lw	s0,24(sp)
    4626:	854a                	mv	a0,s2
    4628:	44d2                	lw	s1,20(sp)
    462a:	4942                	lw	s2,16(sp)
    462c:	49b2                	lw	s3,12(sp)
    462e:	6105                	addi	sp,sp,32
    4630:	8082                	ret
    4632:	00003797          	auipc	a5,0x3
    4636:	1a678793          	addi	a5,a5,422 # 77d8 <__sf_fake_stdout>
    463a:	00f41463          	bne	s0,a5,4642 <__swbuf_r+0xa0>
    463e:	4480                	lw	s0,8(s1)
    4640:	b769                	j	45ca <__swbuf_r+0x28>
    4642:	00003797          	auipc	a5,0x3
    4646:	15678793          	addi	a5,a5,342 # 7798 <__sf_fake_stderr>
    464a:	f8f410e3          	bne	s0,a5,45ca <__swbuf_r+0x28>
    464e:	44c0                	lw	s0,12(s1)
    4650:	bfad                	j	45ca <__swbuf_r+0x28>
    4652:	85a2                	mv	a1,s0
    4654:	8526                	mv	a0,s1
    4656:	2021                	jal	465e <__swsetup_r>
    4658:	d141                	beqz	a0,45d8 <__swbuf_r+0x36>
    465a:	597d                	li	s2,-1
    465c:	b7d9                	j	4622 <__swbuf_r+0x80>

0000465e <__swsetup_r>:
    465e:	1141                	addi	sp,sp,-16
    4660:	83018793          	addi	a5,gp,-2000 # 200000b0 <_impure_ptr>
    4664:	c226                	sw	s1,4(sp)
    4666:	4384                	lw	s1,0(a5)
    4668:	c422                	sw	s0,8(sp)
    466a:	c04a                	sw	s2,0(sp)
    466c:	c606                	sw	ra,12(sp)
    466e:	892a                	mv	s2,a0
    4670:	842e                	mv	s0,a1
    4672:	c489                	beqz	s1,467c <__swsetup_r+0x1e>
    4674:	4c9c                	lw	a5,24(s1)
    4676:	e399                	bnez	a5,467c <__swsetup_r+0x1e>
    4678:	8526                	mv	a0,s1
    467a:	2635                	jal	49a6 <__sinit>
    467c:	00003797          	auipc	a5,0x3
    4680:	13c78793          	addi	a5,a5,316 # 77b8 <__sf_fake_stdin>
    4684:	02f41b63          	bne	s0,a5,46ba <__swsetup_r+0x5c>
    4688:	40c0                	lw	s0,4(s1)
    468a:	00c41703          	lh	a4,12(s0)
    468e:	01071793          	slli	a5,a4,0x10
    4692:	83c1                	srli	a5,a5,0x10
    4694:	0087f693          	andi	a3,a5,8
    4698:	eaad                	bnez	a3,470a <__swsetup_r+0xac>
    469a:	0107f693          	andi	a3,a5,16
    469e:	ee95                	bnez	a3,46da <__swsetup_r+0x7c>
    46a0:	47a5                	li	a5,9
    46a2:	00f92023          	sw	a5,0(s2)
    46a6:	04076713          	ori	a4,a4,64
    46aa:	a45a                	sh	a4,12(s0)
    46ac:	557d                	li	a0,-1
    46ae:	40b2                	lw	ra,12(sp)
    46b0:	4422                	lw	s0,8(sp)
    46b2:	4492                	lw	s1,4(sp)
    46b4:	4902                	lw	s2,0(sp)
    46b6:	0141                	addi	sp,sp,16
    46b8:	8082                	ret
    46ba:	00003797          	auipc	a5,0x3
    46be:	11e78793          	addi	a5,a5,286 # 77d8 <__sf_fake_stdout>
    46c2:	00f41463          	bne	s0,a5,46ca <__swsetup_r+0x6c>
    46c6:	4480                	lw	s0,8(s1)
    46c8:	b7c9                	j	468a <__swsetup_r+0x2c>
    46ca:	00003797          	auipc	a5,0x3
    46ce:	0ce78793          	addi	a5,a5,206 # 7798 <__sf_fake_stderr>
    46d2:	faf41ce3          	bne	s0,a5,468a <__swsetup_r+0x2c>
    46d6:	44c0                	lw	s0,12(s1)
    46d8:	bf4d                	j	468a <__swsetup_r+0x2c>
    46da:	8b91                	andi	a5,a5,4
    46dc:	c39d                	beqz	a5,4702 <__swsetup_r+0xa4>
    46de:	584c                	lw	a1,52(s0)
    46e0:	c989                	beqz	a1,46f2 <__swsetup_r+0x94>
    46e2:	04440793          	addi	a5,s0,68
    46e6:	00f58463          	beq	a1,a5,46ee <__swsetup_r+0x90>
    46ea:	854a                	mv	a0,s2
    46ec:	2b29                	jal	4c06 <_free_r>
    46ee:	02042a23          	sw	zero,52(s0)
    46f2:	245e                	lhu	a5,12(s0)
    46f4:	00042223          	sw	zero,4(s0)
    46f8:	fdb7f793          	andi	a5,a5,-37
    46fc:	a45e                	sh	a5,12(s0)
    46fe:	481c                	lw	a5,16(s0)
    4700:	c01c                	sw	a5,0(s0)
    4702:	245e                	lhu	a5,12(s0)
    4704:	0087e793          	ori	a5,a5,8
    4708:	a45e                	sh	a5,12(s0)
    470a:	481c                	lw	a5,16(s0)
    470c:	eb99                	bnez	a5,4722 <__swsetup_r+0xc4>
    470e:	245e                	lhu	a5,12(s0)
    4710:	20000713          	li	a4,512
    4714:	2807f793          	andi	a5,a5,640
    4718:	00e78563          	beq	a5,a4,4722 <__swsetup_r+0xc4>
    471c:	85a2                	mv	a1,s0
    471e:	854a                	mv	a0,s2
    4720:	2991                	jal	4b74 <__smakebuf_r>
    4722:	245e                	lhu	a5,12(s0)
    4724:	0017f713          	andi	a4,a5,1
    4728:	c31d                	beqz	a4,474e <__swsetup_r+0xf0>
    472a:	485c                	lw	a5,20(s0)
    472c:	00042423          	sw	zero,8(s0)
    4730:	40f007b3          	neg	a5,a5
    4734:	cc1c                	sw	a5,24(s0)
    4736:	481c                	lw	a5,16(s0)
    4738:	4501                	li	a0,0
    473a:	fbb5                	bnez	a5,46ae <__swsetup_r+0x50>
    473c:	00c41783          	lh	a5,12(s0)
    4740:	0807f713          	andi	a4,a5,128
    4744:	d72d                	beqz	a4,46ae <__swsetup_r+0x50>
    4746:	0407e793          	ori	a5,a5,64
    474a:	a45e                	sh	a5,12(s0)
    474c:	b785                	j	46ac <__swsetup_r+0x4e>
    474e:	8b89                	andi	a5,a5,2
    4750:	4701                	li	a4,0
    4752:	e391                	bnez	a5,4756 <__swsetup_r+0xf8>
    4754:	4858                	lw	a4,20(s0)
    4756:	c418                	sw	a4,8(s0)
    4758:	bff9                	j	4736 <__swsetup_r+0xd8>

0000475a <__sflush_r>:
    475a:	25de                	lhu	a5,12(a1)
    475c:	1101                	addi	sp,sp,-32
    475e:	cc22                	sw	s0,24(sp)
    4760:	ca26                	sw	s1,20(sp)
    4762:	ce06                	sw	ra,28(sp)
    4764:	c84a                	sw	s2,16(sp)
    4766:	c64e                	sw	s3,12(sp)
    4768:	0087f713          	andi	a4,a5,8
    476c:	84aa                	mv	s1,a0
    476e:	842e                	mv	s0,a1
    4770:	eb79                	bnez	a4,4846 <__sflush_r+0xec>
    4772:	41d8                	lw	a4,4(a1)
    4774:	00e04d63          	bgtz	a4,478e <__sflush_r+0x34>
    4778:	41b8                	lw	a4,64(a1)
    477a:	00e04a63          	bgtz	a4,478e <__sflush_r+0x34>
    477e:	4501                	li	a0,0
    4780:	40f2                	lw	ra,28(sp)
    4782:	4462                	lw	s0,24(sp)
    4784:	44d2                	lw	s1,20(sp)
    4786:	4942                	lw	s2,16(sp)
    4788:	49b2                	lw	s3,12(sp)
    478a:	6105                	addi	sp,sp,32
    478c:	8082                	ret
    478e:	5458                	lw	a4,44(s0)
    4790:	d77d                	beqz	a4,477e <__sflush_r+0x24>
    4792:	0004a903          	lw	s2,0(s1)
    4796:	01379693          	slli	a3,a5,0x13
    479a:	0004a023          	sw	zero,0(s1)
    479e:	0606db63          	bgez	a3,4814 <__sflush_r+0xba>
    47a2:	4870                	lw	a2,84(s0)
    47a4:	245e                	lhu	a5,12(s0)
    47a6:	8b91                	andi	a5,a5,4
    47a8:	c799                	beqz	a5,47b6 <__sflush_r+0x5c>
    47aa:	405c                	lw	a5,4(s0)
    47ac:	8e1d                	sub	a2,a2,a5
    47ae:	585c                	lw	a5,52(s0)
    47b0:	c399                	beqz	a5,47b6 <__sflush_r+0x5c>
    47b2:	403c                	lw	a5,64(s0)
    47b4:	8e1d                	sub	a2,a2,a5
    47b6:	545c                	lw	a5,44(s0)
    47b8:	500c                	lw	a1,32(s0)
    47ba:	4681                	li	a3,0
    47bc:	8526                	mv	a0,s1
    47be:	9782                	jalr	a5
    47c0:	57fd                	li	a5,-1
    47c2:	245a                	lhu	a4,12(s0)
    47c4:	00f51d63          	bne	a0,a5,47de <__sflush_r+0x84>
    47c8:	4094                	lw	a3,0(s1)
    47ca:	47f5                	li	a5,29
    47cc:	06d7e863          	bltu	a5,a3,483c <__sflush_r+0xe2>
    47d0:	204007b7          	lui	a5,0x20400
    47d4:	0785                	addi	a5,a5,1
    47d6:	00d7d7b3          	srl	a5,a5,a3
    47da:	8b85                	andi	a5,a5,1
    47dc:	c3a5                	beqz	a5,483c <__sflush_r+0xe2>
    47de:	481c                	lw	a5,16(s0)
    47e0:	00042223          	sw	zero,4(s0)
    47e4:	c01c                	sw	a5,0(s0)
    47e6:	01371793          	slli	a5,a4,0x13
    47ea:	0007d863          	bgez	a5,47fa <__sflush_r+0xa0>
    47ee:	57fd                	li	a5,-1
    47f0:	00f51463          	bne	a0,a5,47f8 <__sflush_r+0x9e>
    47f4:	409c                	lw	a5,0(s1)
    47f6:	e391                	bnez	a5,47fa <__sflush_r+0xa0>
    47f8:	c868                	sw	a0,84(s0)
    47fa:	584c                	lw	a1,52(s0)
    47fc:	0124a023          	sw	s2,0(s1)
    4800:	ddbd                	beqz	a1,477e <__sflush_r+0x24>
    4802:	04440793          	addi	a5,s0,68
    4806:	00f58463          	beq	a1,a5,480e <__sflush_r+0xb4>
    480a:	8526                	mv	a0,s1
    480c:	2eed                	jal	4c06 <_free_r>
    480e:	02042a23          	sw	zero,52(s0)
    4812:	b7b5                	j	477e <__sflush_r+0x24>
    4814:	500c                	lw	a1,32(s0)
    4816:	4601                	li	a2,0
    4818:	4685                	li	a3,1
    481a:	8526                	mv	a0,s1
    481c:	9702                	jalr	a4
    481e:	57fd                	li	a5,-1
    4820:	862a                	mv	a2,a0
    4822:	f8f511e3          	bne	a0,a5,47a4 <__sflush_r+0x4a>
    4826:	409c                	lw	a5,0(s1)
    4828:	dfb5                	beqz	a5,47a4 <__sflush_r+0x4a>
    482a:	4775                	li	a4,29
    482c:	00e78563          	beq	a5,a4,4836 <__sflush_r+0xdc>
    4830:	4759                	li	a4,22
    4832:	04e79363          	bne	a5,a4,4878 <__sflush_r+0x11e>
    4836:	0124a023          	sw	s2,0(s1)
    483a:	b791                	j	477e <__sflush_r+0x24>
    483c:	04076713          	ori	a4,a4,64
    4840:	a45a                	sh	a4,12(s0)
    4842:	557d                	li	a0,-1
    4844:	bf35                	j	4780 <__sflush_r+0x26>
    4846:	0105a983          	lw	s3,16(a1)
    484a:	f2098ae3          	beqz	s3,477e <__sflush_r+0x24>
    484e:	0005a903          	lw	s2,0(a1)
    4852:	8b8d                	andi	a5,a5,3
    4854:	0135a023          	sw	s3,0(a1)
    4858:	41390933          	sub	s2,s2,s3
    485c:	4701                	li	a4,0
    485e:	e391                	bnez	a5,4862 <__sflush_r+0x108>
    4860:	49d8                	lw	a4,20(a1)
    4862:	c418                	sw	a4,8(s0)
    4864:	f1205de3          	blez	s2,477e <__sflush_r+0x24>
    4868:	541c                	lw	a5,40(s0)
    486a:	500c                	lw	a1,32(s0)
    486c:	86ca                	mv	a3,s2
    486e:	864e                	mv	a2,s3
    4870:	8526                	mv	a0,s1
    4872:	9782                	jalr	a5
    4874:	00a04763          	bgtz	a0,4882 <__sflush_r+0x128>
    4878:	245e                	lhu	a5,12(s0)
    487a:	0407e793          	ori	a5,a5,64
    487e:	a45e                	sh	a5,12(s0)
    4880:	b7c9                	j	4842 <__sflush_r+0xe8>
    4882:	99aa                	add	s3,s3,a0
    4884:	40a90933          	sub	s2,s2,a0
    4888:	bff1                	j	4864 <__sflush_r+0x10a>

0000488a <_fflush_r>:
    488a:	499c                	lw	a5,16(a1)
    488c:	c3a5                	beqz	a5,48ec <_fflush_r+0x62>
    488e:	1101                	addi	sp,sp,-32
    4890:	cc22                	sw	s0,24(sp)
    4892:	ce06                	sw	ra,28(sp)
    4894:	842a                	mv	s0,a0
    4896:	c511                	beqz	a0,48a2 <_fflush_r+0x18>
    4898:	4d1c                	lw	a5,24(a0)
    489a:	e781                	bnez	a5,48a2 <_fflush_r+0x18>
    489c:	c62e                	sw	a1,12(sp)
    489e:	2221                	jal	49a6 <__sinit>
    48a0:	45b2                	lw	a1,12(sp)
    48a2:	00003797          	auipc	a5,0x3
    48a6:	f1678793          	addi	a5,a5,-234 # 77b8 <__sf_fake_stdin>
    48aa:	00f59c63          	bne	a1,a5,48c2 <_fflush_r+0x38>
    48ae:	404c                	lw	a1,4(s0)
    48b0:	00c59783          	lh	a5,12(a1)
    48b4:	c79d                	beqz	a5,48e2 <_fflush_r+0x58>
    48b6:	8522                	mv	a0,s0
    48b8:	4462                	lw	s0,24(sp)
    48ba:	40f2                	lw	ra,28(sp)
    48bc:	6105                	addi	sp,sp,32
    48be:	e9dff06f          	j	475a <__sflush_r>
    48c2:	00003797          	auipc	a5,0x3
    48c6:	f1678793          	addi	a5,a5,-234 # 77d8 <__sf_fake_stdout>
    48ca:	00f59463          	bne	a1,a5,48d2 <_fflush_r+0x48>
    48ce:	440c                	lw	a1,8(s0)
    48d0:	b7c5                	j	48b0 <_fflush_r+0x26>
    48d2:	00003797          	auipc	a5,0x3
    48d6:	ec678793          	addi	a5,a5,-314 # 7798 <__sf_fake_stderr>
    48da:	fcf59be3          	bne	a1,a5,48b0 <_fflush_r+0x26>
    48de:	444c                	lw	a1,12(s0)
    48e0:	bfc1                	j	48b0 <_fflush_r+0x26>
    48e2:	40f2                	lw	ra,28(sp)
    48e4:	4462                	lw	s0,24(sp)
    48e6:	4501                	li	a0,0
    48e8:	6105                	addi	sp,sp,32
    48ea:	8082                	ret
    48ec:	4501                	li	a0,0
    48ee:	8082                	ret

000048f0 <std>:
    48f0:	1141                	addi	sp,sp,-16
    48f2:	c422                	sw	s0,8(sp)
    48f4:	c606                	sw	ra,12(sp)
    48f6:	842a                	mv	s0,a0
    48f8:	a54e                	sh	a1,12(a0)
    48fa:	a572                	sh	a2,14(a0)
    48fc:	00052023          	sw	zero,0(a0)
    4900:	00052223          	sw	zero,4(a0)
    4904:	00052423          	sw	zero,8(a0)
    4908:	06052223          	sw	zero,100(a0)
    490c:	00052823          	sw	zero,16(a0)
    4910:	00052a23          	sw	zero,20(a0)
    4914:	00052c23          	sw	zero,24(a0)
    4918:	4621                	li	a2,8
    491a:	4581                	li	a1,0
    491c:	05c50513          	addi	a0,a0,92
    4920:	941fb0ef          	jal	ra,260 <memset>
    4924:	00001797          	auipc	a5,0x1
    4928:	b2878793          	addi	a5,a5,-1240 # 544c <__sread>
    492c:	d05c                	sw	a5,36(s0)
    492e:	00001797          	auipc	a5,0x1
    4932:	b4a78793          	addi	a5,a5,-1206 # 5478 <__swrite>
    4936:	d41c                	sw	a5,40(s0)
    4938:	00001797          	auipc	a5,0x1
    493c:	b8878793          	addi	a5,a5,-1144 # 54c0 <__sseek>
    4940:	d45c                	sw	a5,44(s0)
    4942:	00001797          	auipc	a5,0x1
    4946:	bae78793          	addi	a5,a5,-1106 # 54f0 <__sclose>
    494a:	d000                	sw	s0,32(s0)
    494c:	d81c                	sw	a5,48(s0)
    494e:	40b2                	lw	ra,12(sp)
    4950:	4422                	lw	s0,8(sp)
    4952:	0141                	addi	sp,sp,16
    4954:	8082                	ret

00004956 <_cleanup_r>:
    4956:	00000597          	auipc	a1,0x0
    495a:	f3458593          	addi	a1,a1,-204 # 488a <_fflush_r>
    495e:	aa91                	j	4ab2 <_fwalk_reent>

00004960 <__sfmoreglue>:
    4960:	1141                	addi	sp,sp,-16
    4962:	c226                	sw	s1,4(sp)
    4964:	06800613          	li	a2,104
    4968:	fff58493          	addi	s1,a1,-1
    496c:	02c484b3          	mul	s1,s1,a2
    4970:	c04a                	sw	s2,0(sp)
    4972:	892e                	mv	s2,a1
    4974:	c422                	sw	s0,8(sp)
    4976:	c606                	sw	ra,12(sp)
    4978:	07448593          	addi	a1,s1,116
    497c:	2e0d                	jal	4cae <_malloc_r>
    497e:	842a                	mv	s0,a0
    4980:	cd01                	beqz	a0,4998 <__sfmoreglue+0x38>
    4982:	00052023          	sw	zero,0(a0)
    4986:	01252223          	sw	s2,4(a0)
    498a:	0531                	addi	a0,a0,12
    498c:	c408                	sw	a0,8(s0)
    498e:	06848613          	addi	a2,s1,104
    4992:	4581                	li	a1,0
    4994:	8cdfb0ef          	jal	ra,260 <memset>
    4998:	8522                	mv	a0,s0
    499a:	40b2                	lw	ra,12(sp)
    499c:	4422                	lw	s0,8(sp)
    499e:	4492                	lw	s1,4(sp)
    49a0:	4902                	lw	s2,0(sp)
    49a2:	0141                	addi	sp,sp,16
    49a4:	8082                	ret

000049a6 <__sinit>:
    49a6:	4d1c                	lw	a5,24(a0)
    49a8:	e7a5                	bnez	a5,4a10 <__sinit+0x6a>
    49aa:	1141                	addi	sp,sp,-16
    49ac:	c606                	sw	ra,12(sp)
    49ae:	c422                	sw	s0,8(sp)
    49b0:	00000797          	auipc	a5,0x0
    49b4:	fa678793          	addi	a5,a5,-90 # 4956 <_cleanup_r>
    49b8:	d51c                	sw	a5,40(a0)
    49ba:	83418793          	addi	a5,gp,-1996 # 200000b4 <_global_impure_ptr>
    49be:	439c                	lw	a5,0(a5)
    49c0:	04052423          	sw	zero,72(a0)
    49c4:	04052623          	sw	zero,76(a0)
    49c8:	04052823          	sw	zero,80(a0)
    49cc:	00f51463          	bne	a0,a5,49d4 <__sinit+0x2e>
    49d0:	4785                	li	a5,1
    49d2:	cd1c                	sw	a5,24(a0)
    49d4:	842a                	mv	s0,a0
    49d6:	2835                	jal	4a12 <__sfp>
    49d8:	c048                	sw	a0,4(s0)
    49da:	8522                	mv	a0,s0
    49dc:	281d                	jal	4a12 <__sfp>
    49de:	c408                	sw	a0,8(s0)
    49e0:	8522                	mv	a0,s0
    49e2:	2805                	jal	4a12 <__sfp>
    49e4:	c448                	sw	a0,12(s0)
    49e6:	4048                	lw	a0,4(s0)
    49e8:	4601                	li	a2,0
    49ea:	4591                	li	a1,4
    49ec:	f05ff0ef          	jal	ra,48f0 <std>
    49f0:	4408                	lw	a0,8(s0)
    49f2:	4605                	li	a2,1
    49f4:	45a5                	li	a1,9
    49f6:	efbff0ef          	jal	ra,48f0 <std>
    49fa:	4448                	lw	a0,12(s0)
    49fc:	4609                	li	a2,2
    49fe:	45c9                	li	a1,18
    4a00:	ef1ff0ef          	jal	ra,48f0 <std>
    4a04:	4785                	li	a5,1
    4a06:	cc1c                	sw	a5,24(s0)
    4a08:	40b2                	lw	ra,12(sp)
    4a0a:	4422                	lw	s0,8(sp)
    4a0c:	0141                	addi	sp,sp,16
    4a0e:	8082                	ret
    4a10:	8082                	ret

00004a12 <__sfp>:
    4a12:	1141                	addi	sp,sp,-16
    4a14:	83418793          	addi	a5,gp,-1996 # 200000b4 <_global_impure_ptr>
    4a18:	c226                	sw	s1,4(sp)
    4a1a:	4384                	lw	s1,0(a5)
    4a1c:	c04a                	sw	s2,0(sp)
    4a1e:	c606                	sw	ra,12(sp)
    4a20:	4c9c                	lw	a5,24(s1)
    4a22:	c422                	sw	s0,8(sp)
    4a24:	892a                	mv	s2,a0
    4a26:	e781                	bnez	a5,4a2e <__sfp+0x1c>
    4a28:	8526                	mv	a0,s1
    4a2a:	f7dff0ef          	jal	ra,49a6 <__sinit>
    4a2e:	04848493          	addi	s1,s1,72
    4a32:	4480                	lw	s0,8(s1)
    4a34:	40dc                	lw	a5,4(s1)
    4a36:	17fd                	addi	a5,a5,-1
    4a38:	0007d663          	bgez	a5,4a44 <__sfp+0x32>
    4a3c:	409c                	lw	a5,0(s1)
    4a3e:	cfb9                	beqz	a5,4a9c <__sfp+0x8a>
    4a40:	4084                	lw	s1,0(s1)
    4a42:	bfc5                	j	4a32 <__sfp+0x20>
    4a44:	00c41703          	lh	a4,12(s0)
    4a48:	e739                	bnez	a4,4a96 <__sfp+0x84>
    4a4a:	77c1                	lui	a5,0xffff0
    4a4c:	0785                	addi	a5,a5,1
    4a4e:	06042223          	sw	zero,100(s0)
    4a52:	00042023          	sw	zero,0(s0)
    4a56:	00042223          	sw	zero,4(s0)
    4a5a:	00042423          	sw	zero,8(s0)
    4a5e:	c45c                	sw	a5,12(s0)
    4a60:	00042823          	sw	zero,16(s0)
    4a64:	00042a23          	sw	zero,20(s0)
    4a68:	00042c23          	sw	zero,24(s0)
    4a6c:	4621                	li	a2,8
    4a6e:	4581                	li	a1,0
    4a70:	05c40513          	addi	a0,s0,92
    4a74:	fecfb0ef          	jal	ra,260 <memset>
    4a78:	02042a23          	sw	zero,52(s0)
    4a7c:	02042c23          	sw	zero,56(s0)
    4a80:	04042423          	sw	zero,72(s0)
    4a84:	04042623          	sw	zero,76(s0)
    4a88:	8522                	mv	a0,s0
    4a8a:	40b2                	lw	ra,12(sp)
    4a8c:	4422                	lw	s0,8(sp)
    4a8e:	4492                	lw	s1,4(sp)
    4a90:	4902                	lw	s2,0(sp)
    4a92:	0141                	addi	sp,sp,16
    4a94:	8082                	ret
    4a96:	06840413          	addi	s0,s0,104
    4a9a:	bf71                	j	4a36 <__sfp+0x24>
    4a9c:	4591                	li	a1,4
    4a9e:	854a                	mv	a0,s2
    4aa0:	ec1ff0ef          	jal	ra,4960 <__sfmoreglue>
    4aa4:	c088                	sw	a0,0(s1)
    4aa6:	fd49                	bnez	a0,4a40 <__sfp+0x2e>
    4aa8:	47b1                	li	a5,12
    4aaa:	00f92023          	sw	a5,0(s2)
    4aae:	4401                	li	s0,0
    4ab0:	bfe1                	j	4a88 <__sfp+0x76>

00004ab2 <_fwalk_reent>:
    4ab2:	7179                	addi	sp,sp,-48
    4ab4:	d422                	sw	s0,40(sp)
    4ab6:	d04a                	sw	s2,32(sp)
    4ab8:	cc52                	sw	s4,24(sp)
    4aba:	ca56                	sw	s5,20(sp)
    4abc:	c85a                	sw	s6,16(sp)
    4abe:	c65e                	sw	s7,12(sp)
    4ac0:	d606                	sw	ra,44(sp)
    4ac2:	d226                	sw	s1,36(sp)
    4ac4:	ce4e                	sw	s3,28(sp)
    4ac6:	8a2a                	mv	s4,a0
    4ac8:	8aae                	mv	s5,a1
    4aca:	04850413          	addi	s0,a0,72
    4ace:	4901                	li	s2,0
    4ad0:	4b05                	li	s6,1
    4ad2:	5bfd                	li	s7,-1
    4ad4:	ec09                	bnez	s0,4aee <_fwalk_reent+0x3c>
    4ad6:	50b2                	lw	ra,44(sp)
    4ad8:	5422                	lw	s0,40(sp)
    4ada:	854a                	mv	a0,s2
    4adc:	5492                	lw	s1,36(sp)
    4ade:	5902                	lw	s2,32(sp)
    4ae0:	49f2                	lw	s3,28(sp)
    4ae2:	4a62                	lw	s4,24(sp)
    4ae4:	4ad2                	lw	s5,20(sp)
    4ae6:	4b42                	lw	s6,16(sp)
    4ae8:	4bb2                	lw	s7,12(sp)
    4aea:	6145                	addi	sp,sp,48
    4aec:	8082                	ret
    4aee:	4404                	lw	s1,8(s0)
    4af0:	00442983          	lw	s3,4(s0)
    4af4:	19fd                	addi	s3,s3,-1
    4af6:	0009d463          	bgez	s3,4afe <_fwalk_reent+0x4c>
    4afa:	4000                	lw	s0,0(s0)
    4afc:	bfe1                	j	4ad4 <_fwalk_reent+0x22>
    4afe:	24de                	lhu	a5,12(s1)
    4b00:	00fb7b63          	bgeu	s6,a5,4b16 <_fwalk_reent+0x64>
    4b04:	00e49783          	lh	a5,14(s1)
    4b08:	01778763          	beq	a5,s7,4b16 <_fwalk_reent+0x64>
    4b0c:	85a6                	mv	a1,s1
    4b0e:	8552                	mv	a0,s4
    4b10:	9a82                	jalr	s5
    4b12:	00a96933          	or	s2,s2,a0
    4b16:	06848493          	addi	s1,s1,104
    4b1a:	bfe9                	j	4af4 <_fwalk_reent+0x42>

00004b1c <__swhatbuf_r>:
    4b1c:	7119                	addi	sp,sp,-128
    4b1e:	daa6                	sw	s1,116(sp)
    4b20:	84ae                	mv	s1,a1
    4b22:	00e59583          	lh	a1,14(a1)
    4b26:	dca2                	sw	s0,120(sp)
    4b28:	de86                	sw	ra,124(sp)
    4b2a:	8432                	mv	s0,a2
    4b2c:	0005db63          	bgez	a1,4b42 <__swhatbuf_r+0x26>
    4b30:	24de                	lhu	a5,12(s1)
    4b32:	0006a023          	sw	zero,0(a3)
    4b36:	0807f793          	andi	a5,a5,128
    4b3a:	e785                	bnez	a5,4b62 <__swhatbuf_r+0x46>
    4b3c:	40000793          	li	a5,1024
    4b40:	a01d                	j	4b66 <__swhatbuf_r+0x4a>
    4b42:	0830                	addi	a2,sp,24
    4b44:	c636                	sw	a3,12(sp)
    4b46:	207000ef          	jal	ra,554c <_fstat_r>
    4b4a:	46b2                	lw	a3,12(sp)
    4b4c:	fe0542e3          	bltz	a0,4b30 <__swhatbuf_r+0x14>
    4b50:	4772                	lw	a4,28(sp)
    4b52:	67bd                	lui	a5,0xf
    4b54:	8ff9                	and	a5,a5,a4
    4b56:	7779                	lui	a4,0xffffe
    4b58:	97ba                	add	a5,a5,a4
    4b5a:	0017b793          	seqz	a5,a5
    4b5e:	c29c                	sw	a5,0(a3)
    4b60:	bff1                	j	4b3c <__swhatbuf_r+0x20>
    4b62:	04000793          	li	a5,64
    4b66:	c01c                	sw	a5,0(s0)
    4b68:	50f6                	lw	ra,124(sp)
    4b6a:	5466                	lw	s0,120(sp)
    4b6c:	54d6                	lw	s1,116(sp)
    4b6e:	4501                	li	a0,0
    4b70:	6109                	addi	sp,sp,128
    4b72:	8082                	ret

00004b74 <__smakebuf_r>:
    4b74:	25de                	lhu	a5,12(a1)
    4b76:	1101                	addi	sp,sp,-32
    4b78:	cc22                	sw	s0,24(sp)
    4b7a:	ce06                	sw	ra,28(sp)
    4b7c:	ca26                	sw	s1,20(sp)
    4b7e:	c84a                	sw	s2,16(sp)
    4b80:	8b89                	andi	a5,a5,2
    4b82:	842e                	mv	s0,a1
    4b84:	cf89                	beqz	a5,4b9e <__smakebuf_r+0x2a>
    4b86:	04740793          	addi	a5,s0,71
    4b8a:	c01c                	sw	a5,0(s0)
    4b8c:	c81c                	sw	a5,16(s0)
    4b8e:	4785                	li	a5,1
    4b90:	c85c                	sw	a5,20(s0)
    4b92:	40f2                	lw	ra,28(sp)
    4b94:	4462                	lw	s0,24(sp)
    4b96:	44d2                	lw	s1,20(sp)
    4b98:	4942                	lw	s2,16(sp)
    4b9a:	6105                	addi	sp,sp,32
    4b9c:	8082                	ret
    4b9e:	0074                	addi	a3,sp,12
    4ba0:	0030                	addi	a2,sp,8
    4ba2:	84aa                	mv	s1,a0
    4ba4:	f79ff0ef          	jal	ra,4b1c <__swhatbuf_r>
    4ba8:	45a2                	lw	a1,8(sp)
    4baa:	892a                	mv	s2,a0
    4bac:	8526                	mv	a0,s1
    4bae:	2201                	jal	4cae <_malloc_r>
    4bb0:	e919                	bnez	a0,4bc6 <__smakebuf_r+0x52>
    4bb2:	00c41783          	lh	a5,12(s0)
    4bb6:	2007f713          	andi	a4,a5,512
    4bba:	ff61                	bnez	a4,4b92 <__smakebuf_r+0x1e>
    4bbc:	9bf1                	andi	a5,a5,-4
    4bbe:	0027e793          	ori	a5,a5,2
    4bc2:	a45e                	sh	a5,12(s0)
    4bc4:	b7c9                	j	4b86 <__smakebuf_r+0x12>
    4bc6:	00000797          	auipc	a5,0x0
    4bca:	d9078793          	addi	a5,a5,-624 # 4956 <_cleanup_r>
    4bce:	d49c                	sw	a5,40(s1)
    4bd0:	245e                	lhu	a5,12(s0)
    4bd2:	c008                	sw	a0,0(s0)
    4bd4:	c808                	sw	a0,16(s0)
    4bd6:	0807e793          	ori	a5,a5,128
    4bda:	a45e                	sh	a5,12(s0)
    4bdc:	47a2                	lw	a5,8(sp)
    4bde:	c85c                	sw	a5,20(s0)
    4be0:	47b2                	lw	a5,12(sp)
    4be2:	cf81                	beqz	a5,4bfa <__smakebuf_r+0x86>
    4be4:	00e41583          	lh	a1,14(s0)
    4be8:	8526                	mv	a0,s1
    4bea:	18d000ef          	jal	ra,5576 <_isatty_r>
    4bee:	c511                	beqz	a0,4bfa <__smakebuf_r+0x86>
    4bf0:	245e                	lhu	a5,12(s0)
    4bf2:	9bf1                	andi	a5,a5,-4
    4bf4:	0017e793          	ori	a5,a5,1
    4bf8:	a45e                	sh	a5,12(s0)
    4bfa:	245e                	lhu	a5,12(s0)
    4bfc:	00f96933          	or	s2,s2,a5
    4c00:	01241623          	sh	s2,12(s0)
    4c04:	b779                	j	4b92 <__smakebuf_r+0x1e>

00004c06 <_free_r>:
    4c06:	c1dd                	beqz	a1,4cac <_free_r+0xa6>
    4c08:	ffc5a783          	lw	a5,-4(a1)
    4c0c:	1141                	addi	sp,sp,-16
    4c0e:	c422                	sw	s0,8(sp)
    4c10:	c606                	sw	ra,12(sp)
    4c12:	c226                	sw	s1,4(sp)
    4c14:	ffc58413          	addi	s0,a1,-4
    4c18:	0007d363          	bgez	a5,4c1e <_free_r+0x18>
    4c1c:	943e                	add	s0,s0,a5
    4c1e:	84aa                	mv	s1,a0
    4c20:	1c3000ef          	jal	ra,55e2 <__malloc_lock>
    4c24:	88c18793          	addi	a5,gp,-1908 # 2000010c <__malloc_free_list>
    4c28:	439c                	lw	a5,0(a5)
    4c2a:	ef81                	bnez	a5,4c42 <_free_r+0x3c>
    4c2c:	00042223          	sw	zero,4(s0)
    4c30:	8881a623          	sw	s0,-1908(gp) # 2000010c <__malloc_free_list>
    4c34:	4422                	lw	s0,8(sp)
    4c36:	40b2                	lw	ra,12(sp)
    4c38:	8526                	mv	a0,s1
    4c3a:	4492                	lw	s1,4(sp)
    4c3c:	0141                	addi	sp,sp,16
    4c3e:	1a70006f          	j	55e4 <__malloc_unlock>
    4c42:	00f47e63          	bgeu	s0,a5,4c5e <_free_r+0x58>
    4c46:	4014                	lw	a3,0(s0)
    4c48:	00d40733          	add	a4,s0,a3
    4c4c:	00e79663          	bne	a5,a4,4c58 <_free_r+0x52>
    4c50:	4398                	lw	a4,0(a5)
    4c52:	43dc                	lw	a5,4(a5)
    4c54:	9736                	add	a4,a4,a3
    4c56:	c018                	sw	a4,0(s0)
    4c58:	c05c                	sw	a5,4(s0)
    4c5a:	bfd9                	j	4c30 <_free_r+0x2a>
    4c5c:	87ba                	mv	a5,a4
    4c5e:	43d8                	lw	a4,4(a5)
    4c60:	c319                	beqz	a4,4c66 <_free_r+0x60>
    4c62:	fee47de3          	bgeu	s0,a4,4c5c <_free_r+0x56>
    4c66:	4394                	lw	a3,0(a5)
    4c68:	00d78633          	add	a2,a5,a3
    4c6c:	00861f63          	bne	a2,s0,4c8a <_free_r+0x84>
    4c70:	4010                	lw	a2,0(s0)
    4c72:	96b2                	add	a3,a3,a2
    4c74:	c394                	sw	a3,0(a5)
    4c76:	00d78633          	add	a2,a5,a3
    4c7a:	fac71de3          	bne	a4,a2,4c34 <_free_r+0x2e>
    4c7e:	4310                	lw	a2,0(a4)
    4c80:	4358                	lw	a4,4(a4)
    4c82:	96b2                	add	a3,a3,a2
    4c84:	c394                	sw	a3,0(a5)
    4c86:	c3d8                	sw	a4,4(a5)
    4c88:	b775                	j	4c34 <_free_r+0x2e>
    4c8a:	00c47563          	bgeu	s0,a2,4c94 <_free_r+0x8e>
    4c8e:	47b1                	li	a5,12
    4c90:	c09c                	sw	a5,0(s1)
    4c92:	b74d                	j	4c34 <_free_r+0x2e>
    4c94:	4010                	lw	a2,0(s0)
    4c96:	00c406b3          	add	a3,s0,a2
    4c9a:	00d71663          	bne	a4,a3,4ca6 <_free_r+0xa0>
    4c9e:	4314                	lw	a3,0(a4)
    4ca0:	4358                	lw	a4,4(a4)
    4ca2:	96b2                	add	a3,a3,a2
    4ca4:	c014                	sw	a3,0(s0)
    4ca6:	c058                	sw	a4,4(s0)
    4ca8:	c3c0                	sw	s0,4(a5)
    4caa:	b769                	j	4c34 <_free_r+0x2e>
    4cac:	8082                	ret

00004cae <_malloc_r>:
    4cae:	1101                	addi	sp,sp,-32
    4cb0:	ca26                	sw	s1,20(sp)
    4cb2:	00358493          	addi	s1,a1,3
    4cb6:	98f1                	andi	s1,s1,-4
    4cb8:	ce06                	sw	ra,28(sp)
    4cba:	cc22                	sw	s0,24(sp)
    4cbc:	c84a                	sw	s2,16(sp)
    4cbe:	c64e                	sw	s3,12(sp)
    4cc0:	04a1                	addi	s1,s1,8
    4cc2:	47b1                	li	a5,12
    4cc4:	04f4f363          	bgeu	s1,a5,4d0a <_malloc_r+0x5c>
    4cc8:	44b1                	li	s1,12
    4cca:	04b4e263          	bltu	s1,a1,4d0e <_malloc_r+0x60>
    4cce:	892a                	mv	s2,a0
    4cd0:	113000ef          	jal	ra,55e2 <__malloc_lock>
    4cd4:	88c18793          	addi	a5,gp,-1908 # 2000010c <__malloc_free_list>
    4cd8:	4398                	lw	a4,0(a5)
    4cda:	843a                	mv	s0,a4
    4cdc:	e039                	bnez	s0,4d22 <_malloc_r+0x74>
    4cde:	89018793          	addi	a5,gp,-1904 # 20000110 <__malloc_sbrk_start>
    4ce2:	439c                	lw	a5,0(a5)
    4ce4:	e791                	bnez	a5,4cf0 <_malloc_r+0x42>
    4ce6:	4581                	li	a1,0
    4ce8:	854a                	mv	a0,s2
    4cea:	2f25                	jal	5422 <_sbrk_r>
    4cec:	88a1a823          	sw	a0,-1904(gp) # 20000110 <__malloc_sbrk_start>
    4cf0:	85a6                	mv	a1,s1
    4cf2:	854a                	mv	a0,s2
    4cf4:	273d                	jal	5422 <_sbrk_r>
    4cf6:	59fd                	li	s3,-1
    4cf8:	07351963          	bne	a0,s3,4d6a <_malloc_r+0xbc>
    4cfc:	47b1                	li	a5,12
    4cfe:	00f92023          	sw	a5,0(s2)
    4d02:	854a                	mv	a0,s2
    4d04:	0e1000ef          	jal	ra,55e4 <__malloc_unlock>
    4d08:	a029                	j	4d12 <_malloc_r+0x64>
    4d0a:	fc04d0e3          	bgez	s1,4cca <_malloc_r+0x1c>
    4d0e:	47b1                	li	a5,12
    4d10:	c11c                	sw	a5,0(a0)
    4d12:	4501                	li	a0,0
    4d14:	40f2                	lw	ra,28(sp)
    4d16:	4462                	lw	s0,24(sp)
    4d18:	44d2                	lw	s1,20(sp)
    4d1a:	4942                	lw	s2,16(sp)
    4d1c:	49b2                	lw	s3,12(sp)
    4d1e:	6105                	addi	sp,sp,32
    4d20:	8082                	ret
    4d22:	401c                	lw	a5,0(s0)
    4d24:	8f85                	sub	a5,a5,s1
    4d26:	0207cf63          	bltz	a5,4d64 <_malloc_r+0xb6>
    4d2a:	46ad                	li	a3,11
    4d2c:	00f6f663          	bgeu	a3,a5,4d38 <_malloc_r+0x8a>
    4d30:	c01c                	sw	a5,0(s0)
    4d32:	943e                	add	s0,s0,a5
    4d34:	c004                	sw	s1,0(s0)
    4d36:	a031                	j	4d42 <_malloc_r+0x94>
    4d38:	405c                	lw	a5,4(s0)
    4d3a:	02871363          	bne	a4,s0,4d60 <_malloc_r+0xb2>
    4d3e:	88f1a623          	sw	a5,-1908(gp) # 2000010c <__malloc_free_list>
    4d42:	854a                	mv	a0,s2
    4d44:	0a1000ef          	jal	ra,55e4 <__malloc_unlock>
    4d48:	00b40513          	addi	a0,s0,11
    4d4c:	00440793          	addi	a5,s0,4
    4d50:	9961                	andi	a0,a0,-8
    4d52:	40f50733          	sub	a4,a0,a5
    4d56:	df5d                	beqz	a4,4d14 <_malloc_r+0x66>
    4d58:	943a                	add	s0,s0,a4
    4d5a:	8f89                	sub	a5,a5,a0
    4d5c:	c01c                	sw	a5,0(s0)
    4d5e:	bf5d                	j	4d14 <_malloc_r+0x66>
    4d60:	c35c                	sw	a5,4(a4)
    4d62:	b7c5                	j	4d42 <_malloc_r+0x94>
    4d64:	8722                	mv	a4,s0
    4d66:	4040                	lw	s0,4(s0)
    4d68:	bf95                	j	4cdc <_malloc_r+0x2e>
    4d6a:	00350413          	addi	s0,a0,3
    4d6e:	9871                	andi	s0,s0,-4
    4d70:	fc8502e3          	beq	a0,s0,4d34 <_malloc_r+0x86>
    4d74:	40a405b3          	sub	a1,s0,a0
    4d78:	854a                	mv	a0,s2
    4d7a:	2565                	jal	5422 <_sbrk_r>
    4d7c:	fb351ce3          	bne	a0,s3,4d34 <_malloc_r+0x86>
    4d80:	bfb5                	j	4cfc <_malloc_r+0x4e>

00004d82 <__sfputc_r>:
    4d82:	461c                	lw	a5,8(a2)
    4d84:	17fd                	addi	a5,a5,-1
    4d86:	c61c                	sw	a5,8(a2)
    4d88:	0007da63          	bgez	a5,4d9c <__sfputc_r+0x1a>
    4d8c:	4e18                	lw	a4,24(a2)
    4d8e:	00e7c563          	blt	a5,a4,4d98 <__sfputc_r+0x16>
    4d92:	47a9                	li	a5,10
    4d94:	00f59463          	bne	a1,a5,4d9c <__sfputc_r+0x1a>
    4d98:	80bff06f          	j	45a2 <__swbuf_r>
    4d9c:	421c                	lw	a5,0(a2)
    4d9e:	852e                	mv	a0,a1
    4da0:	00178713          	addi	a4,a5,1
    4da4:	c218                	sw	a4,0(a2)
    4da6:	a38c                	sb	a1,0(a5)
    4da8:	8082                	ret

00004daa <__sfputs_r>:
    4daa:	1101                	addi	sp,sp,-32
    4dac:	cc22                	sw	s0,24(sp)
    4dae:	ca26                	sw	s1,20(sp)
    4db0:	c84a                	sw	s2,16(sp)
    4db2:	c64e                	sw	s3,12(sp)
    4db4:	c452                	sw	s4,8(sp)
    4db6:	ce06                	sw	ra,28(sp)
    4db8:	892a                	mv	s2,a0
    4dba:	89ae                	mv	s3,a1
    4dbc:	8432                	mv	s0,a2
    4dbe:	00d604b3          	add	s1,a2,a3
    4dc2:	5a7d                	li	s4,-1
    4dc4:	00941463          	bne	s0,s1,4dcc <__sfputs_r+0x22>
    4dc8:	4501                	li	a0,0
    4dca:	a809                	j	4ddc <__sfputs_r+0x32>
    4dcc:	200c                	lbu	a1,0(s0)
    4dce:	864e                	mv	a2,s3
    4dd0:	854a                	mv	a0,s2
    4dd2:	fb1ff0ef          	jal	ra,4d82 <__sfputc_r>
    4dd6:	0405                	addi	s0,s0,1
    4dd8:	ff4516e3          	bne	a0,s4,4dc4 <__sfputs_r+0x1a>
    4ddc:	40f2                	lw	ra,28(sp)
    4dde:	4462                	lw	s0,24(sp)
    4de0:	44d2                	lw	s1,20(sp)
    4de2:	4942                	lw	s2,16(sp)
    4de4:	49b2                	lw	s3,12(sp)
    4de6:	4a22                	lw	s4,8(sp)
    4de8:	6105                	addi	sp,sp,32
    4dea:	8082                	ret

00004dec <_vfiprintf_r>:
    4dec:	7135                	addi	sp,sp,-160
    4dee:	cd22                	sw	s0,152(sp)
    4df0:	cb26                	sw	s1,148(sp)
    4df2:	c94a                	sw	s2,144(sp)
    4df4:	c74e                	sw	s3,140(sp)
    4df6:	cf06                	sw	ra,156(sp)
    4df8:	c552                	sw	s4,136(sp)
    4dfa:	c356                	sw	s5,132(sp)
    4dfc:	c15a                	sw	s6,128(sp)
    4dfe:	dede                	sw	s7,124(sp)
    4e00:	dce2                	sw	s8,120(sp)
    4e02:	dae6                	sw	s9,116(sp)
    4e04:	89aa                	mv	s3,a0
    4e06:	84ae                	mv	s1,a1
    4e08:	8932                	mv	s2,a2
    4e0a:	8436                	mv	s0,a3
    4e0c:	c509                	beqz	a0,4e16 <_vfiprintf_r+0x2a>
    4e0e:	4d1c                	lw	a5,24(a0)
    4e10:	e399                	bnez	a5,4e16 <_vfiprintf_r+0x2a>
    4e12:	b95ff0ef          	jal	ra,49a6 <__sinit>
    4e16:	00003797          	auipc	a5,0x3
    4e1a:	9a278793          	addi	a5,a5,-1630 # 77b8 <__sf_fake_stdin>
    4e1e:	0cf49863          	bne	s1,a5,4eee <_vfiprintf_r+0x102>
    4e22:	0049a483          	lw	s1,4(s3)
    4e26:	24de                	lhu	a5,12(s1)
    4e28:	8ba1                	andi	a5,a5,8
    4e2a:	c7e5                	beqz	a5,4f12 <_vfiprintf_r+0x126>
    4e2c:	489c                	lw	a5,16(s1)
    4e2e:	c3f5                	beqz	a5,4f12 <_vfiprintf_r+0x126>
    4e30:	02000793          	li	a5,32
    4e34:	02f104a3          	sb	a5,41(sp)
    4e38:	03000793          	li	a5,48
    4e3c:	d202                	sw	zero,36(sp)
    4e3e:	02f10523          	sb	a5,42(sp)
    4e42:	c622                	sw	s0,12(sp)
    4e44:	02500b93          	li	s7,37
    4e48:	00003a97          	auipc	s5,0x3
    4e4c:	9b0a8a93          	addi	s5,s5,-1616 # 77f8 <__sf_fake_stdout+0x20>
    4e50:	4c05                	li	s8,1
    4e52:	4b29                	li	s6,10
    4e54:	844a                	mv	s0,s2
    4e56:	201c                	lbu	a5,0(s0)
    4e58:	c399                	beqz	a5,4e5e <_vfiprintf_r+0x72>
    4e5a:	0d779f63          	bne	a5,s7,4f38 <_vfiprintf_r+0x14c>
    4e5e:	41240cb3          	sub	s9,s0,s2
    4e62:	000c8e63          	beqz	s9,4e7e <_vfiprintf_r+0x92>
    4e66:	86e6                	mv	a3,s9
    4e68:	864a                	mv	a2,s2
    4e6a:	85a6                	mv	a1,s1
    4e6c:	854e                	mv	a0,s3
    4e6e:	f3dff0ef          	jal	ra,4daa <__sfputs_r>
    4e72:	57fd                	li	a5,-1
    4e74:	1cf50f63          	beq	a0,a5,5052 <_vfiprintf_r+0x266>
    4e78:	5692                	lw	a3,36(sp)
    4e7a:	96e6                	add	a3,a3,s9
    4e7c:	d236                	sw	a3,36(sp)
    4e7e:	201c                	lbu	a5,0(s0)
    4e80:	1c078963          	beqz	a5,5052 <_vfiprintf_r+0x266>
    4e84:	57fd                	li	a5,-1
    4e86:	00140913          	addi	s2,s0,1
    4e8a:	c802                	sw	zero,16(sp)
    4e8c:	ce02                	sw	zero,28(sp)
    4e8e:	ca3e                	sw	a5,20(sp)
    4e90:	cc02                	sw	zero,24(sp)
    4e92:	040109a3          	sb	zero,83(sp)
    4e96:	d482                	sw	zero,104(sp)
    4e98:	00094583          	lbu	a1,0(s2)
    4e9c:	4615                	li	a2,5
    4e9e:	8556                	mv	a0,s5
    4ea0:	272d                	jal	55ca <memchr>
    4ea2:	00190413          	addi	s0,s2,1
    4ea6:	47c2                	lw	a5,16(sp)
    4ea8:	e951                	bnez	a0,4f3c <_vfiprintf_r+0x150>
    4eaa:	0107f713          	andi	a4,a5,16
    4eae:	c709                	beqz	a4,4eb8 <_vfiprintf_r+0xcc>
    4eb0:	02000713          	li	a4,32
    4eb4:	04e109a3          	sb	a4,83(sp)
    4eb8:	0087f713          	andi	a4,a5,8
    4ebc:	c709                	beqz	a4,4ec6 <_vfiprintf_r+0xda>
    4ebe:	02b00713          	li	a4,43
    4ec2:	04e109a3          	sb	a4,83(sp)
    4ec6:	00094683          	lbu	a3,0(s2)
    4eca:	02a00713          	li	a4,42
    4ece:	06e68f63          	beq	a3,a4,4f4c <_vfiprintf_r+0x160>
    4ed2:	47f2                	lw	a5,28(sp)
    4ed4:	844a                	mv	s0,s2
    4ed6:	4681                	li	a3,0
    4ed8:	4625                	li	a2,9
    4eda:	2018                	lbu	a4,0(s0)
    4edc:	00140593          	addi	a1,s0,1
    4ee0:	fd070713          	addi	a4,a4,-48 # ffffdfd0 <_eusrstack+0xdfff5fd0>
    4ee4:	0ae67763          	bgeu	a2,a4,4f92 <_vfiprintf_r+0x1a6>
    4ee8:	cab5                	beqz	a3,4f5c <_vfiprintf_r+0x170>
    4eea:	ce3e                	sw	a5,28(sp)
    4eec:	a885                	j	4f5c <_vfiprintf_r+0x170>
    4eee:	00003797          	auipc	a5,0x3
    4ef2:	8ea78793          	addi	a5,a5,-1814 # 77d8 <__sf_fake_stdout>
    4ef6:	00f49563          	bne	s1,a5,4f00 <_vfiprintf_r+0x114>
    4efa:	0089a483          	lw	s1,8(s3)
    4efe:	b725                	j	4e26 <_vfiprintf_r+0x3a>
    4f00:	00003797          	auipc	a5,0x3
    4f04:	89878793          	addi	a5,a5,-1896 # 7798 <__sf_fake_stderr>
    4f08:	f0f49fe3          	bne	s1,a5,4e26 <_vfiprintf_r+0x3a>
    4f0c:	00c9a483          	lw	s1,12(s3)
    4f10:	bf19                	j	4e26 <_vfiprintf_r+0x3a>
    4f12:	85a6                	mv	a1,s1
    4f14:	854e                	mv	a0,s3
    4f16:	f48ff0ef          	jal	ra,465e <__swsetup_r>
    4f1a:	d919                	beqz	a0,4e30 <_vfiprintf_r+0x44>
    4f1c:	557d                	li	a0,-1
    4f1e:	40fa                	lw	ra,156(sp)
    4f20:	446a                	lw	s0,152(sp)
    4f22:	44da                	lw	s1,148(sp)
    4f24:	494a                	lw	s2,144(sp)
    4f26:	49ba                	lw	s3,140(sp)
    4f28:	4a2a                	lw	s4,136(sp)
    4f2a:	4a9a                	lw	s5,132(sp)
    4f2c:	4b0a                	lw	s6,128(sp)
    4f2e:	5bf6                	lw	s7,124(sp)
    4f30:	5c66                	lw	s8,120(sp)
    4f32:	5cd6                	lw	s9,116(sp)
    4f34:	610d                	addi	sp,sp,160
    4f36:	8082                	ret
    4f38:	0405                	addi	s0,s0,1
    4f3a:	bf31                	j	4e56 <_vfiprintf_r+0x6a>
    4f3c:	41550533          	sub	a0,a0,s5
    4f40:	00ac1533          	sll	a0,s8,a0
    4f44:	8fc9                	or	a5,a5,a0
    4f46:	c83e                	sw	a5,16(sp)
    4f48:	8922                	mv	s2,s0
    4f4a:	b7b9                	j	4e98 <_vfiprintf_r+0xac>
    4f4c:	4732                	lw	a4,12(sp)
    4f4e:	00470693          	addi	a3,a4,4
    4f52:	4318                	lw	a4,0(a4)
    4f54:	c636                	sw	a3,12(sp)
    4f56:	02074763          	bltz	a4,4f84 <_vfiprintf_r+0x198>
    4f5a:	ce3a                	sw	a4,28(sp)
    4f5c:	2018                	lbu	a4,0(s0)
    4f5e:	02e00793          	li	a5,46
    4f62:	04f71d63          	bne	a4,a5,4fbc <_vfiprintf_r+0x1d0>
    4f66:	3018                	lbu	a4,1(s0)
    4f68:	02a00793          	li	a5,42
    4f6c:	02f71b63          	bne	a4,a5,4fa2 <_vfiprintf_r+0x1b6>
    4f70:	47b2                	lw	a5,12(sp)
    4f72:	0409                	addi	s0,s0,2
    4f74:	00478713          	addi	a4,a5,4
    4f78:	439c                	lw	a5,0(a5)
    4f7a:	c63a                	sw	a4,12(sp)
    4f7c:	0207c163          	bltz	a5,4f9e <_vfiprintf_r+0x1b2>
    4f80:	ca3e                	sw	a5,20(sp)
    4f82:	a82d                	j	4fbc <_vfiprintf_r+0x1d0>
    4f84:	40e00733          	neg	a4,a4
    4f88:	0027e793          	ori	a5,a5,2
    4f8c:	ce3a                	sw	a4,28(sp)
    4f8e:	c83e                	sw	a5,16(sp)
    4f90:	b7f1                	j	4f5c <_vfiprintf_r+0x170>
    4f92:	036787b3          	mul	a5,a5,s6
    4f96:	4685                	li	a3,1
    4f98:	842e                	mv	s0,a1
    4f9a:	97ba                	add	a5,a5,a4
    4f9c:	bf3d                	j	4eda <_vfiprintf_r+0xee>
    4f9e:	57fd                	li	a5,-1
    4fa0:	b7c5                	j	4f80 <_vfiprintf_r+0x194>
    4fa2:	0405                	addi	s0,s0,1
    4fa4:	ca02                	sw	zero,20(sp)
    4fa6:	4681                	li	a3,0
    4fa8:	4781                	li	a5,0
    4faa:	4625                	li	a2,9
    4fac:	2018                	lbu	a4,0(s0)
    4fae:	00140593          	addi	a1,s0,1
    4fb2:	fd070713          	addi	a4,a4,-48
    4fb6:	06e67463          	bgeu	a2,a4,501e <_vfiprintf_r+0x232>
    4fba:	f2f9                	bnez	a3,4f80 <_vfiprintf_r+0x194>
    4fbc:	200c                	lbu	a1,0(s0)
    4fbe:	460d                	li	a2,3
    4fc0:	00003517          	auipc	a0,0x3
    4fc4:	84050513          	addi	a0,a0,-1984 # 7800 <__sf_fake_stdout+0x28>
    4fc8:	2509                	jal	55ca <memchr>
    4fca:	cd11                	beqz	a0,4fe6 <_vfiprintf_r+0x1fa>
    4fcc:	00003797          	auipc	a5,0x3
    4fd0:	83478793          	addi	a5,a5,-1996 # 7800 <__sf_fake_stdout+0x28>
    4fd4:	8d1d                	sub	a0,a0,a5
    4fd6:	04000793          	li	a5,64
    4fda:	00a797b3          	sll	a5,a5,a0
    4fde:	4542                	lw	a0,16(sp)
    4fe0:	0405                	addi	s0,s0,1
    4fe2:	8d5d                	or	a0,a0,a5
    4fe4:	c82a                	sw	a0,16(sp)
    4fe6:	200c                	lbu	a1,0(s0)
    4fe8:	4619                	li	a2,6
    4fea:	00003517          	auipc	a0,0x3
    4fee:	81a50513          	addi	a0,a0,-2022 # 7804 <__sf_fake_stdout+0x2c>
    4ff2:	00140913          	addi	s2,s0,1
    4ff6:	02b10423          	sb	a1,40(sp)
    4ffa:	2bc1                	jal	55ca <memchr>
    4ffc:	c135                	beqz	a0,5060 <_vfiprintf_r+0x274>
    4ffe:	ffffb797          	auipc	a5,0xffffb
    5002:	00278793          	addi	a5,a5,2 # 0 <_sinit>
    5006:	e795                	bnez	a5,5032 <_vfiprintf_r+0x246>
    5008:	4742                	lw	a4,16(sp)
    500a:	47b2                	lw	a5,12(sp)
    500c:	10077713          	andi	a4,a4,256
    5010:	cf09                	beqz	a4,502a <_vfiprintf_r+0x23e>
    5012:	0791                	addi	a5,a5,4
    5014:	c63e                	sw	a5,12(sp)
    5016:	5792                	lw	a5,36(sp)
    5018:	97d2                	add	a5,a5,s4
    501a:	d23e                	sw	a5,36(sp)
    501c:	bd25                	j	4e54 <_vfiprintf_r+0x68>
    501e:	036787b3          	mul	a5,a5,s6
    5022:	4685                	li	a3,1
    5024:	842e                	mv	s0,a1
    5026:	97ba                	add	a5,a5,a4
    5028:	b751                	j	4fac <_vfiprintf_r+0x1c0>
    502a:	079d                	addi	a5,a5,7
    502c:	9be1                	andi	a5,a5,-8
    502e:	07a1                	addi	a5,a5,8
    5030:	b7d5                	j	5014 <_vfiprintf_r+0x228>
    5032:	0078                	addi	a4,sp,12
    5034:	00000697          	auipc	a3,0x0
    5038:	d7668693          	addi	a3,a3,-650 # 4daa <__sfputs_r>
    503c:	8626                	mv	a2,s1
    503e:	080c                	addi	a1,sp,16
    5040:	854e                	mv	a0,s3
    5042:	00000097          	auipc	ra,0x0
    5046:	000000e7          	jalr	zero # 0 <_sinit>
    504a:	57fd                	li	a5,-1
    504c:	8a2a                	mv	s4,a0
    504e:	fcf514e3          	bne	a0,a5,5016 <_vfiprintf_r+0x22a>
    5052:	24de                	lhu	a5,12(s1)
    5054:	0407f793          	andi	a5,a5,64
    5058:	ec0792e3          	bnez	a5,4f1c <_vfiprintf_r+0x130>
    505c:	5512                	lw	a0,36(sp)
    505e:	b5c1                	j	4f1e <_vfiprintf_r+0x132>
    5060:	0078                	addi	a4,sp,12
    5062:	00000697          	auipc	a3,0x0
    5066:	d4868693          	addi	a3,a3,-696 # 4daa <__sfputs_r>
    506a:	8626                	mv	a2,s1
    506c:	080c                	addi	a1,sp,16
    506e:	854e                	mv	a0,s3
    5070:	2a01                	jal	5180 <_printf_i>
    5072:	bfe1                	j	504a <_vfiprintf_r+0x25e>

00005074 <_printf_common>:
    5074:	7179                	addi	sp,sp,-48
    5076:	ca56                	sw	s5,20(sp)
    5078:	499c                	lw	a5,16(a1)
    507a:	8aba                	mv	s5,a4
    507c:	4598                	lw	a4,8(a1)
    507e:	d422                	sw	s0,40(sp)
    5080:	d226                	sw	s1,36(sp)
    5082:	ce4e                	sw	s3,28(sp)
    5084:	cc52                	sw	s4,24(sp)
    5086:	d606                	sw	ra,44(sp)
    5088:	d04a                	sw	s2,32(sp)
    508a:	c85a                	sw	s6,16(sp)
    508c:	c65e                	sw	s7,12(sp)
    508e:	89aa                	mv	s3,a0
    5090:	842e                	mv	s0,a1
    5092:	84b2                	mv	s1,a2
    5094:	8a36                	mv	s4,a3
    5096:	00e7d363          	bge	a5,a4,509c <_printf_common+0x28>
    509a:	87ba                	mv	a5,a4
    509c:	c09c                	sw	a5,0(s1)
    509e:	04344703          	lbu	a4,67(s0)
    50a2:	c319                	beqz	a4,50a8 <_printf_common+0x34>
    50a4:	0785                	addi	a5,a5,1
    50a6:	c09c                	sw	a5,0(s1)
    50a8:	401c                	lw	a5,0(s0)
    50aa:	0207f793          	andi	a5,a5,32
    50ae:	c781                	beqz	a5,50b6 <_printf_common+0x42>
    50b0:	409c                	lw	a5,0(s1)
    50b2:	0789                	addi	a5,a5,2
    50b4:	c09c                	sw	a5,0(s1)
    50b6:	00042903          	lw	s2,0(s0)
    50ba:	00697913          	andi	s2,s2,6
    50be:	00091a63          	bnez	s2,50d2 <_printf_common+0x5e>
    50c2:	01940b13          	addi	s6,s0,25
    50c6:	5bfd                	li	s7,-1
    50c8:	445c                	lw	a5,12(s0)
    50ca:	4098                	lw	a4,0(s1)
    50cc:	8f99                	sub	a5,a5,a4
    50ce:	04f94c63          	blt	s2,a5,5126 <_printf_common+0xb2>
    50d2:	401c                	lw	a5,0(s0)
    50d4:	04344683          	lbu	a3,67(s0)
    50d8:	0207f793          	andi	a5,a5,32
    50dc:	00d036b3          	snez	a3,a3
    50e0:	eba5                	bnez	a5,5150 <_printf_common+0xdc>
    50e2:	04340613          	addi	a2,s0,67
    50e6:	85d2                	mv	a1,s4
    50e8:	854e                	mv	a0,s3
    50ea:	9a82                	jalr	s5
    50ec:	57fd                	li	a5,-1
    50ee:	04f50363          	beq	a0,a5,5134 <_printf_common+0xc0>
    50f2:	401c                	lw	a5,0(s0)
    50f4:	4611                	li	a2,4
    50f6:	4098                	lw	a4,0(s1)
    50f8:	8b99                	andi	a5,a5,6
    50fa:	4454                	lw	a3,12(s0)
    50fc:	4481                	li	s1,0
    50fe:	00c79763          	bne	a5,a2,510c <_printf_common+0x98>
    5102:	40e684b3          	sub	s1,a3,a4
    5106:	0004d363          	bgez	s1,510c <_printf_common+0x98>
    510a:	4481                	li	s1,0
    510c:	441c                	lw	a5,8(s0)
    510e:	4818                	lw	a4,16(s0)
    5110:	00f75463          	bge	a4,a5,5118 <_printf_common+0xa4>
    5114:	8f99                	sub	a5,a5,a4
    5116:	94be                	add	s1,s1,a5
    5118:	4901                	li	s2,0
    511a:	0469                	addi	s0,s0,26
    511c:	5b7d                	li	s6,-1
    511e:	05249863          	bne	s1,s2,516e <_printf_common+0xfa>
    5122:	4501                	li	a0,0
    5124:	a809                	j	5136 <_printf_common+0xc2>
    5126:	4685                	li	a3,1
    5128:	865a                	mv	a2,s6
    512a:	85d2                	mv	a1,s4
    512c:	854e                	mv	a0,s3
    512e:	9a82                	jalr	s5
    5130:	01751e63          	bne	a0,s7,514c <_printf_common+0xd8>
    5134:	557d                	li	a0,-1
    5136:	50b2                	lw	ra,44(sp)
    5138:	5422                	lw	s0,40(sp)
    513a:	5492                	lw	s1,36(sp)
    513c:	5902                	lw	s2,32(sp)
    513e:	49f2                	lw	s3,28(sp)
    5140:	4a62                	lw	s4,24(sp)
    5142:	4ad2                	lw	s5,20(sp)
    5144:	4b42                	lw	s6,16(sp)
    5146:	4bb2                	lw	s7,12(sp)
    5148:	6145                	addi	sp,sp,48
    514a:	8082                	ret
    514c:	0905                	addi	s2,s2,1
    514e:	bfad                	j	50c8 <_printf_common+0x54>
    5150:	00d40733          	add	a4,s0,a3
    5154:	03000613          	li	a2,48
    5158:	04c701a3          	sb	a2,67(a4)
    515c:	04544703          	lbu	a4,69(s0)
    5160:	00168793          	addi	a5,a3,1
    5164:	97a2                	add	a5,a5,s0
    5166:	0689                	addi	a3,a3,2
    5168:	04e781a3          	sb	a4,67(a5)
    516c:	bf9d                	j	50e2 <_printf_common+0x6e>
    516e:	4685                	li	a3,1
    5170:	8622                	mv	a2,s0
    5172:	85d2                	mv	a1,s4
    5174:	854e                	mv	a0,s3
    5176:	9a82                	jalr	s5
    5178:	fb650ee3          	beq	a0,s6,5134 <_printf_common+0xc0>
    517c:	0905                	addi	s2,s2,1
    517e:	b745                	j	511e <_printf_common+0xaa>

00005180 <_printf_i>:
    5180:	7179                	addi	sp,sp,-48
    5182:	d422                	sw	s0,40(sp)
    5184:	d226                	sw	s1,36(sp)
    5186:	d04a                	sw	s2,32(sp)
    5188:	ce4e                	sw	s3,28(sp)
    518a:	d606                	sw	ra,44(sp)
    518c:	cc52                	sw	s4,24(sp)
    518e:	ca56                	sw	s5,20(sp)
    5190:	c85a                	sw	s6,16(sp)
    5192:	89b6                	mv	s3,a3
    5194:	2d94                	lbu	a3,24(a1)
    5196:	06900793          	li	a5,105
    519a:	8932                	mv	s2,a2
    519c:	84aa                	mv	s1,a0
    519e:	842e                	mv	s0,a1
    51a0:	04358613          	addi	a2,a1,67
    51a4:	02f68d63          	beq	a3,a5,51de <_printf_i+0x5e>
    51a8:	06d7e263          	bltu	a5,a3,520c <_printf_i+0x8c>
    51ac:	05800793          	li	a5,88
    51b0:	18f68663          	beq	a3,a5,533c <_printf_i+0x1bc>
    51b4:	00d7ed63          	bltu	a5,a3,51ce <_printf_i+0x4e>
    51b8:	20068e63          	beqz	a3,53d4 <_printf_i+0x254>
    51bc:	04300793          	li	a5,67
    51c0:	0af68e63          	beq	a3,a5,527c <_printf_i+0xfc>
    51c4:	04240a93          	addi	s5,s0,66
    51c8:	04d40123          	sb	a3,66(s0)
    51cc:	a0c9                	j	528e <_printf_i+0x10e>
    51ce:	06300793          	li	a5,99
    51d2:	0af68563          	beq	a3,a5,527c <_printf_i+0xfc>
    51d6:	06400793          	li	a5,100
    51da:	fef695e3          	bne	a3,a5,51c4 <_printf_i+0x44>
    51de:	401c                	lw	a5,0(s0)
    51e0:	4308                	lw	a0,0(a4)
    51e2:	0807f693          	andi	a3,a5,128
    51e6:	00450593          	addi	a1,a0,4
    51ea:	c6c5                	beqz	a3,5292 <_printf_i+0x112>
    51ec:	411c                	lw	a5,0(a0)
    51ee:	c30c                	sw	a1,0(a4)
    51f0:	0007d863          	bgez	a5,5200 <_printf_i+0x80>
    51f4:	02d00713          	li	a4,45
    51f8:	40f007b3          	neg	a5,a5
    51fc:	04e401a3          	sb	a4,67(s0)
    5200:	00002697          	auipc	a3,0x2
    5204:	60c68693          	addi	a3,a3,1548 # 780c <__sf_fake_stdout+0x34>
    5208:	4729                	li	a4,10
    520a:	a865                	j	52c2 <_printf_i+0x142>
    520c:	07000793          	li	a5,112
    5210:	16f68263          	beq	a3,a5,5374 <_printf_i+0x1f4>
    5214:	02d7e563          	bltu	a5,a3,523e <_printf_i+0xbe>
    5218:	06e00793          	li	a5,110
    521c:	18f68963          	beq	a3,a5,53ae <_printf_i+0x22e>
    5220:	06f00793          	li	a5,111
    5224:	faf690e3          	bne	a3,a5,51c4 <_printf_i+0x44>
    5228:	400c                	lw	a1,0(s0)
    522a:	431c                	lw	a5,0(a4)
    522c:	0805f813          	andi	a6,a1,128
    5230:	00478513          	addi	a0,a5,4
    5234:	06080763          	beqz	a6,52a2 <_printf_i+0x122>
    5238:	c308                	sw	a0,0(a4)
    523a:	439c                	lw	a5,0(a5)
    523c:	a885                	j	52ac <_printf_i+0x12c>
    523e:	07500793          	li	a5,117
    5242:	fef683e3          	beq	a3,a5,5228 <_printf_i+0xa8>
    5246:	07800793          	li	a5,120
    524a:	12f68963          	beq	a3,a5,537c <_printf_i+0x1fc>
    524e:	07300793          	li	a5,115
    5252:	f6f699e3          	bne	a3,a5,51c4 <_printf_i+0x44>
    5256:	431c                	lw	a5,0(a4)
    5258:	41d0                	lw	a2,4(a1)
    525a:	4581                	li	a1,0
    525c:	00478693          	addi	a3,a5,4
    5260:	c314                	sw	a3,0(a4)
    5262:	0007aa83          	lw	s5,0(a5)
    5266:	8556                	mv	a0,s5
    5268:	268d                	jal	55ca <memchr>
    526a:	c501                	beqz	a0,5272 <_printf_i+0xf2>
    526c:	41550533          	sub	a0,a0,s5
    5270:	c048                	sw	a0,4(s0)
    5272:	405c                	lw	a5,4(s0)
    5274:	c81c                	sw	a5,16(s0)
    5276:	040401a3          	sb	zero,67(s0)
    527a:	a861                	j	5312 <_printf_i+0x192>
    527c:	431c                	lw	a5,0(a4)
    527e:	04240a93          	addi	s5,s0,66
    5282:	00478693          	addi	a3,a5,4
    5286:	439c                	lw	a5,0(a5)
    5288:	c314                	sw	a3,0(a4)
    528a:	04f40123          	sb	a5,66(s0)
    528e:	4785                	li	a5,1
    5290:	b7d5                	j	5274 <_printf_i+0xf4>
    5292:	0407f693          	andi	a3,a5,64
    5296:	411c                	lw	a5,0(a0)
    5298:	c30c                	sw	a1,0(a4)
    529a:	dab9                	beqz	a3,51f0 <_printf_i+0x70>
    529c:	07c2                	slli	a5,a5,0x10
    529e:	87c1                	srai	a5,a5,0x10
    52a0:	bf81                	j	51f0 <_printf_i+0x70>
    52a2:	0405f593          	andi	a1,a1,64
    52a6:	c308                	sw	a0,0(a4)
    52a8:	d9c9                	beqz	a1,523a <_printf_i+0xba>
    52aa:	239e                	lhu	a5,0(a5)
    52ac:	06f00713          	li	a4,111
    52b0:	0ee68763          	beq	a3,a4,539e <_printf_i+0x21e>
    52b4:	00002697          	auipc	a3,0x2
    52b8:	55868693          	addi	a3,a3,1368 # 780c <__sf_fake_stdout+0x34>
    52bc:	4729                	li	a4,10
    52be:	040401a3          	sb	zero,67(s0)
    52c2:	404c                	lw	a1,4(s0)
    52c4:	c40c                	sw	a1,8(s0)
    52c6:	0005c563          	bltz	a1,52d0 <_printf_i+0x150>
    52ca:	4008                	lw	a0,0(s0)
    52cc:	996d                	andi	a0,a0,-5
    52ce:	c008                	sw	a0,0(s0)
    52d0:	e399                	bnez	a5,52d6 <_printf_i+0x156>
    52d2:	8ab2                	mv	s5,a2
    52d4:	cd89                	beqz	a1,52ee <_printf_i+0x16e>
    52d6:	8ab2                	mv	s5,a2
    52d8:	02e7f5b3          	remu	a1,a5,a4
    52dc:	1afd                	addi	s5,s5,-1
    52de:	95b6                	add	a1,a1,a3
    52e0:	218c                	lbu	a1,0(a1)
    52e2:	00ba8023          	sb	a1,0(s5)
    52e6:	02e7d5b3          	divu	a1,a5,a4
    52ea:	0ce7f063          	bgeu	a5,a4,53aa <_printf_i+0x22a>
    52ee:	47a1                	li	a5,8
    52f0:	00f71e63          	bne	a4,a5,530c <_printf_i+0x18c>
    52f4:	401c                	lw	a5,0(s0)
    52f6:	8b85                	andi	a5,a5,1
    52f8:	cb91                	beqz	a5,530c <_printf_i+0x18c>
    52fa:	4058                	lw	a4,4(s0)
    52fc:	481c                	lw	a5,16(s0)
    52fe:	00e7c763          	blt	a5,a4,530c <_printf_i+0x18c>
    5302:	03000793          	li	a5,48
    5306:	fefa8fa3          	sb	a5,-1(s5)
    530a:	1afd                	addi	s5,s5,-1
    530c:	41560633          	sub	a2,a2,s5
    5310:	c810                	sw	a2,16(s0)
    5312:	874e                	mv	a4,s3
    5314:	86ca                	mv	a3,s2
    5316:	0070                	addi	a2,sp,12
    5318:	85a2                	mv	a1,s0
    531a:	8526                	mv	a0,s1
    531c:	d59ff0ef          	jal	ra,5074 <_printf_common>
    5320:	5a7d                	li	s4,-1
    5322:	0b451d63          	bne	a0,s4,53dc <_printf_i+0x25c>
    5326:	557d                	li	a0,-1
    5328:	50b2                	lw	ra,44(sp)
    532a:	5422                	lw	s0,40(sp)
    532c:	5492                	lw	s1,36(sp)
    532e:	5902                	lw	s2,32(sp)
    5330:	49f2                	lw	s3,28(sp)
    5332:	4a62                	lw	s4,24(sp)
    5334:	4ad2                	lw	s5,20(sp)
    5336:	4b42                	lw	s6,16(sp)
    5338:	6145                	addi	sp,sp,48
    533a:	8082                	ret
    533c:	04d582a3          	sb	a3,69(a1)
    5340:	00002697          	auipc	a3,0x2
    5344:	4cc68693          	addi	a3,a3,1228 # 780c <__sf_fake_stdout+0x34>
    5348:	400c                	lw	a1,0(s0)
    534a:	4308                	lw	a0,0(a4)
    534c:	0805f813          	andi	a6,a1,128
    5350:	411c                	lw	a5,0(a0)
    5352:	0511                	addi	a0,a0,4
    5354:	02080d63          	beqz	a6,538e <_printf_i+0x20e>
    5358:	c308                	sw	a0,0(a4)
    535a:	0015f713          	andi	a4,a1,1
    535e:	c701                	beqz	a4,5366 <_printf_i+0x1e6>
    5360:	0205e593          	ori	a1,a1,32
    5364:	c00c                	sw	a1,0(s0)
    5366:	4741                	li	a4,16
    5368:	fbb9                	bnez	a5,52be <_printf_i+0x13e>
    536a:	400c                	lw	a1,0(s0)
    536c:	fdf5f593          	andi	a1,a1,-33
    5370:	c00c                	sw	a1,0(s0)
    5372:	b7b1                	j	52be <_printf_i+0x13e>
    5374:	419c                	lw	a5,0(a1)
    5376:	0207e793          	ori	a5,a5,32
    537a:	c19c                	sw	a5,0(a1)
    537c:	07800793          	li	a5,120
    5380:	04f402a3          	sb	a5,69(s0)
    5384:	00002697          	auipc	a3,0x2
    5388:	49c68693          	addi	a3,a3,1180 # 7820 <__sf_fake_stdout+0x48>
    538c:	bf75                	j	5348 <_printf_i+0x1c8>
    538e:	0405f813          	andi	a6,a1,64
    5392:	c308                	sw	a0,0(a4)
    5394:	fc0803e3          	beqz	a6,535a <_printf_i+0x1da>
    5398:	07c2                	slli	a5,a5,0x10
    539a:	83c1                	srli	a5,a5,0x10
    539c:	bf7d                	j	535a <_printf_i+0x1da>
    539e:	00002697          	auipc	a3,0x2
    53a2:	46e68693          	addi	a3,a3,1134 # 780c <__sf_fake_stdout+0x34>
    53a6:	4721                	li	a4,8
    53a8:	bf19                	j	52be <_printf_i+0x13e>
    53aa:	87ae                	mv	a5,a1
    53ac:	b735                	j	52d8 <_printf_i+0x158>
    53ae:	4194                	lw	a3,0(a1)
    53b0:	431c                	lw	a5,0(a4)
    53b2:	49cc                	lw	a1,20(a1)
    53b4:	0806f813          	andi	a6,a3,128
    53b8:	00478513          	addi	a0,a5,4
    53bc:	00080663          	beqz	a6,53c8 <_printf_i+0x248>
    53c0:	c308                	sw	a0,0(a4)
    53c2:	439c                	lw	a5,0(a5)
    53c4:	c38c                	sw	a1,0(a5)
    53c6:	a039                	j	53d4 <_printf_i+0x254>
    53c8:	c308                	sw	a0,0(a4)
    53ca:	0406f693          	andi	a3,a3,64
    53ce:	439c                	lw	a5,0(a5)
    53d0:	daf5                	beqz	a3,53c4 <_printf_i+0x244>
    53d2:	a38e                	sh	a1,0(a5)
    53d4:	00042823          	sw	zero,16(s0)
    53d8:	8ab2                	mv	s5,a2
    53da:	bf25                	j	5312 <_printf_i+0x192>
    53dc:	4814                	lw	a3,16(s0)
    53de:	8656                	mv	a2,s5
    53e0:	85ca                	mv	a1,s2
    53e2:	8526                	mv	a0,s1
    53e4:	9982                	jalr	s3
    53e6:	f54500e3          	beq	a0,s4,5326 <_printf_i+0x1a6>
    53ea:	401c                	lw	a5,0(s0)
    53ec:	8b89                	andi	a5,a5,2
    53ee:	e78d                	bnez	a5,5418 <_printf_i+0x298>
    53f0:	47b2                	lw	a5,12(sp)
    53f2:	4448                	lw	a0,12(s0)
    53f4:	f2f55ae3          	bge	a0,a5,5328 <_printf_i+0x1a8>
    53f8:	853e                	mv	a0,a5
    53fa:	b73d                	j	5328 <_printf_i+0x1a8>
    53fc:	4685                	li	a3,1
    53fe:	8656                	mv	a2,s5
    5400:	85ca                	mv	a1,s2
    5402:	8526                	mv	a0,s1
    5404:	9982                	jalr	s3
    5406:	f36500e3          	beq	a0,s6,5326 <_printf_i+0x1a6>
    540a:	0a05                	addi	s4,s4,1
    540c:	445c                	lw	a5,12(s0)
    540e:	4732                	lw	a4,12(sp)
    5410:	8f99                	sub	a5,a5,a4
    5412:	fefa45e3          	blt	s4,a5,53fc <_printf_i+0x27c>
    5416:	bfe9                	j	53f0 <_printf_i+0x270>
    5418:	4a01                	li	s4,0
    541a:	01940a93          	addi	s5,s0,25
    541e:	5b7d                	li	s6,-1
    5420:	b7f5                	j	540c <_printf_i+0x28c>

00005422 <_sbrk_r>:
    5422:	1141                	addi	sp,sp,-16
    5424:	c422                	sw	s0,8(sp)
    5426:	842a                	mv	s0,a0
    5428:	852e                	mv	a0,a1
    542a:	a201aa23          	sw	zero,-1484(gp) # 200002b4 <errno>
    542e:	c606                	sw	ra,12(sp)
    5430:	cf7fc0ef          	jal	ra,2126 <_sbrk>
    5434:	57fd                	li	a5,-1
    5436:	00f51763          	bne	a0,a5,5444 <_sbrk_r+0x22>
    543a:	a3418793          	addi	a5,gp,-1484 # 200002b4 <errno>
    543e:	439c                	lw	a5,0(a5)
    5440:	c391                	beqz	a5,5444 <_sbrk_r+0x22>
    5442:	c01c                	sw	a5,0(s0)
    5444:	40b2                	lw	ra,12(sp)
    5446:	4422                	lw	s0,8(sp)
    5448:	0141                	addi	sp,sp,16
    544a:	8082                	ret

0000544c <__sread>:
    544c:	1141                	addi	sp,sp,-16
    544e:	c422                	sw	s0,8(sp)
    5450:	842e                	mv	s0,a1
    5452:	00e59583          	lh	a1,14(a1)
    5456:	c606                	sw	ra,12(sp)
    5458:	2279                	jal	55e6 <_read_r>
    545a:	00054963          	bltz	a0,546c <__sread+0x20>
    545e:	487c                	lw	a5,84(s0)
    5460:	97aa                	add	a5,a5,a0
    5462:	c87c                	sw	a5,84(s0)
    5464:	40b2                	lw	ra,12(sp)
    5466:	4422                	lw	s0,8(sp)
    5468:	0141                	addi	sp,sp,16
    546a:	8082                	ret
    546c:	245e                	lhu	a5,12(s0)
    546e:	777d                	lui	a4,0xfffff
    5470:	177d                	addi	a4,a4,-1
    5472:	8ff9                	and	a5,a5,a4
    5474:	a45e                	sh	a5,12(s0)
    5476:	b7fd                	j	5464 <__sread+0x18>

00005478 <__swrite>:
    5478:	25de                	lhu	a5,12(a1)
    547a:	1101                	addi	sp,sp,-32
    547c:	cc22                	sw	s0,24(sp)
    547e:	ca26                	sw	s1,20(sp)
    5480:	c84a                	sw	s2,16(sp)
    5482:	c64e                	sw	s3,12(sp)
    5484:	ce06                	sw	ra,28(sp)
    5486:	1007f793          	andi	a5,a5,256
    548a:	84aa                	mv	s1,a0
    548c:	842e                	mv	s0,a1
    548e:	8932                	mv	s2,a2
    5490:	89b6                	mv	s3,a3
    5492:	c791                	beqz	a5,549e <__swrite+0x26>
    5494:	00e59583          	lh	a1,14(a1)
    5498:	4689                	li	a3,2
    549a:	4601                	li	a2,0
    549c:	2209                	jal	559e <_lseek_r>
    549e:	245e                	lhu	a5,12(s0)
    54a0:	777d                	lui	a4,0xfffff
    54a2:	177d                	addi	a4,a4,-1
    54a4:	8ff9                	and	a5,a5,a4
    54a6:	a45e                	sh	a5,12(s0)
    54a8:	00e41583          	lh	a1,14(s0)
    54ac:	4462                	lw	s0,24(sp)
    54ae:	40f2                	lw	ra,28(sp)
    54b0:	86ce                	mv	a3,s3
    54b2:	864a                	mv	a2,s2
    54b4:	49b2                	lw	s3,12(sp)
    54b6:	4942                	lw	s2,16(sp)
    54b8:	8526                	mv	a0,s1
    54ba:	44d2                	lw	s1,20(sp)
    54bc:	6105                	addi	sp,sp,32
    54be:	a825                	j	54f6 <_write_r>

000054c0 <__sseek>:
    54c0:	1141                	addi	sp,sp,-16
    54c2:	c422                	sw	s0,8(sp)
    54c4:	842e                	mv	s0,a1
    54c6:	00e59583          	lh	a1,14(a1)
    54ca:	c606                	sw	ra,12(sp)
    54cc:	28c9                	jal	559e <_lseek_r>
    54ce:	57fd                	li	a5,-1
    54d0:	245a                	lhu	a4,12(s0)
    54d2:	00f51a63          	bne	a0,a5,54e6 <__sseek+0x26>
    54d6:	77fd                	lui	a5,0xfffff
    54d8:	17fd                	addi	a5,a5,-1
    54da:	8ff9                	and	a5,a5,a4
    54dc:	a45e                	sh	a5,12(s0)
    54de:	40b2                	lw	ra,12(sp)
    54e0:	4422                	lw	s0,8(sp)
    54e2:	0141                	addi	sp,sp,16
    54e4:	8082                	ret
    54e6:	6785                	lui	a5,0x1
    54e8:	8fd9                	or	a5,a5,a4
    54ea:	a45e                	sh	a5,12(s0)
    54ec:	c868                	sw	a0,84(s0)
    54ee:	bfc5                	j	54de <__sseek+0x1e>

000054f0 <__sclose>:
    54f0:	00e59583          	lh	a1,14(a1)
    54f4:	a805                	j	5524 <_close_r>

000054f6 <_write_r>:
    54f6:	1141                	addi	sp,sp,-16
    54f8:	c422                	sw	s0,8(sp)
    54fa:	842a                	mv	s0,a0
    54fc:	852e                	mv	a0,a1
    54fe:	85b2                	mv	a1,a2
    5500:	8636                	mv	a2,a3
    5502:	a201aa23          	sw	zero,-1484(gp) # 200002b4 <errno>
    5506:	c606                	sw	ra,12(sp)
    5508:	be1fc0ef          	jal	ra,20e8 <_write>
    550c:	57fd                	li	a5,-1
    550e:	00f51763          	bne	a0,a5,551c <_write_r+0x26>
    5512:	a3418793          	addi	a5,gp,-1484 # 200002b4 <errno>
    5516:	439c                	lw	a5,0(a5)
    5518:	c391                	beqz	a5,551c <_write_r+0x26>
    551a:	c01c                	sw	a5,0(s0)
    551c:	40b2                	lw	ra,12(sp)
    551e:	4422                	lw	s0,8(sp)
    5520:	0141                	addi	sp,sp,16
    5522:	8082                	ret

00005524 <_close_r>:
    5524:	1141                	addi	sp,sp,-16
    5526:	c422                	sw	s0,8(sp)
    5528:	842a                	mv	s0,a0
    552a:	852e                	mv	a0,a1
    552c:	a201aa23          	sw	zero,-1484(gp) # 200002b4 <errno>
    5530:	c606                	sw	ra,12(sp)
    5532:	20c5                	jal	5612 <_close>
    5534:	57fd                	li	a5,-1
    5536:	00f51763          	bne	a0,a5,5544 <_close_r+0x20>
    553a:	a3418793          	addi	a5,gp,-1484 # 200002b4 <errno>
    553e:	439c                	lw	a5,0(a5)
    5540:	c391                	beqz	a5,5544 <_close_r+0x20>
    5542:	c01c                	sw	a5,0(s0)
    5544:	40b2                	lw	ra,12(sp)
    5546:	4422                	lw	s0,8(sp)
    5548:	0141                	addi	sp,sp,16
    554a:	8082                	ret

0000554c <_fstat_r>:
    554c:	1141                	addi	sp,sp,-16
    554e:	c422                	sw	s0,8(sp)
    5550:	842a                	mv	s0,a0
    5552:	852e                	mv	a0,a1
    5554:	85b2                	mv	a1,a2
    5556:	a201aa23          	sw	zero,-1484(gp) # 200002b4 <errno>
    555a:	c606                	sw	ra,12(sp)
    555c:	20c9                	jal	561e <_fstat>
    555e:	57fd                	li	a5,-1
    5560:	00f51763          	bne	a0,a5,556e <_fstat_r+0x22>
    5564:	a3418793          	addi	a5,gp,-1484 # 200002b4 <errno>
    5568:	439c                	lw	a5,0(a5)
    556a:	c391                	beqz	a5,556e <_fstat_r+0x22>
    556c:	c01c                	sw	a5,0(s0)
    556e:	40b2                	lw	ra,12(sp)
    5570:	4422                	lw	s0,8(sp)
    5572:	0141                	addi	sp,sp,16
    5574:	8082                	ret

00005576 <_isatty_r>:
    5576:	1141                	addi	sp,sp,-16
    5578:	c422                	sw	s0,8(sp)
    557a:	842a                	mv	s0,a0
    557c:	852e                	mv	a0,a1
    557e:	a201aa23          	sw	zero,-1484(gp) # 200002b4 <errno>
    5582:	c606                	sw	ra,12(sp)
    5584:	205d                	jal	562a <_isatty>
    5586:	57fd                	li	a5,-1
    5588:	00f51763          	bne	a0,a5,5596 <_isatty_r+0x20>
    558c:	a3418793          	addi	a5,gp,-1484 # 200002b4 <errno>
    5590:	439c                	lw	a5,0(a5)
    5592:	c391                	beqz	a5,5596 <_isatty_r+0x20>
    5594:	c01c                	sw	a5,0(s0)
    5596:	40b2                	lw	ra,12(sp)
    5598:	4422                	lw	s0,8(sp)
    559a:	0141                	addi	sp,sp,16
    559c:	8082                	ret

0000559e <_lseek_r>:
    559e:	1141                	addi	sp,sp,-16
    55a0:	c422                	sw	s0,8(sp)
    55a2:	842a                	mv	s0,a0
    55a4:	852e                	mv	a0,a1
    55a6:	85b2                	mv	a1,a2
    55a8:	8636                	mv	a2,a3
    55aa:	a201aa23          	sw	zero,-1484(gp) # 200002b4 <errno>
    55ae:	c606                	sw	ra,12(sp)
    55b0:	2059                	jal	5636 <_lseek>
    55b2:	57fd                	li	a5,-1
    55b4:	00f51763          	bne	a0,a5,55c2 <_lseek_r+0x24>
    55b8:	a3418793          	addi	a5,gp,-1484 # 200002b4 <errno>
    55bc:	439c                	lw	a5,0(a5)
    55be:	c391                	beqz	a5,55c2 <_lseek_r+0x24>
    55c0:	c01c                	sw	a5,0(s0)
    55c2:	40b2                	lw	ra,12(sp)
    55c4:	4422                	lw	s0,8(sp)
    55c6:	0141                	addi	sp,sp,16
    55c8:	8082                	ret

000055ca <memchr>:
    55ca:	0ff5f593          	andi	a1,a1,255
    55ce:	962a                	add	a2,a2,a0
    55d0:	00c51463          	bne	a0,a2,55d8 <memchr+0xe>
    55d4:	4501                	li	a0,0
    55d6:	8082                	ret
    55d8:	211c                	lbu	a5,0(a0)
    55da:	feb78ee3          	beq	a5,a1,55d6 <memchr+0xc>
    55de:	0505                	addi	a0,a0,1
    55e0:	bfc5                	j	55d0 <memchr+0x6>

000055e2 <__malloc_lock>:
    55e2:	8082                	ret

000055e4 <__malloc_unlock>:
    55e4:	8082                	ret

000055e6 <_read_r>:
    55e6:	1141                	addi	sp,sp,-16
    55e8:	c422                	sw	s0,8(sp)
    55ea:	842a                	mv	s0,a0
    55ec:	852e                	mv	a0,a1
    55ee:	85b2                	mv	a1,a2
    55f0:	8636                	mv	a2,a3
    55f2:	a201aa23          	sw	zero,-1484(gp) # 200002b4 <errno>
    55f6:	c606                	sw	ra,12(sp)
    55f8:	20a9                	jal	5642 <_read>
    55fa:	57fd                	li	a5,-1
    55fc:	00f51763          	bne	a0,a5,560a <_read_r+0x24>
    5600:	a3418793          	addi	a5,gp,-1484 # 200002b4 <errno>
    5604:	439c                	lw	a5,0(a5)
    5606:	c391                	beqz	a5,560a <_read_r+0x24>
    5608:	c01c                	sw	a5,0(s0)
    560a:	40b2                	lw	ra,12(sp)
    560c:	4422                	lw	s0,8(sp)
    560e:	0141                	addi	sp,sp,16
    5610:	8082                	ret

00005612 <_close>:
    5612:	05800793          	li	a5,88
    5616:	a2f1aa23          	sw	a5,-1484(gp) # 200002b4 <errno>
    561a:	557d                	li	a0,-1
    561c:	8082                	ret

0000561e <_fstat>:
    561e:	05800793          	li	a5,88
    5622:	a2f1aa23          	sw	a5,-1484(gp) # 200002b4 <errno>
    5626:	557d                	li	a0,-1
    5628:	8082                	ret

0000562a <_isatty>:
    562a:	05800793          	li	a5,88
    562e:	a2f1aa23          	sw	a5,-1484(gp) # 200002b4 <errno>
    5632:	4501                	li	a0,0
    5634:	8082                	ret

00005636 <_lseek>:
    5636:	05800793          	li	a5,88
    563a:	a2f1aa23          	sw	a5,-1484(gp) # 200002b4 <errno>
    563e:	557d                	li	a0,-1
    5640:	8082                	ret

00005642 <_read>:
    5642:	05800793          	li	a5,88
    5646:	a2f1aa23          	sw	a5,-1484(gp) # 200002b4 <errno>
    564a:	557d                	li	a0,-1
    564c:	8082                	ret
    564e:	0000                	unimp
    5650:	0a0d                	addi	s4,s4,3
    5652:	6854                	flw	fa3,20(s0)
    5654:	2065                	jal	56fc <_read+0xba>
    5656:	7355                	lui	t1,0xffff5
    5658:	7265                	lui	tp,0xffff9
    565a:	6920                	flw	fs0,80(a0)
    565c:	61633a73          	csrrc	s4,0x616,t1
    5660:	6472                	flw	fs0,28(sp)
    5662:	305f 000d 0000      	0xd305f
    5668:	0a0d                	addi	s4,s4,3
    566a:	6854                	flw	fa3,20(s0)
    566c:	2065                	jal	5714 <_read+0xd2>
    566e:	7355                	lui	t1,0xffff5
    5670:	7265                	lui	tp,0xffff9
    5672:	6920                	flw	fs0,80(a0)
    5674:	61633a73          	csrrc	s4,0x616,t1
    5678:	6472                	flw	fs0,28(sp)
    567a:	315f 000d 0000      	0xd315f
    5680:	0a0d                	addi	s4,s4,3
    5682:	6854                	flw	fa3,20(s0)
    5684:	2065                	jal	572c <_read+0xea>
    5686:	7355                	lui	t1,0xffff5
    5688:	7265                	lui	tp,0xffff9
    568a:	6920                	flw	fs0,80(a0)
    568c:	61633a73          	csrrc	s4,0x616,t1
    5690:	6472                	flw	fs0,28(sp)
    5692:	325f 000d 0000      	0xd325f
    5698:	0a0d                	addi	s4,s4,3
    569a:	6854                	flw	fa3,20(s0)
    569c:	2065                	jal	5744 <_read+0x102>
    569e:	7355                	lui	t1,0xffff5
    56a0:	7265                	lui	tp,0xffff9
    56a2:	6920                	flw	fs0,80(a0)
    56a4:	61633a73          	csrrc	s4,0x616,t1
    56a8:	6472                	flw	fs0,28(sp)
    56aa:	335f 000d 0000      	0xd335f
    56b0:	0a0d                	addi	s4,s4,3
    56b2:	6854                	flw	fa3,20(s0)
    56b4:	2065                	jal	575c <_read+0x11a>
    56b6:	7355                	lui	t1,0xffff5
    56b8:	7265                	lui	tp,0xffff9
    56ba:	6920                	flw	fs0,80(a0)
    56bc:	61633a73          	csrrc	s4,0x616,t1
    56c0:	6472                	flw	fs0,28(sp)
    56c2:	345f 000d 0000      	0xd345f
    56c8:	6350                	flw	fa2,4(a4)
    56ca:	4164                	lw	s1,68(a0)
    56cc:	7475                	lui	s0,0xffffd
    56ce:	5368                	lw	a0,100(a4)
    56d0:	6174                	flw	fa3,68(a0)
    56d2:	6574                	flw	fa3,76(a0)
    56d4:	4128                	lw	a0,64(a0)
    56d6:	2029                	jal	56e0 <_read+0x9e>
    56d8:	63637573          	csrrci	a0,0x636,6
    56dc:	7365                	lui	t1,0xffff9
    56de:	00000d73          	0xd73
    56e2:	0000                	unimp
    56e4:	6350                	flw	fa2,4(a4)
    56e6:	4164                	lw	s1,68(a0)
    56e8:	7475                	lui	s0,0xffffd
    56ea:	5368                	lw	a0,100(a4)
    56ec:	6174                	flw	fa3,68(a0)
    56ee:	6574                	flw	fa3,76(a0)
    56f0:	4128                	lw	a0,64(a0)
    56f2:	2029                	jal	56fc <_read+0xba>
    56f4:	6166                	flw	ft2,88(sp)
    56f6:	6c69                	lui	s8,0x1a
    56f8:	6465                	lui	s0,0x19
    56fa:	000d                	c.nop	3
    56fc:	6350                	flw	fa2,4(a4)
    56fe:	4164                	lw	s1,68(a0)
    5700:	7475                	lui	s0,0xffffd
    5702:	5368                	lw	a0,100(a4)
    5704:	6174                	flw	fa3,68(a0)
    5706:	6574                	flw	fa3,76(a0)
    5708:	4228                	lw	a0,64(a2)
    570a:	2029                	jal	5714 <_read+0xd2>
    570c:	63637573          	csrrci	a0,0x636,6
    5710:	7365                	lui	t1,0xffff9
    5712:	00000d73          	0xd73
    5716:	0000                	unimp
    5718:	6350                	flw	fa2,4(a4)
    571a:	4164                	lw	s1,68(a0)
    571c:	7475                	lui	s0,0xffffd
    571e:	5368                	lw	a0,100(a4)
    5720:	6174                	flw	fa3,68(a0)
    5722:	6574                	flw	fa3,76(a0)
    5724:	4228                	lw	a0,64(a2)
    5726:	2029                	jal	5730 <_read+0xee>
    5728:	6166                	flw	ft2,88(sp)
    572a:	6c69                	lui	s8,0x1a
    572c:	6465                	lui	s0,0x19
    572e:	000d                	c.nop	3
    5730:	4144                	lw	s1,4(a0)
    5732:	4154                	lw	a3,4(a0)
    5734:	003a                	c.slli	zero,0xe
    5736:	0000                	unimp
    5738:	3025                	jal	4f60 <_vfiprintf_r+0x174>
    573a:	7832                	flw	fa6,44(sp)
    573c:	0000                	unimp
    573e:	0000                	unimp
    5740:	6350                	flw	fa2,4(a4)
    5742:	5264                	lw	s1,100(a2)
    5744:	6165                	addi	sp,sp,112
    5746:	2864                	lbu	s1,22(s0)
    5748:	2029                	jal	5752 <_read+0x110>
    574a:	63637573          	csrrci	a0,0x636,6
    574e:	7365                	lui	t1,0xffff9
    5750:	00000d73          	0xd73
    5754:	6350                	flw	fa2,4(a4)
    5756:	5264                	lw	s1,100(a2)
    5758:	6165                	addi	sp,sp,112
    575a:	2864                	lbu	s1,22(s0)
    575c:	2029                	jal	5766 <_read+0x124>
    575e:	6166                	flw	ft2,88(sp)
    5760:	6c69                	lui	s8,0x1a
    5762:	6465                	lui	s0,0x19
    5764:	000d                	c.nop	3
    5766:	0000                	unimp
    5768:	74697257          	0x74697257
    576c:	2065                	jal	5814 <ascii_1608+0x10>
    576e:	6874                	flw	fa3,84(s0)
    5770:	2065                	jal	5818 <ascii_1608+0x14>
    5772:	64726163          	bltu	tp,t2,5db4 <ascii_1608+0x5b0>
    5776:	6120                	flw	fs0,64(a0)
    5778:	7466                	flw	fs0,120(sp)
    577a:	7265                	lui	tp,0xffff9
    577c:	3120                	lbu	s0,3(a0)
    577e:	7320                	flw	fs0,96(a4)
    5780:	6365                	lui	t1,0x19
    5782:	2e646e6f          	jal	t3,4ba68 <_data_lma+0x44234>
    5786:	4420                	lw	s0,72(s0)
    5788:	6f6e206f          	j	e7e7e <_data_lma+0xe064a>
    578c:	2074                	lbu	a3,6(s0)
    578e:	6f6d                	lui	t5,0x1b
    5790:	6576                	flw	fa0,92(sp)
    5792:	7420                	flw	fs0,104(s0)
    5794:	6568                	flw	fa0,76(a0)
    5796:	6320                	flw	fs0,64(a4)
    5798:	7261                	lui	tp,0xffff8
    579a:	2164                	lbu	s1,6(a0)
    579c:	2121                	jal	5ba4 <ascii_1608+0x3a0>
    579e:	000d                	c.nop	3
    57a0:	6350                	flw	fa2,4(a4)
    57a2:	5764                	lw	s1,108(a4)
    57a4:	6972                	flw	fs2,28(sp)
    57a6:	6574                	flw	fa3,76(a0)
    57a8:	2928                	lbu	a0,18(a0)
    57aa:	7320                	flw	fs0,96(a4)
    57ac:	6375                	lui	t1,0x1d
    57ae:	73736563          	bltu	t1,s7,5ed8 <ascii_3216+0xe4>
    57b2:	000d                	c.nop	3
    57b4:	6350                	flw	fa2,4(a4)
    57b6:	5764                	lw	s1,108(a4)
    57b8:	6972                	flw	fs2,28(sp)
    57ba:	6574                	flw	fa3,76(a0)
    57bc:	2928                	lbu	a0,18(a0)
    57be:	6620                	flw	fs0,72(a2)
    57c0:	6961                	lui	s2,0x18
    57c2:	656c                	flw	fa1,76(a0)
    57c4:	0d64                	addi	s1,sp,668
    57c6:	0000                	unimp
    57c8:	4352                	lw	t1,20(sp)
    57ca:	3235                	jal	50f6 <_printf_common+0x82>
    57cc:	5f32                	lw	t5,44(sp)
    57ce:	6148                	flw	fa0,4(a0)
    57d0:	646e                	flw	fs0,216(sp)
    57d2:	656c                	flw	fa1,76(a0)
    57d4:	2928                	lbu	a0,18(a0)
    57d6:	7220                	flw	fs0,96(a2)
    57d8:	6e75                	lui	t3,0x1d
    57da:	6620                	flw	fs0,72(a2)
    57dc:	6e69                	lui	t3,0x1a
    57de:	7369                	lui	t1,0xffffa
    57e0:	6568                	flw	fa0,76(a0)
    57e2:	2064                	lbu	s1,6(s0)
    57e4:	6661                	lui	a2,0x18
    57e6:	6574                	flw	fa3,76(a0)
    57e8:	2072                	lhu	a2,6(s0)
    57ea:	2031                	jal	57f6 <_read+0x1b4>
    57ec:	6f636573          	csrrsi	a0,0x6f6,6
    57f0:	646e                	flw	fs0,216(sp)
    57f2:	0d21                	addi	s10,s10,8
    57f4:	0000                	unimp
    57f6:	0000                	unimp
    57f8:	4449                	li	s0,18
    57fa:	3e3e                	lhu	a5,58(a2)
    57fc:	253e                	lhu	a5,10(a0)
    57fe:	000a0d73          	0xa0d73
	...

00005804 <ascii_1608>:
	...
    5814:	08000000 08080808 00000808 00001818     ................
    5824:	246c4800 00000012 00000000 00000000     .Hl$............
    5834:	24000000 127f2424 127f1212 00001212     ...$$$..........
    5844:	1c080000 0c0a2a2a 2a282818 08081c2a     ....**...((**...
    5854:	22000000 15151525 5454582a 00002254     ..."%...*XTTT"..
    5864:	0c000000 0a121212 11292576 00006e91     ........v%)..n..
    5874:	04060600 00000003 00000000 00000000     ................
    5884:	10204000 08080810 10080808 00402010     .@ .......... @.
    5894:	08040200 10101008 08101010 00020408     ................
    58a4:	00000000 1c6b0808 08086b1c 00000000     ......k..k......
    58b4:	00000000 08080808 0808087f 00000008     ................
	...
    58d0:	03040606 00000000 00000000 000000fe     ................
	...
    58f0:	00000606 40800000 10202040 04080810     .......@@  .....
    5900:	00020204 18000000 42424224 42424242     ........$BBBBBBB
    5910:	00001824 08000000 0808080e 08080808     $...............
    5920:	00003e08 3c000000 20424242 04081020     .>.....<BBB  ...
    5930:	00007e42 3c000000 18204242 42404020     B~.....<BB . @@B
    5940:	00001c22 20000000 24242830 207e2222     "...... 0($$""~ 
    5950:	00007820 7e000000 1a020202 42404026      x.....~....&@@B
    5960:	00001c22 38000000 1a020224 42424226     "......8$...&BBB
    5970:	00001824 7e000000 10102222 08080808     $......~""......
    5980:	00000808 3c000000 24424242 42422418     .......<BBB$.$BB
    5990:	00003c42 18000000 42424224 40405864     B<......$BBBdX@@
    59a0:	00001c24 00000000 18180000 00000000     $...............
    59b0:	00001818 00000000 08000000 00000000     ................
    59c0:	04080800 40000000 04081020 10080402     .......@ .......
    59d0:	00004020 00000000 007f0000 007f0000      @..............
    59e0:	00000000 02000000 20100804 08102040     ........... @ ..
    59f0:	00000204 3c000000 40464242 00101020     .......<BBF@ ...
    5a00:	00001818 1c000000 55555a22 422d5555     ........"ZUUUU-B
    5a10:	00001c22 08000000 14141808 42223c24     "...........$<"B
    5a20:	0000e742 1f000000 1e222222 42424222     B......."""."BBB
    5a30:	00001f22 7c000000 01014242 42010101     "......|BB.....B
    5a40:	00001c22 1f000000 42424222 42424242     "......."BBBBBBB
    5a50:	00001f22 3f000000 1e121242 42021212     "......?B......B
    5a60:	00003f42 3f000000 1e121242 02021212     B?.....?B.......
    5a70:	00000702 3c000000 01012222 22217101     .......<""...q!"
    5a80:	00001c22 e7000000 42424242 4242427e     ".......BBBB~BBB
    5a90:	0000e742 3e000000 08080808 08080808     B......>........
    5aa0:	00003e08 7c000000 10101010 10101010     .>.....|........
    5ab0:	0f111010 77000000 0e0a1222 2212120a     .......w"......"
    5ac0:	00007722 07000000 02020202 02020202     "w..............
    5ad0:	00007f42 77000000 36363636 2a2a2a2a     B......w6666****
    5ae0:	00006b2a e3000000 4a4a4646 62525252     *k......FFJJRRRb
    5af0:	00004762 1c000000 41414122 41414141     bG......"AAAAAAA
    5b00:	00001c22 3f000000 42424242 0202023e     "......?BBBB>...
    5b10:	00000702 1c000000 41414122 534d4141     ........"AAAAAMS
    5b20:	00601c32 3f000000 3e424242 22221212     2.`....?BBB>..""
    5b30:	0000c742 7c000000 04024242 42402018     B......|BB... @B
    5b40:	00003e42 7f000000 08080849 08080808     B>......I.......
    5b50:	00001c08 e7000000 42424242 42424242     ........BBBBBBBB
    5b60:	00003c42 e7000000 24224242 18141424     B<......BB"$$...
    5b70:	00000808 6b000000 49494949 22365555     .......kIIIIUU6"
    5b80:	00002222 e7000000 18242442 24241818     ""......B$$...$$
    5b90:	0000e742 77000000 14142222 08080808     B......w""......
    5ba0:	00001c08 7e000000 10102021 42040408     .......~! .....B
    5bb0:	00003f42 08087800 08080808 08080808     B?...x..........
    5bc0:	00780808 02020000 08080404 20101008     ..x............ 
    5bd0:	40402020 10101e00 10101010 10101010       @@............
    5be0:	001e1010 00443800 00000000 00000000     .....8D.........
	...
    5c00:	ff000000 00080600 00000000 00000000     ................
	...
    5c18:	3c000000 42447842 0000fc42 03000000     ...<BxDBB.......
    5c28:	1a020202 42424226 00001a26 00000000     ....&BBB&.......
    5c38:	38000000 02020244 00003844 60000000     ...8D...D8.....`
    5c48:	78404040 42424244 0000d864 00000000     @@@xDBBBd.......
    5c58:	3c000000 02027e42 00003c42 f0000000     ...<B~..B<......
    5c68:	7e080888 08080808 00003e08 00000000     ...~.....>......
    5c78:	7c000000 021c2222 3c42423c 03000000     ...|""..<BB<....
    5c88:	3a020202 42424246 0000e742 0c000000     ...:FBBBB.......
    5c98:	0e00000c 08080808 00003e08 30000000     .........>.....0
    5ca8:	38000030 20202020 1e222020 03000000     0..8      ".....
    5cb8:	72020202 12160a12 00007722 0e000000     ...r...."w......
    5cc8:	08080808 08080808 00003e08 00000000     .........>......
    5cd8:	7f000000 92929292 0000b792 00000000     ................
    5ce8:	3b000000 42424246 0000e742 00000000     ...;FBBBB.......
    5cf8:	3c000000 42424242 00003c42 00000000     ...<BBBBB<......
    5d08:	1b000000 42424226 07021e22 00000000     ....&BBB".......
    5d18:	78000000 42424244 e0407844 00000000     ...xDBBBDx@.....
    5d28:	77000000 0404044c 00001f04 00000000     ...wL...........
    5d38:	7c000000 403c0242 00003e42 00000000     ...|B.<@B>......
    5d48:	3e080800 08080808 00003008 00000000     ...>.....0......
    5d58:	63000000 42424242 0000dc62 00000000     ...cBBBBb.......
    5d68:	e7000000 14242442 00000808 00000000     ....B$$.........
    5d78:	eb000000 55554949 00002222 00000000     ....IIUU""......
    5d88:	76000000 18181824 00006e24 00000000     ...v$...$n......
    5d98:	e7000000 14242442 07080818 00000000     ....B$$.........
    5da8:	7e000000 08081022 00007e44 2020c000     ...~"...D~....  
    5db8:	10202020 20202020 00c02020 10101010        .      ......
    5dc8:	10101010 10101010 10101010 08080600     ................
    5dd8:	10080808 08080808 00060808 00c2320c     .............2..
	...

00005df4 <ascii_3216>:
	...
    5e3c:	01c00000 01c001c0 01c001c0 01c001c0     ................
    5e4c:	00800080 00800080 00800080 00000080     ................
    5e5c:	00000000 01800000 03c003c0 00000180     ................
	...
    5e78:	1ce00000 1ef01ce0 07380e70 01080318     ........p.8.....
    5e88:	00000084 00000000 00000000 00000000     ................
	...
    5ec0:	10201020 10201020 7ffe1020 08107ffe      . . . . .......
    5ed0:	08100810 08100810 08100810 7ffe7ffe     ................
    5ee0:	04080408 04080408 00000408 00000000     ................
	...
    5efc:	01000100 196007c0 31183110 39183918     ......`..1.1.9.9
    5f0c:	01700138 03c001e0 0f000780 39001d00     8.p............9
    5f1c:	311c3100 310c311c 0d18110c 010007e0     .1.1.1.1........
    5f2c:	01000100 00000000 00000000 00000000     ................
    5f3c:	00000000 1836101c 0c630863 04630463     ......6.c.c.c.c.
    5f4c:	02630263 1d360163 2280379c 63406380     c.c.c.6..7.".c@c
    5f5c:	63206340 63306320 36182210 00001c08     @c c c0c.".6....
	...
    5f80:	019800f0 018c018c 018c018c 00cc008c     ................
    5f90:	3e180078 0836081c 04630832 04c30463     x..>..6.2.c.c...
    5fa0:	438303c3 268e4306 00001c78 00000000     ...C.C.&x.......
	...
    5fb8:	001c0000 003c003c 00300030 000c0010     ....<.<.0.0.....
    5fc8:	00000006 00000000 00000000 00000000     ................
	...
    5ff8:	40000000 10002000 0c000800 06000400     ...@. ..........
    6008:	03000300 01800300 01800180 01800180     ................
    6018:	01800180 03000180 03000300 06000600     ................
    6028:	08000c00 20001000 00004000 00000000     ....... .@......
    6038:	00020000 00080004 00300010 00600020     ..........0. .`.
    6048:	00c000c0 018000c0 01800180 01800180     ................
    6058:	01800180 00c00180 00c000c0 00600060     ............`.`.
    6068:	00100030 00040008 00000002 00000000     0...............
	...
    6084:	03800100 01000380 793c711c 07c03d78     .........q<yx=..
    6094:	07c00100 793c3d78 0100711c 03800380     ....x=<y.q......
    60a4:	00000180 00000000 00000000 00000000     ................
	...
    60c4:	01000000 01000100 01000100 01000100     ................
    60d4:	01007ffc 01000100 01000100 01000100     ................
	...
    6124:	003c001c 0030003c 00100030 0006000c     ..<.<.0.0.......
	...
    6154:	00007ffe 00000000 00000000 00000000     ................
	...
    61a0:	00180000 003c003c 00000018 00000000     ....<.<.........
	...
    61b8:	40000000 20006000 10003000 08001800     ...@.`. .0......
    61c8:	04000c00 02000600 01000300 00800180     ................
    61d8:	004000c0 00200060 00100030 00080018     ..@.`. .0.......
    61e8:	0004000c 00020006 00000000 00000000     ................
	...
    6200:	0c6007c0 30181830 20183018 600c600c     ..`.0..0.0. .`.`
    6210:	600c600c 600c600c 600c600c 2018600c     .`.`.`.`.`.`.`. 
    6220:	30183018 0c601830 000007c0 00000000     .0.00.`.........
	...
    6240:	01800100 018001f8 01800180 01800180     ................
    6250:	01800180 01800180 01800180 01800180     ................
    6260:	01800180 03c00180 00001ff8 00000000     ................
	...
    6280:	1c1007e0 30041808 300c3004 3000300c     .......0.0.0.0.0
    6290:	08001800 02000400 00800100 20200040     ............@.  
    62a0:	20082010 1ffc3004 00001ffc 00000000     . . .0..........
	...
    62c0:	0e1803e0 180c0c0c 180c180c 0c001800     ................
    62d0:	03c00600 18000e00 30001000 300c3000     ...........0.0.0
    62e0:	100c300c 0c18180c 000003e0 00000000     .0..............
	...
    6300:	0e000c00 0f000e00 0e800e80 0e600e40     ............@.`.
    6310:	0e100e20 0e080e10 0e040e04 0e007ffe      ...............
    6320:	0e000e00 0e000e00 7fc00e00 00000000     ................
	...
    6340:	3ff03ff0 00100010 00080010 07c80008     .?.?............
    6350:	18180c28 30001008 30003000 300c3000     (......0.0.0.0.0
    6360:	1804300c 0c081804 000003f0 00000000     .0..............
	...
    6380:	10c00f80 30103020 00180018 000c0008     .... 0.0........
    6390:	186c0f8c 601c303c 600c600c 600c600c     ..l.<0.`.`.`.`.`
    63a0:	20186018 18603030 000007c0 00000000     .`. 00`.........
	...
    63c0:	3ff83ff8 080c101c 04040804 02000400     .?.?............
    63d0:	01000200 01000100 00800080 00c00080     ................
    63e0:	00c000c0 00c000c0 000000c0 00000000     ................
	...
    6400:	0c3007e0 300c1818 300c300c 1838301c     ..0....0.0.0.08.
    6410:	07e00870 0e1807b0 38061c0c 30063006     p..........8.0.0
    6420:	30063006 0c18180c 000003e0 00000000     .0.0............
	...
    6440:	041803e0 180c080c 30061006 30063006     ...........0.0.0
    6450:	38063006 36183c0c 300031f0 18001800     .0.8.<.6.1.0....
    6460:	0c0c1800 030c060c 000001f0 00000000     ................
	...
    648c:	01800000 03c003c0 00000180 00000000     ................
    649c:	00000000 01800000 03c003c0 00000180     ................
	...
    64cc:	00c00000 000000c0 00000000 00000000     ................
	...
    64e4:	00c00000 008000c0 00400080 00000040     ..........@.@...
	...
    64fc:	20000000 08001000 06000400 01800300     ... ............
    650c:	006000c0 00180030 0018000c 00600030     ..`.0.......0.`.
    651c:	018000c0 06000300 08000400 20001000     ............... 
	...
    654c:	7ffe0000 00000000 00000000 7ffe0000     ................
	...
    657c:	00040000 00100008 00600020 018000c0     ........ .`.....
    658c:	06000300 18000c00 18003000 06000c00     .........0......
    659c:	01800300 006000c0 00100020 00040008     ......`. .......
	...
    65bc:	07c00000 30081830 600c6008 601c601c     ....0..0.`.`.`.`
    65cc:	3000601c 06001c00 00800100 00800080     .`.0............
    65dc:	00000080 01800000 03c003c0 00000180     ................
	...
    6600:	186007c0 20183010 4d8c2f0c 4cc64c86     ..`..0. ./.M.L.L
    6610:	4c664cc6 44664466 26662666 1ccc1566     .LfLfDfDf&f&f...
    6620:	2008400c 18303018 000007c0 00000000     .@. .00.........
	...
    663c:	01000000 01c001c0 014001c0 03200360     ..........@.`. .
    664c:	03200320 06100630 06100610 0c080ff8      . .0...........
    665c:	0c080c08 18040c0c 18061804 00007c1f     .............|..
	...
    6680:	1c1807fe 30183818 30183018 18183018     .....8.0.0.0.0..
    6690:	07f80c18 30181818 60182018 60186018     .......0. .`.`.`
    66a0:	60186018 18183018 00000ffe 00000000     .`.`.0..........
	...
    66c0:	386027c0 20183010 400c400c 00060004     .'`8.0. .@.@....
    66d0:	00060006 00060006 00060006 400c0006     ...............@
    66e0:	200c400c 18303018 000007c0 00000000     .@. .00.........
	...
    6700:	0e1803fe 30181818 30183018 60186018     .......0.0.0.`.`
    6710:	60186018 60186018 60186018 30186018     .`.`.`.`.`.`.`.0
    6720:	10183018 0e181818 000003fe 00000000     .0..............
	...
    6740:	30183ffe 60182018 00184018 08180818     .?.0. .`.@......
    6750:	0ff80c18 08180c18 00180818 00180018     ................
    6760:	40184018 30182018 00003ffe 00000000     .@.@. .0.?......
	...
    6780:	70187ffe c0184018 00188018 10181018     ...p.@..........
    6790:	1ff81818 10181818 00181018 00180018     ................
    67a0:	00180018 00180018 0000007e 00000000     ........~.......
	...
    67c0:	1c7013c0 10181010 200c200c 00060004     ..p...... . ....
    67d0:	00060006 00060006 3006fc06 300c3006     ...........0.0.0
    67e0:	3018300c 08303018 000007c0 00000000     .0.0.00.........
	...
    6800:	180c7e3f 180c180c 180c180c 180c180c     ?~..............
    6810:	180c180c 180c1ffc 180c180c 180c180c     ................
    6820:	180c180c 180c180c 00007e3f 00000000     ........?~......
	...
    6840:	01801ff8 01800180 01800180 01800180     ................
    6850:	01800180 01800180 01800180 01800180     ................
    6860:	01800180 01800180 00001ff8 00000000     ................
	...
    6880:	06007fe0 06000600 06000600 06000600     ................
    6890:	06000600 06000600 06000600 06000600     ................
    68a0:	06000600 06000600 06000600 030e060e     ................
    68b0:	00fc018e 00000000 00000000 00000000     ................
    68c0:	18187c7e 04180818 02180618 01980118     ~|..............
    68d0:	01d80198 033803b8 06180718 0c180e18     ......8.........
    68e0:	18181c18 30183018 0000fc7e 00000000     .....0.0~.......
	...
    6900:	0018007e 00180018 00180018 00180018     ~...............
    6910:	00180018 00180018 00180018 00180018     ................
    6920:	40184018 30182018 00003ffe 00000000     .@.@. .0.?......
	...
    6940:	381cf81f 381c381c 34343c1c 34343434     ...8.8.8.<444444
    6950:	32743634 32643264 31643264 31c431c4     46t2d2d2d2d1.1.1
    6960:	30c431c4 308430c4 0000fc9f 00000000     .1.0.0.0........
	...
    6980:	101c7c1f 1034103c 10741034 10e41064     .|..<.4.4.t.d...
    6990:	11c410c4 13841184 17041304 1e041604     ................
    69a0:	1c041c04 18041c04 0000181f 00000000     ................
	...
    69c0:	0c3003c0 10081818 300c300c 60066006     ..0......0.0.`.`
    69d0:	60066006 60066006 60066006 200c6006     .`.`.`.`.`.`.`. 
    69e0:	1008300c 0c301818 000003c0 00000000     .0....0.........
	...
    6a00:	18180ffe 60183018 60186018 60186018     .....0.`.`.`.`.`
    6a10:	18183018 00180ff8 00180018 00180018     .0..............
    6a20:	00180018 00180018 0000007e 00000000     ........~.......
	...
    6a40:	0c3003c0 100c1818 200c300c 60066006     ..0......0. .`.`
    6a50:	60066006 60066006 60066006 61e46006     .`.`.`.`.`.`.`.a
    6a60:	321c332c 0e301618 4c0007c0 38007c00     ,3.2..0....L.|.8
	...
    6a80:	1c1807fe 30183818 30183018 18183018     .....8.0.0.0.0..
    6a90:	07f80c18 03180398 06180718 0e180618     ................
    6aa0:	0c180c18 18181c18 0000787e 00000000     ........~x......
	...
    6ac0:	383027e0 200c3018 000c200c 0018000c     .'08.0. . ......
    6ad0:	03e00078 1e000f80 70003800 60046000     x........8.p.`.`
    6ae0:	60086004 18383018 00000fc8 00000000     .`.`.08.........
	...
    6b00:	218c3ffc 41826184 01804182 01800180     .?.!.a.A.A......
    6b10:	01800180 01800180 01800180 01800180     ................
    6b20:	01800180 01800180 000007e0 00000000     ................
	...
    6b40:	100c7c3f 100c100c 100c100c 100c100c     ?|..............
    6b50:	100c100c 100c100c 100c100c 100c100c     ................
    6b60:	100c100c 04380808 000003e0 00000000     ......8.........
	...
    6b80:	2018f83e 20182018 10301030 10301030     >.. . . 0.0.0.0.
    6b90:	08600860 0ce00860 04c004c0 038004c0     `.`.`...........
    6ba0:	03800380 01000380 00000100 00000000     ................
	...
    6bc0:	6186f3df 21862186 210c218c 138c238c     ...a.!.!.!.!.#..
    6bd0:	138c138c 1258134c 0e581658 0e380e38     ....L.X.X.X.8.8.
    6be0:	0c300e38 04100410 00000410 00000000     8.0.............
	...
    6c00:	08183e7e 04300838 02700430 01e00260     ~>..8.0.0.p.`...
    6c10:	01c001c0 03800180 07400340 06200620     ........@.@. . .
    6c20:	0c100c10 18081808 00007c3e 00000000     ........>|......
	...
    6c40:	101c7c7e 08181018 0c300830 04600470     ~|......0.0.p.`.
    6c50:	02c00260 01c002c0 01800180 01800180     `...............
    6c60:	01800180 01800180 000007e0 00000000     ................
	...
    6c80:	18183ff8 0c041808 06000e04 03000700     .?..............
    6c90:	01800380 00c001c0 006000e0 00300070     ..........`.p.0.
    6ca0:	20182038 180c101c 00001ffe 00000000     8 . ............
	...
    6cb8:	3fc00000 00400040 00400040 00400040     ...?@.@.@.@.@.@.
    6cc8:	00400040 00400040 00400040 00400040     @.@.@.@.@.@.@.@.
    6cd8:	00400040 00400040 00400040 00400040     @.@.@.@.@.@.@.@.
    6ce8:	00400040 3fc00040 00000000 00000000     @.@.@..?........
    6cf8:	00000000 00080000 00180018 00300010     ..............0.
    6d08:	00600020 00400060 008000c0 01800180      .`.`.@.........
    6d18:	03000100 06000200 04000600 08000c00     ................
    6d28:	18001800 30001000 00002000 00000000     .......0. ......
    6d38:	03fc0000 02000200 02000200 02000200     ................
    6d48:	02000200 02000200 02000200 02000200     ................
    6d58:	02000200 02000200 02000200 02000200     ................
    6d68:	02000200 03fc0200 00000000 00000000     ................
    6d78:	07800000 082006c0 00001010 00000000     ...... .........
	...
    6df0:	ffff0000 00000000 00780000 010000c0     ..........x.....
	...
    6e4c:	03f00000 0c0c0618 0c000c0c 0c700f80     ..............p.
    6e5c:	0c0c0c1c 0c060c06 4f0c4c06 000038f8     .........L.O.8..
	...
    6e7c:	00100000 0018001e 00180018 00180018     ................
    6e8c:	0f180018 303818d8 60186038 60186018     ......808`.`.`.`
    6e9c:	60186018 20186018 18783038 000007c8     .`.`.`. 80x.....
	...
    6ecc:	07c00000 18180c70 180c1818 000c000c     ....p...........
    6edc:	000c000c 2018200c 08301018 000007c0     ..... . ..0.....
	...
    6efc:	10000000 18001e00 18001800 18001800     ................
    6f0c:	1be01800 18181c30 180c1818 180c180c     ....0...........
    6f1c:	180c180c 1808180c 7a301c18 000009e0     ..........0z....
	...
    6f4c:	07c00000 18180c30 300c1008 3ffc300c     ....0......0.0.?
    6f5c:	000c000c 2018000c 18701018 000007c0     ....... ..p.....
	...
    6f80:	c3803e00 c0c0c080 00c000c0 1ffc00c0     .>..............
    6f90:	00c000c0 00c000c0 00c000c0 00c000c0     ................
    6fa0:	00c000c0 00c000c0 00000ff8 00000000     ................
	...
    6fcc:	77c00000 18106c30 18181818 18101818     ...w0l..........
    6fdc:	07f00c30 00180018 3ff00ff0 600c7008     0..........?.p.`
    6fec:	600c600c 0fe03838 00000000 00000000     .`.`88..........
    6ffc:	00100000 0018001e 00180018 00180018     ................
    700c:	0f980018 303818d8 30183018 30183018     ......80.0.0.0.0
    701c:	30183018 30183018 30183018 0000fc7e     .0.0.0.0.0.0~...
	...
    7040:	03800380 00000380 00000000 01f80100     ................
    7050:	01800180 01800180 01800180 01800180     ................
    7060:	01800180 01800180 00001ff8 00000000     ................
	...
    7080:	38003800 00003800 00000000 1f801000     .8.8.8..........
    7090:	18001800 18001800 18001800 18001800     ................
    70a0:	18001800 18001800 18001800 0c181800     ................
    70b0:	03f00618 00000000 00000000 00100000     ................
    70c0:	0018001e 00180018 00180018 3e180018     ...............>
    70d0:	06180c18 01180318 01d80198 07180338     ............8...
    70e0:	0c180618 18181c18 00007c7e 00000000     ........~|......
	...
    70fc:	01000000 018001f8 01800180 01800180     ................
    710c:	01800180 01800180 01800180 01800180     ................
    711c:	01800180 01800180 01800180 00001ff8     ................
	...
    714c:	1cee0008 318c339c 318c318c 318c318c     .....3.1.1.1.1.1
    715c:	318c318c 318c318c 318c318c 00007bde     .1.1.1.1.1.1.{..
	...
    718c:	0f1e0010 303818d8 30183018 30183018     ......80.0.0.0.0
    719c:	30183018 30183018 30183018 0000fc7e     .0.0.0.0.0.0~...
	...
    71cc:	07c00000 30101c70 600c3018 600c600c     ....p..0.0.`.`.`
    71dc:	600c600c 3018600c 18303018 000007c0     .`.`.`.0.00.....
	...
    720c:	0f9e0010 30381858 60182018 60186018     ....X.80. .`.`.`
    721c:	60186018 30186018 18783038 00180798     .`.`.`.080x.....
    722c:	00180018 007e0018 00000000 00000000     ......~.........
	...
    724c:	23c00000 38183c30 300c3018 300c300c     ...#0<.8.0.0.0.0
    725c:	300c300c 3008300c 3c303818 300033e0     .0.0.0.0.80<.3.0
    726c:	30003000 fc003000 00000000 00000000     .0.0.0..........
	...
    728c:	3c7e0060 61606660 00e000e0 00600060     `.~<`f`a....`.`.
    729c:	00600060 00600060 00600060 000007fe     `.`.`.`.`.`.....
	...
    72cc:	27e00000 30183830 00182018 03e00070     ...'08.0. ..p...
    72dc:	1c000f80 30043004 181c300c 00000fec     .....0.0.0......
	...
    7304:	00800080 00c00080 1ffc00e0 00c000c0     ................
    7314:	00c000c0 00c000c0 00c000c0 20c000c0     ............... 
    7324:	118020c0 00000f00 00000000 00000000     . ..............
	...
    734c:	3c1e2010 30183018 30183018 30183018     . .<.0.0.0.0.0.0
    735c:	30183018 30183018 f4303818 000013e0     .0.0.0.0.80.....
	...
    738c:	3c7e0000 08181818 04300838 02700430     ..~<....8.0.0.p.
    739c:	02600260 01c001e0 00c001c0 00000080     `.`.............
	...
    73cc:	f7df0000 230c638e 238c238c 13981398     .....c.#.#.#....
    73dc:	16581658 0e700e70 04200e70 00000420     X.X.p.p.p. . ...
	...
    740c:	3efc0000 04700870 02c004e0 038001c0     ...>p.p.........
    741c:	07400380 0c200660 18180c10 00007e3e     ..@.`. .....>~..
	...
    744c:	7c7e0000 08181818 08300830 04600430     ..~|....0.0.0.`.
    745c:	02c00460 02c002c0 01800180 00800180     `...............
    746c:	00800080 003c004c 00000000 00000000     ....L.<.........
	...
    748c:	1ffc0000 0e040c0c 03000604 01800380     ................
    749c:	00e000c0 20302070 181c3038 00001ffc     ....p 0 80......
	...
    74b8:	30000000 04000800 04000400 04000400     ...0............
    74c8:	04000400 04000400 02000400 02000180     ................
    74d8:	04000400 04000400 04000400 04000400     ................
    74e8:	04000400 08000400 00003000 01000100     .........0......
    74f8:	01000100 01000100 01000100 01000100     ................
    7508:	01000100 01000100 01000100 01000100     ................
    7518:	01000100 01000100 01000100 01000100     ................
    7528:	01000100 01000100 01000100 00000000     ................
    7538:	000c0000 00200010 00200020 00200020     ...... . . . . .
    7548:	00200020 00200020 00400020 00400180      . . . . .@...@.
    7558:	00200020 00200020 00200020 00200020      . . . . . . . .
    7568:	00200020 00100020 0000000c 00380000      . . .........8.
    7578:	408600c4 22006102 00001c00 00000000     ...@.a."........
	...
    75b4:	447a0000 66666666 3f4a6666 66666666     ..zDffffffJ?ffff
    75c4:	400a6666 53f7ced9 3f9ba5e3 706d6574     ff.@...S...?temp
    75d4:	0000003a 3a6d7568 00000000 646e6977     :...hum:....wind
    75e4:	0000003a 003a5248 324f5053 0000003a     :...HR:.SPO2:...
    75f4:	0a0d5441 00000000 00004b4f 482b5441     AT......OK..AT+H
    7604:	54524145 00000a0d 532b5441 0d324f50     EART....AT+SPO2.
    7614:	0000000a ffffbd66 ffffbc58 ffffbc58     ....f...X...X...
    7624:	ffffbc56 ffffbc5e ffffbc5e ffffbc24     V...^...^...$...
    7634:	ffffbc56 ffffbc5e ffffbc24 ffffbc5e     V...^...$...^...
    7644:	ffffbc56 ffffbd52 ffffbd52 ffffbd52     V...R...R...R...
    7654:	ffffbc24 ffffc88c ffffc7de ffffc7de     $...............
    7664:	ffffc7dc ffffc7e2 ffffc7e2 ffffc7b2     ................
    7674:	ffffc7dc ffffc7e2 ffffc7b2 ffffc7e2     ................
    7684:	ffffc7dc ffffc87a ffffc87a ffffc87a     ....z...z...z...
    7694:	ffffc7b2                                ....

00007698 <__clz_tab>:
    7698:	02020100 03030303 04040404 04040404     ................
    76a8:	05050505 05050505 05050505 05050505     ................
    76b8:	06060606 06060606 06060606 06060606     ................
    76c8:	06060606 06060606 06060606 06060606     ................
    76d8:	07070707 07070707 07070707 07070707     ................
    76e8:	07070707 07070707 07070707 07070707     ................
    76f8:	07070707 07070707 07070707 07070707     ................
    7708:	07070707 07070707 07070707 07070707     ................
    7718:	08080808 08080808 08080808 08080808     ................
    7728:	08080808 08080808 08080808 08080808     ................
    7738:	08080808 08080808 08080808 08080808     ................
    7748:	08080808 08080808 08080808 08080808     ................
    7758:	08080808 08080808 08080808 08080808     ................
    7768:	08080808 08080808 08080808 08080808     ................
    7778:	08080808 08080808 08080808 08080808     ................
    7788:	08080808 08080808 08080808 08080808     ................

00007798 <__sf_fake_stderr>:
	...

000077b8 <__sf_fake_stdin>:
	...

000077d8 <__sf_fake_stdout>:
	...
    77f8:	2b302d23 00000020 004c6c68 45676665     #-0+ ...hlL.efgE
    7808:	00004746 33323130 37363534 42413938     FG..0123456789AB
    7818:	46454443 00000000 33323130 37363534     CDEF....01234567
    7828:	62613938 66656463 00000000              89abcdef....
